
Projekt_SM.elf:     file format elf32-littlearm

Sections:
Idx Name          Size      VMA       LMA       File off  Algn
  0 .isr_vector   000001c8  08000000  08000000  00010000  2**0
                  CONTENTS, ALLOC, LOAD, READONLY, DATA
  1 .text         00007c20  080001d0  080001d0  000101d0  2**4
                  CONTENTS, ALLOC, LOAD, READONLY, CODE
  2 .rodata       00000198  08007df0  08007df0  00017df0  2**2
                  CONTENTS, ALLOC, LOAD, READONLY, DATA
  3 .ARM.extab    00000000  08007f88  08007f88  000201e0  2**0
                  CONTENTS
  4 .ARM          00000008  08007f88  08007f88  00017f88  2**2
                  CONTENTS, ALLOC, LOAD, READONLY, DATA
  5 .preinit_array 00000000  08007f90  08007f90  000201e0  2**0
                  CONTENTS, ALLOC, LOAD, DATA
  6 .init_array   00000004  08007f90  08007f90  00017f90  2**2
                  CONTENTS, ALLOC, LOAD, DATA
  7 .fini_array   00000004  08007f94  08007f94  00017f94  2**2
                  CONTENTS, ALLOC, LOAD, DATA
  8 .data         000001e0  20000000  08007f98  00020000  2**2
                  CONTENTS, ALLOC, LOAD, DATA
  9 .bss          00000628  200001e0  08008178  000201e0  2**2
                  ALLOC
 10 ._user_heap_stack 00000600  20000808  08008178  00020808  2**0
                  ALLOC
 11 .ARM.attributes 00000030  00000000  00000000  000201e0  2**0
                  CONTENTS, READONLY
 12 .debug_info   00016bd5  00000000  00000000  00020210  2**0
                  CONTENTS, READONLY, DEBUGGING
 13 .debug_abbrev 00003070  00000000  00000000  00036de5  2**0
                  CONTENTS, READONLY, DEBUGGING
 14 .debug_aranges 000013f0  00000000  00000000  00039e58  2**3
                  CONTENTS, READONLY, DEBUGGING
 15 .debug_ranges 00001248  00000000  00000000  0003b248  2**3
                  CONTENTS, READONLY, DEBUGGING
 16 .debug_macro  000274f6  00000000  00000000  0003c490  2**0
                  CONTENTS, READONLY, DEBUGGING
 17 .debug_line   0001161e  00000000  00000000  00063986  2**0
                  CONTENTS, READONLY, DEBUGGING
 18 .debug_str    000ee38d  00000000  00000000  00074fa4  2**0
                  CONTENTS, READONLY, DEBUGGING
 19 .comment      0000007b  00000000  00000000  00163331  2**0
                  CONTENTS, READONLY
 20 .debug_frame  0000590c  00000000  00000000  001633ac  2**2
                  CONTENTS, READONLY, DEBUGGING

Disassembly of section .text:

080001d0 <__do_global_dtors_aux>:
 80001d0:	b510      	push	{r4, lr}
 80001d2:	4c05      	ldr	r4, [pc, #20]	; (80001e8 <__do_global_dtors_aux+0x18>)
 80001d4:	7823      	ldrb	r3, [r4, #0]
 80001d6:	b933      	cbnz	r3, 80001e6 <__do_global_dtors_aux+0x16>
 80001d8:	4b04      	ldr	r3, [pc, #16]	; (80001ec <__do_global_dtors_aux+0x1c>)
 80001da:	b113      	cbz	r3, 80001e2 <__do_global_dtors_aux+0x12>
 80001dc:	4804      	ldr	r0, [pc, #16]	; (80001f0 <__do_global_dtors_aux+0x20>)
 80001de:	f3af 8000 	nop.w
 80001e2:	2301      	movs	r3, #1
 80001e4:	7023      	strb	r3, [r4, #0]
 80001e6:	bd10      	pop	{r4, pc}
 80001e8:	200001e0 	.word	0x200001e0
 80001ec:	00000000 	.word	0x00000000
 80001f0:	08007dd8 	.word	0x08007dd8

080001f4 <frame_dummy>:
 80001f4:	b508      	push	{r3, lr}
 80001f6:	4b03      	ldr	r3, [pc, #12]	; (8000204 <frame_dummy+0x10>)
 80001f8:	b11b      	cbz	r3, 8000202 <frame_dummy+0xe>
 80001fa:	4903      	ldr	r1, [pc, #12]	; (8000208 <frame_dummy+0x14>)
 80001fc:	4803      	ldr	r0, [pc, #12]	; (800020c <frame_dummy+0x18>)
 80001fe:	f3af 8000 	nop.w
 8000202:	bd08      	pop	{r3, pc}
 8000204:	00000000 	.word	0x00000000
 8000208:	200001e4 	.word	0x200001e4
 800020c:	08007dd8 	.word	0x08007dd8

08000210 <memchr>:
 8000210:	f001 01ff 	and.w	r1, r1, #255	; 0xff
 8000214:	2a10      	cmp	r2, #16
 8000216:	db2b      	blt.n	8000270 <memchr+0x60>
 8000218:	f010 0f07 	tst.w	r0, #7
 800021c:	d008      	beq.n	8000230 <memchr+0x20>
 800021e:	f810 3b01 	ldrb.w	r3, [r0], #1
 8000222:	3a01      	subs	r2, #1
 8000224:	428b      	cmp	r3, r1
 8000226:	d02d      	beq.n	8000284 <memchr+0x74>
 8000228:	f010 0f07 	tst.w	r0, #7
 800022c:	b342      	cbz	r2, 8000280 <memchr+0x70>
 800022e:	d1f6      	bne.n	800021e <memchr+0xe>
 8000230:	b4f0      	push	{r4, r5, r6, r7}
 8000232:	ea41 2101 	orr.w	r1, r1, r1, lsl #8
 8000236:	ea41 4101 	orr.w	r1, r1, r1, lsl #16
 800023a:	f022 0407 	bic.w	r4, r2, #7
 800023e:	f07f 0700 	mvns.w	r7, #0
 8000242:	2300      	movs	r3, #0
 8000244:	e8f0 5602 	ldrd	r5, r6, [r0], #8
 8000248:	3c08      	subs	r4, #8
 800024a:	ea85 0501 	eor.w	r5, r5, r1
 800024e:	ea86 0601 	eor.w	r6, r6, r1
 8000252:	fa85 f547 	uadd8	r5, r5, r7
 8000256:	faa3 f587 	sel	r5, r3, r7
 800025a:	fa86 f647 	uadd8	r6, r6, r7
 800025e:	faa5 f687 	sel	r6, r5, r7
 8000262:	b98e      	cbnz	r6, 8000288 <memchr+0x78>
 8000264:	d1ee      	bne.n	8000244 <memchr+0x34>
 8000266:	bcf0      	pop	{r4, r5, r6, r7}
 8000268:	f001 01ff 	and.w	r1, r1, #255	; 0xff
 800026c:	f002 0207 	and.w	r2, r2, #7
 8000270:	b132      	cbz	r2, 8000280 <memchr+0x70>
 8000272:	f810 3b01 	ldrb.w	r3, [r0], #1
 8000276:	3a01      	subs	r2, #1
 8000278:	ea83 0301 	eor.w	r3, r3, r1
 800027c:	b113      	cbz	r3, 8000284 <memchr+0x74>
 800027e:	d1f8      	bne.n	8000272 <memchr+0x62>
 8000280:	2000      	movs	r0, #0
 8000282:	4770      	bx	lr
 8000284:	3801      	subs	r0, #1
 8000286:	4770      	bx	lr
 8000288:	2d00      	cmp	r5, #0
 800028a:	bf06      	itte	eq
 800028c:	4635      	moveq	r5, r6
 800028e:	3803      	subeq	r0, #3
 8000290:	3807      	subne	r0, #7
 8000292:	f015 0f01 	tst.w	r5, #1
 8000296:	d107      	bne.n	80002a8 <memchr+0x98>
 8000298:	3001      	adds	r0, #1
 800029a:	f415 7f80 	tst.w	r5, #256	; 0x100
 800029e:	bf02      	ittt	eq
 80002a0:	3001      	addeq	r0, #1
 80002a2:	f415 3fc0 	tsteq.w	r5, #98304	; 0x18000
 80002a6:	3001      	addeq	r0, #1
 80002a8:	bcf0      	pop	{r4, r5, r6, r7}
 80002aa:	3801      	subs	r0, #1
 80002ac:	4770      	bx	lr
 80002ae:	bf00      	nop

080002b0 <__aeabi_drsub>:
 80002b0:	f081 4100 	eor.w	r1, r1, #2147483648	; 0x80000000
 80002b4:	e002      	b.n	80002bc <__adddf3>
 80002b6:	bf00      	nop

080002b8 <__aeabi_dsub>:
 80002b8:	f083 4300 	eor.w	r3, r3, #2147483648	; 0x80000000

080002bc <__adddf3>:
 80002bc:	b530      	push	{r4, r5, lr}
 80002be:	ea4f 0441 	mov.w	r4, r1, lsl #1
 80002c2:	ea4f 0543 	mov.w	r5, r3, lsl #1
 80002c6:	ea94 0f05 	teq	r4, r5
 80002ca:	bf08      	it	eq
 80002cc:	ea90 0f02 	teqeq	r0, r2
 80002d0:	bf1f      	itttt	ne
 80002d2:	ea54 0c00 	orrsne.w	ip, r4, r0
 80002d6:	ea55 0c02 	orrsne.w	ip, r5, r2
 80002da:	ea7f 5c64 	mvnsne.w	ip, r4, asr #21
 80002de:	ea7f 5c65 	mvnsne.w	ip, r5, asr #21
 80002e2:	f000 80e2 	beq.w	80004aa <__adddf3+0x1ee>
 80002e6:	ea4f 5454 	mov.w	r4, r4, lsr #21
 80002ea:	ebd4 5555 	rsbs	r5, r4, r5, lsr #21
 80002ee:	bfb8      	it	lt
 80002f0:	426d      	neglt	r5, r5
 80002f2:	dd0c      	ble.n	800030e <__adddf3+0x52>
 80002f4:	442c      	add	r4, r5
 80002f6:	ea80 0202 	eor.w	r2, r0, r2
 80002fa:	ea81 0303 	eor.w	r3, r1, r3
 80002fe:	ea82 0000 	eor.w	r0, r2, r0
 8000302:	ea83 0101 	eor.w	r1, r3, r1
 8000306:	ea80 0202 	eor.w	r2, r0, r2
 800030a:	ea81 0303 	eor.w	r3, r1, r3
 800030e:	2d36      	cmp	r5, #54	; 0x36
 8000310:	bf88      	it	hi
 8000312:	bd30      	pophi	{r4, r5, pc}
 8000314:	f011 4f00 	tst.w	r1, #2147483648	; 0x80000000
 8000318:	ea4f 3101 	mov.w	r1, r1, lsl #12
 800031c:	f44f 1c80 	mov.w	ip, #1048576	; 0x100000
 8000320:	ea4c 3111 	orr.w	r1, ip, r1, lsr #12
 8000324:	d002      	beq.n	800032c <__adddf3+0x70>
 8000326:	4240      	negs	r0, r0
 8000328:	eb61 0141 	sbc.w	r1, r1, r1, lsl #1
 800032c:	f013 4f00 	tst.w	r3, #2147483648	; 0x80000000
 8000330:	ea4f 3303 	mov.w	r3, r3, lsl #12
 8000334:	ea4c 3313 	orr.w	r3, ip, r3, lsr #12
 8000338:	d002      	beq.n	8000340 <__adddf3+0x84>
 800033a:	4252      	negs	r2, r2
 800033c:	eb63 0343 	sbc.w	r3, r3, r3, lsl #1
 8000340:	ea94 0f05 	teq	r4, r5
 8000344:	f000 80a7 	beq.w	8000496 <__adddf3+0x1da>
 8000348:	f1a4 0401 	sub.w	r4, r4, #1
 800034c:	f1d5 0e20 	rsbs	lr, r5, #32
 8000350:	db0d      	blt.n	800036e <__adddf3+0xb2>
 8000352:	fa02 fc0e 	lsl.w	ip, r2, lr
 8000356:	fa22 f205 	lsr.w	r2, r2, r5
 800035a:	1880      	adds	r0, r0, r2
 800035c:	f141 0100 	adc.w	r1, r1, #0
 8000360:	fa03 f20e 	lsl.w	r2, r3, lr
 8000364:	1880      	adds	r0, r0, r2
 8000366:	fa43 f305 	asr.w	r3, r3, r5
 800036a:	4159      	adcs	r1, r3
 800036c:	e00e      	b.n	800038c <__adddf3+0xd0>
 800036e:	f1a5 0520 	sub.w	r5, r5, #32
 8000372:	f10e 0e20 	add.w	lr, lr, #32
 8000376:	2a01      	cmp	r2, #1
 8000378:	fa03 fc0e 	lsl.w	ip, r3, lr
 800037c:	bf28      	it	cs
 800037e:	f04c 0c02 	orrcs.w	ip, ip, #2
 8000382:	fa43 f305 	asr.w	r3, r3, r5
 8000386:	18c0      	adds	r0, r0, r3
 8000388:	eb51 71e3 	adcs.w	r1, r1, r3, asr #31
 800038c:	f001 4500 	and.w	r5, r1, #2147483648	; 0x80000000
 8000390:	d507      	bpl.n	80003a2 <__adddf3+0xe6>
 8000392:	f04f 0e00 	mov.w	lr, #0
 8000396:	f1dc 0c00 	rsbs	ip, ip, #0
 800039a:	eb7e 0000 	sbcs.w	r0, lr, r0
 800039e:	eb6e 0101 	sbc.w	r1, lr, r1
 80003a2:	f5b1 1f80 	cmp.w	r1, #1048576	; 0x100000
 80003a6:	d31b      	bcc.n	80003e0 <__adddf3+0x124>
 80003a8:	f5b1 1f00 	cmp.w	r1, #2097152	; 0x200000
 80003ac:	d30c      	bcc.n	80003c8 <__adddf3+0x10c>
 80003ae:	0849      	lsrs	r1, r1, #1
 80003b0:	ea5f 0030 	movs.w	r0, r0, rrx
 80003b4:	ea4f 0c3c 	mov.w	ip, ip, rrx
 80003b8:	f104 0401 	add.w	r4, r4, #1
 80003bc:	ea4f 5244 	mov.w	r2, r4, lsl #21
 80003c0:	f512 0f80 	cmn.w	r2, #4194304	; 0x400000
 80003c4:	f080 809a 	bcs.w	80004fc <__adddf3+0x240>
 80003c8:	f1bc 4f00 	cmp.w	ip, #2147483648	; 0x80000000
 80003cc:	bf08      	it	eq
 80003ce:	ea5f 0c50 	movseq.w	ip, r0, lsr #1
 80003d2:	f150 0000 	adcs.w	r0, r0, #0
 80003d6:	eb41 5104 	adc.w	r1, r1, r4, lsl #20
 80003da:	ea41 0105 	orr.w	r1, r1, r5
 80003de:	bd30      	pop	{r4, r5, pc}
 80003e0:	ea5f 0c4c 	movs.w	ip, ip, lsl #1
 80003e4:	4140      	adcs	r0, r0
 80003e6:	eb41 0101 	adc.w	r1, r1, r1
 80003ea:	f411 1f80 	tst.w	r1, #1048576	; 0x100000
 80003ee:	f1a4 0401 	sub.w	r4, r4, #1
 80003f2:	d1e9      	bne.n	80003c8 <__adddf3+0x10c>
 80003f4:	f091 0f00 	teq	r1, #0
 80003f8:	bf04      	itt	eq
 80003fa:	4601      	moveq	r1, r0
 80003fc:	2000      	moveq	r0, #0
 80003fe:	fab1 f381 	clz	r3, r1
 8000402:	bf08      	it	eq
 8000404:	3320      	addeq	r3, #32
 8000406:	f1a3 030b 	sub.w	r3, r3, #11
 800040a:	f1b3 0220 	subs.w	r2, r3, #32
 800040e:	da0c      	bge.n	800042a <__adddf3+0x16e>
 8000410:	320c      	adds	r2, #12
 8000412:	dd08      	ble.n	8000426 <__adddf3+0x16a>
 8000414:	f102 0c14 	add.w	ip, r2, #20
 8000418:	f1c2 020c 	rsb	r2, r2, #12
 800041c:	fa01 f00c 	lsl.w	r0, r1, ip
 8000420:	fa21 f102 	lsr.w	r1, r1, r2
 8000424:	e00c      	b.n	8000440 <__adddf3+0x184>
 8000426:	f102 0214 	add.w	r2, r2, #20
 800042a:	bfd8      	it	le
 800042c:	f1c2 0c20 	rsble	ip, r2, #32
 8000430:	fa01 f102 	lsl.w	r1, r1, r2
 8000434:	fa20 fc0c 	lsr.w	ip, r0, ip
 8000438:	bfdc      	itt	le
 800043a:	ea41 010c 	orrle.w	r1, r1, ip
 800043e:	4090      	lslle	r0, r2
 8000440:	1ae4      	subs	r4, r4, r3
 8000442:	bfa2      	ittt	ge
 8000444:	eb01 5104 	addge.w	r1, r1, r4, lsl #20
 8000448:	4329      	orrge	r1, r5
 800044a:	bd30      	popge	{r4, r5, pc}
 800044c:	ea6f 0404 	mvn.w	r4, r4
 8000450:	3c1f      	subs	r4, #31
 8000452:	da1c      	bge.n	800048e <__adddf3+0x1d2>
 8000454:	340c      	adds	r4, #12
 8000456:	dc0e      	bgt.n	8000476 <__adddf3+0x1ba>
 8000458:	f104 0414 	add.w	r4, r4, #20
 800045c:	f1c4 0220 	rsb	r2, r4, #32
 8000460:	fa20 f004 	lsr.w	r0, r0, r4
 8000464:	fa01 f302 	lsl.w	r3, r1, r2
 8000468:	ea40 0003 	orr.w	r0, r0, r3
 800046c:	fa21 f304 	lsr.w	r3, r1, r4
 8000470:	ea45 0103 	orr.w	r1, r5, r3
 8000474:	bd30      	pop	{r4, r5, pc}
 8000476:	f1c4 040c 	rsb	r4, r4, #12
 800047a:	f1c4 0220 	rsb	r2, r4, #32
 800047e:	fa20 f002 	lsr.w	r0, r0, r2
 8000482:	fa01 f304 	lsl.w	r3, r1, r4
 8000486:	ea40 0003 	orr.w	r0, r0, r3
 800048a:	4629      	mov	r1, r5
 800048c:	bd30      	pop	{r4, r5, pc}
 800048e:	fa21 f004 	lsr.w	r0, r1, r4
 8000492:	4629      	mov	r1, r5
 8000494:	bd30      	pop	{r4, r5, pc}
 8000496:	f094 0f00 	teq	r4, #0
 800049a:	f483 1380 	eor.w	r3, r3, #1048576	; 0x100000
 800049e:	bf06      	itte	eq
 80004a0:	f481 1180 	eoreq.w	r1, r1, #1048576	; 0x100000
 80004a4:	3401      	addeq	r4, #1
 80004a6:	3d01      	subne	r5, #1
 80004a8:	e74e      	b.n	8000348 <__adddf3+0x8c>
 80004aa:	ea7f 5c64 	mvns.w	ip, r4, asr #21
 80004ae:	bf18      	it	ne
 80004b0:	ea7f 5c65 	mvnsne.w	ip, r5, asr #21
 80004b4:	d029      	beq.n	800050a <__adddf3+0x24e>
 80004b6:	ea94 0f05 	teq	r4, r5
 80004ba:	bf08      	it	eq
 80004bc:	ea90 0f02 	teqeq	r0, r2
 80004c0:	d005      	beq.n	80004ce <__adddf3+0x212>
 80004c2:	ea54 0c00 	orrs.w	ip, r4, r0
 80004c6:	bf04      	itt	eq
 80004c8:	4619      	moveq	r1, r3
 80004ca:	4610      	moveq	r0, r2
 80004cc:	bd30      	pop	{r4, r5, pc}
 80004ce:	ea91 0f03 	teq	r1, r3
 80004d2:	bf1e      	ittt	ne
 80004d4:	2100      	movne	r1, #0
 80004d6:	2000      	movne	r0, #0
 80004d8:	bd30      	popne	{r4, r5, pc}
 80004da:	ea5f 5c54 	movs.w	ip, r4, lsr #21
 80004de:	d105      	bne.n	80004ec <__adddf3+0x230>
 80004e0:	0040      	lsls	r0, r0, #1
 80004e2:	4149      	adcs	r1, r1
 80004e4:	bf28      	it	cs
 80004e6:	f041 4100 	orrcs.w	r1, r1, #2147483648	; 0x80000000
 80004ea:	bd30      	pop	{r4, r5, pc}
 80004ec:	f514 0480 	adds.w	r4, r4, #4194304	; 0x400000
 80004f0:	bf3c      	itt	cc
 80004f2:	f501 1180 	addcc.w	r1, r1, #1048576	; 0x100000
 80004f6:	bd30      	popcc	{r4, r5, pc}
 80004f8:	f001 4500 	and.w	r5, r1, #2147483648	; 0x80000000
 80004fc:	f045 41fe 	orr.w	r1, r5, #2130706432	; 0x7f000000
 8000500:	f441 0170 	orr.w	r1, r1, #15728640	; 0xf00000
 8000504:	f04f 0000 	mov.w	r0, #0
 8000508:	bd30      	pop	{r4, r5, pc}
 800050a:	ea7f 5c64 	mvns.w	ip, r4, asr #21
 800050e:	bf1a      	itte	ne
 8000510:	4619      	movne	r1, r3
 8000512:	4610      	movne	r0, r2
 8000514:	ea7f 5c65 	mvnseq.w	ip, r5, asr #21
 8000518:	bf1c      	itt	ne
 800051a:	460b      	movne	r3, r1
 800051c:	4602      	movne	r2, r0
 800051e:	ea50 3401 	orrs.w	r4, r0, r1, lsl #12
 8000522:	bf06      	itte	eq
 8000524:	ea52 3503 	orrseq.w	r5, r2, r3, lsl #12
 8000528:	ea91 0f03 	teqeq	r1, r3
 800052c:	f441 2100 	orrne.w	r1, r1, #524288	; 0x80000
 8000530:	bd30      	pop	{r4, r5, pc}
 8000532:	bf00      	nop

08000534 <__aeabi_ui2d>:
 8000534:	f090 0f00 	teq	r0, #0
 8000538:	bf04      	itt	eq
 800053a:	2100      	moveq	r1, #0
 800053c:	4770      	bxeq	lr
 800053e:	b530      	push	{r4, r5, lr}
 8000540:	f44f 6480 	mov.w	r4, #1024	; 0x400
 8000544:	f104 0432 	add.w	r4, r4, #50	; 0x32
 8000548:	f04f 0500 	mov.w	r5, #0
 800054c:	f04f 0100 	mov.w	r1, #0
 8000550:	e750      	b.n	80003f4 <__adddf3+0x138>
 8000552:	bf00      	nop

08000554 <__aeabi_i2d>:
 8000554:	f090 0f00 	teq	r0, #0
 8000558:	bf04      	itt	eq
 800055a:	2100      	moveq	r1, #0
 800055c:	4770      	bxeq	lr
 800055e:	b530      	push	{r4, r5, lr}
 8000560:	f44f 6480 	mov.w	r4, #1024	; 0x400
 8000564:	f104 0432 	add.w	r4, r4, #50	; 0x32
 8000568:	f010 4500 	ands.w	r5, r0, #2147483648	; 0x80000000
 800056c:	bf48      	it	mi
 800056e:	4240      	negmi	r0, r0
 8000570:	f04f 0100 	mov.w	r1, #0
 8000574:	e73e      	b.n	80003f4 <__adddf3+0x138>
 8000576:	bf00      	nop

08000578 <__aeabi_f2d>:
 8000578:	0042      	lsls	r2, r0, #1
 800057a:	ea4f 01e2 	mov.w	r1, r2, asr #3
 800057e:	ea4f 0131 	mov.w	r1, r1, rrx
 8000582:	ea4f 7002 	mov.w	r0, r2, lsl #28
 8000586:	bf1f      	itttt	ne
 8000588:	f012 437f 	andsne.w	r3, r2, #4278190080	; 0xff000000
 800058c:	f093 4f7f 	teqne	r3, #4278190080	; 0xff000000
 8000590:	f081 5160 	eorne.w	r1, r1, #939524096	; 0x38000000
 8000594:	4770      	bxne	lr
 8000596:	f032 427f 	bics.w	r2, r2, #4278190080	; 0xff000000
 800059a:	bf08      	it	eq
 800059c:	4770      	bxeq	lr
 800059e:	f093 4f7f 	teq	r3, #4278190080	; 0xff000000
 80005a2:	bf04      	itt	eq
 80005a4:	f441 2100 	orreq.w	r1, r1, #524288	; 0x80000
 80005a8:	4770      	bxeq	lr
 80005aa:	b530      	push	{r4, r5, lr}
 80005ac:	f44f 7460 	mov.w	r4, #896	; 0x380
 80005b0:	f001 4500 	and.w	r5, r1, #2147483648	; 0x80000000
 80005b4:	f021 4100 	bic.w	r1, r1, #2147483648	; 0x80000000
 80005b8:	e71c      	b.n	80003f4 <__adddf3+0x138>
 80005ba:	bf00      	nop

080005bc <__aeabi_ul2d>:
 80005bc:	ea50 0201 	orrs.w	r2, r0, r1
 80005c0:	bf08      	it	eq
 80005c2:	4770      	bxeq	lr
 80005c4:	b530      	push	{r4, r5, lr}
 80005c6:	f04f 0500 	mov.w	r5, #0
 80005ca:	e00a      	b.n	80005e2 <__aeabi_l2d+0x16>

080005cc <__aeabi_l2d>:
 80005cc:	ea50 0201 	orrs.w	r2, r0, r1
 80005d0:	bf08      	it	eq
 80005d2:	4770      	bxeq	lr
 80005d4:	b530      	push	{r4, r5, lr}
 80005d6:	f011 4500 	ands.w	r5, r1, #2147483648	; 0x80000000
 80005da:	d502      	bpl.n	80005e2 <__aeabi_l2d+0x16>
 80005dc:	4240      	negs	r0, r0
 80005de:	eb61 0141 	sbc.w	r1, r1, r1, lsl #1
 80005e2:	f44f 6480 	mov.w	r4, #1024	; 0x400
 80005e6:	f104 0432 	add.w	r4, r4, #50	; 0x32
 80005ea:	ea5f 5c91 	movs.w	ip, r1, lsr #22
 80005ee:	f43f aed8 	beq.w	80003a2 <__adddf3+0xe6>
 80005f2:	f04f 0203 	mov.w	r2, #3
 80005f6:	ea5f 0cdc 	movs.w	ip, ip, lsr #3
 80005fa:	bf18      	it	ne
 80005fc:	3203      	addne	r2, #3
 80005fe:	ea5f 0cdc 	movs.w	ip, ip, lsr #3
 8000602:	bf18      	it	ne
 8000604:	3203      	addne	r2, #3
 8000606:	eb02 02dc 	add.w	r2, r2, ip, lsr #3
 800060a:	f1c2 0320 	rsb	r3, r2, #32
 800060e:	fa00 fc03 	lsl.w	ip, r0, r3
 8000612:	fa20 f002 	lsr.w	r0, r0, r2
 8000616:	fa01 fe03 	lsl.w	lr, r1, r3
 800061a:	ea40 000e 	orr.w	r0, r0, lr
 800061e:	fa21 f102 	lsr.w	r1, r1, r2
 8000622:	4414      	add	r4, r2
 8000624:	e6bd      	b.n	80003a2 <__adddf3+0xe6>
 8000626:	bf00      	nop

08000628 <__aeabi_dmul>:
 8000628:	b570      	push	{r4, r5, r6, lr}
 800062a:	f04f 0cff 	mov.w	ip, #255	; 0xff
 800062e:	f44c 6ce0 	orr.w	ip, ip, #1792	; 0x700
 8000632:	ea1c 5411 	ands.w	r4, ip, r1, lsr #20
 8000636:	bf1d      	ittte	ne
 8000638:	ea1c 5513 	andsne.w	r5, ip, r3, lsr #20
 800063c:	ea94 0f0c 	teqne	r4, ip
 8000640:	ea95 0f0c 	teqne	r5, ip
 8000644:	f000 f8de 	bleq	8000804 <__aeabi_dmul+0x1dc>
 8000648:	442c      	add	r4, r5
 800064a:	ea81 0603 	eor.w	r6, r1, r3
 800064e:	ea21 514c 	bic.w	r1, r1, ip, lsl #21
 8000652:	ea23 534c 	bic.w	r3, r3, ip, lsl #21
 8000656:	ea50 3501 	orrs.w	r5, r0, r1, lsl #12
 800065a:	bf18      	it	ne
 800065c:	ea52 3503 	orrsne.w	r5, r2, r3, lsl #12
 8000660:	f441 1180 	orr.w	r1, r1, #1048576	; 0x100000
 8000664:	f443 1380 	orr.w	r3, r3, #1048576	; 0x100000
 8000668:	d038      	beq.n	80006dc <__aeabi_dmul+0xb4>
 800066a:	fba0 ce02 	umull	ip, lr, r0, r2
 800066e:	f04f 0500 	mov.w	r5, #0
 8000672:	fbe1 e502 	umlal	lr, r5, r1, r2
 8000676:	f006 4200 	and.w	r2, r6, #2147483648	; 0x80000000
 800067a:	fbe0 e503 	umlal	lr, r5, r0, r3
 800067e:	f04f 0600 	mov.w	r6, #0
 8000682:	fbe1 5603 	umlal	r5, r6, r1, r3
 8000686:	f09c 0f00 	teq	ip, #0
 800068a:	bf18      	it	ne
 800068c:	f04e 0e01 	orrne.w	lr, lr, #1
 8000690:	f1a4 04ff 	sub.w	r4, r4, #255	; 0xff
 8000694:	f5b6 7f00 	cmp.w	r6, #512	; 0x200
 8000698:	f564 7440 	sbc.w	r4, r4, #768	; 0x300
 800069c:	d204      	bcs.n	80006a8 <__aeabi_dmul+0x80>
 800069e:	ea5f 0e4e 	movs.w	lr, lr, lsl #1
 80006a2:	416d      	adcs	r5, r5
 80006a4:	eb46 0606 	adc.w	r6, r6, r6
 80006a8:	ea42 21c6 	orr.w	r1, r2, r6, lsl #11
 80006ac:	ea41 5155 	orr.w	r1, r1, r5, lsr #21
 80006b0:	ea4f 20c5 	mov.w	r0, r5, lsl #11
 80006b4:	ea40 505e 	orr.w	r0, r0, lr, lsr #21
 80006b8:	ea4f 2ece 	mov.w	lr, lr, lsl #11
 80006bc:	f1b4 0cfd 	subs.w	ip, r4, #253	; 0xfd
 80006c0:	bf88      	it	hi
 80006c2:	f5bc 6fe0 	cmphi.w	ip, #1792	; 0x700
 80006c6:	d81e      	bhi.n	8000706 <__aeabi_dmul+0xde>
 80006c8:	f1be 4f00 	cmp.w	lr, #2147483648	; 0x80000000
 80006cc:	bf08      	it	eq
 80006ce:	ea5f 0e50 	movseq.w	lr, r0, lsr #1
 80006d2:	f150 0000 	adcs.w	r0, r0, #0
 80006d6:	eb41 5104 	adc.w	r1, r1, r4, lsl #20
 80006da:	bd70      	pop	{r4, r5, r6, pc}
 80006dc:	f006 4600 	and.w	r6, r6, #2147483648	; 0x80000000
 80006e0:	ea46 0101 	orr.w	r1, r6, r1
 80006e4:	ea40 0002 	orr.w	r0, r0, r2
 80006e8:	ea81 0103 	eor.w	r1, r1, r3
 80006ec:	ebb4 045c 	subs.w	r4, r4, ip, lsr #1
 80006f0:	bfc2      	ittt	gt
 80006f2:	ebd4 050c 	rsbsgt	r5, r4, ip
 80006f6:	ea41 5104 	orrgt.w	r1, r1, r4, lsl #20
 80006fa:	bd70      	popgt	{r4, r5, r6, pc}
 80006fc:	f441 1180 	orr.w	r1, r1, #1048576	; 0x100000
 8000700:	f04f 0e00 	mov.w	lr, #0
 8000704:	3c01      	subs	r4, #1
 8000706:	f300 80ab 	bgt.w	8000860 <__aeabi_dmul+0x238>
 800070a:	f114 0f36 	cmn.w	r4, #54	; 0x36
 800070e:	bfde      	ittt	le
 8000710:	2000      	movle	r0, #0
 8000712:	f001 4100 	andle.w	r1, r1, #2147483648	; 0x80000000
 8000716:	bd70      	pople	{r4, r5, r6, pc}
 8000718:	f1c4 0400 	rsb	r4, r4, #0
 800071c:	3c20      	subs	r4, #32
 800071e:	da35      	bge.n	800078c <__aeabi_dmul+0x164>
 8000720:	340c      	adds	r4, #12
 8000722:	dc1b      	bgt.n	800075c <__aeabi_dmul+0x134>
 8000724:	f104 0414 	add.w	r4, r4, #20
 8000728:	f1c4 0520 	rsb	r5, r4, #32
 800072c:	fa00 f305 	lsl.w	r3, r0, r5
 8000730:	fa20 f004 	lsr.w	r0, r0, r4
 8000734:	fa01 f205 	lsl.w	r2, r1, r5
 8000738:	ea40 0002 	orr.w	r0, r0, r2
 800073c:	f001 4200 	and.w	r2, r1, #2147483648	; 0x80000000
 8000740:	f021 4100 	bic.w	r1, r1, #2147483648	; 0x80000000
 8000744:	eb10 70d3 	adds.w	r0, r0, r3, lsr #31
 8000748:	fa21 f604 	lsr.w	r6, r1, r4
 800074c:	eb42 0106 	adc.w	r1, r2, r6
 8000750:	ea5e 0e43 	orrs.w	lr, lr, r3, lsl #1
 8000754:	bf08      	it	eq
 8000756:	ea20 70d3 	biceq.w	r0, r0, r3, lsr #31
 800075a:	bd70      	pop	{r4, r5, r6, pc}
 800075c:	f1c4 040c 	rsb	r4, r4, #12
 8000760:	f1c4 0520 	rsb	r5, r4, #32
 8000764:	fa00 f304 	lsl.w	r3, r0, r4
 8000768:	fa20 f005 	lsr.w	r0, r0, r5
 800076c:	fa01 f204 	lsl.w	r2, r1, r4
 8000770:	ea40 0002 	orr.w	r0, r0, r2
 8000774:	f001 4100 	and.w	r1, r1, #2147483648	; 0x80000000
 8000778:	eb10 70d3 	adds.w	r0, r0, r3, lsr #31
 800077c:	f141 0100 	adc.w	r1, r1, #0
 8000780:	ea5e 0e43 	orrs.w	lr, lr, r3, lsl #1
 8000784:	bf08      	it	eq
 8000786:	ea20 70d3 	biceq.w	r0, r0, r3, lsr #31
 800078a:	bd70      	pop	{r4, r5, r6, pc}
 800078c:	f1c4 0520 	rsb	r5, r4, #32
 8000790:	fa00 f205 	lsl.w	r2, r0, r5
 8000794:	ea4e 0e02 	orr.w	lr, lr, r2
 8000798:	fa20 f304 	lsr.w	r3, r0, r4
 800079c:	fa01 f205 	lsl.w	r2, r1, r5
 80007a0:	ea43 0302 	orr.w	r3, r3, r2
 80007a4:	fa21 f004 	lsr.w	r0, r1, r4
 80007a8:	f001 4100 	and.w	r1, r1, #2147483648	; 0x80000000
 80007ac:	fa21 f204 	lsr.w	r2, r1, r4
 80007b0:	ea20 0002 	bic.w	r0, r0, r2
 80007b4:	eb00 70d3 	add.w	r0, r0, r3, lsr #31
 80007b8:	ea5e 0e43 	orrs.w	lr, lr, r3, lsl #1
 80007bc:	bf08      	it	eq
 80007be:	ea20 70d3 	biceq.w	r0, r0, r3, lsr #31
 80007c2:	bd70      	pop	{r4, r5, r6, pc}
 80007c4:	f094 0f00 	teq	r4, #0
 80007c8:	d10f      	bne.n	80007ea <__aeabi_dmul+0x1c2>
 80007ca:	f001 4600 	and.w	r6, r1, #2147483648	; 0x80000000
 80007ce:	0040      	lsls	r0, r0, #1
 80007d0:	eb41 0101 	adc.w	r1, r1, r1
 80007d4:	f411 1f80 	tst.w	r1, #1048576	; 0x100000
 80007d8:	bf08      	it	eq
 80007da:	3c01      	subeq	r4, #1
 80007dc:	d0f7      	beq.n	80007ce <__aeabi_dmul+0x1a6>
 80007de:	ea41 0106 	orr.w	r1, r1, r6
 80007e2:	f095 0f00 	teq	r5, #0
 80007e6:	bf18      	it	ne
 80007e8:	4770      	bxne	lr
 80007ea:	f003 4600 	and.w	r6, r3, #2147483648	; 0x80000000
 80007ee:	0052      	lsls	r2, r2, #1
 80007f0:	eb43 0303 	adc.w	r3, r3, r3
 80007f4:	f413 1f80 	tst.w	r3, #1048576	; 0x100000
 80007f8:	bf08      	it	eq
 80007fa:	3d01      	subeq	r5, #1
 80007fc:	d0f7      	beq.n	80007ee <__aeabi_dmul+0x1c6>
 80007fe:	ea43 0306 	orr.w	r3, r3, r6
 8000802:	4770      	bx	lr
 8000804:	ea94 0f0c 	teq	r4, ip
 8000808:	ea0c 5513 	and.w	r5, ip, r3, lsr #20
 800080c:	bf18      	it	ne
 800080e:	ea95 0f0c 	teqne	r5, ip
 8000812:	d00c      	beq.n	800082e <__aeabi_dmul+0x206>
 8000814:	ea50 0641 	orrs.w	r6, r0, r1, lsl #1
 8000818:	bf18      	it	ne
 800081a:	ea52 0643 	orrsne.w	r6, r2, r3, lsl #1
 800081e:	d1d1      	bne.n	80007c4 <__aeabi_dmul+0x19c>
 8000820:	ea81 0103 	eor.w	r1, r1, r3
 8000824:	f001 4100 	and.w	r1, r1, #2147483648	; 0x80000000
 8000828:	f04f 0000 	mov.w	r0, #0
 800082c:	bd70      	pop	{r4, r5, r6, pc}
 800082e:	ea50 0641 	orrs.w	r6, r0, r1, lsl #1
 8000832:	bf06      	itte	eq
 8000834:	4610      	moveq	r0, r2
 8000836:	4619      	moveq	r1, r3
 8000838:	ea52 0643 	orrsne.w	r6, r2, r3, lsl #1
 800083c:	d019      	beq.n	8000872 <__aeabi_dmul+0x24a>
 800083e:	ea94 0f0c 	teq	r4, ip
 8000842:	d102      	bne.n	800084a <__aeabi_dmul+0x222>
 8000844:	ea50 3601 	orrs.w	r6, r0, r1, lsl #12
 8000848:	d113      	bne.n	8000872 <__aeabi_dmul+0x24a>
 800084a:	ea95 0f0c 	teq	r5, ip
 800084e:	d105      	bne.n	800085c <__aeabi_dmul+0x234>
 8000850:	ea52 3603 	orrs.w	r6, r2, r3, lsl #12
 8000854:	bf1c      	itt	ne
 8000856:	4610      	movne	r0, r2
 8000858:	4619      	movne	r1, r3
 800085a:	d10a      	bne.n	8000872 <__aeabi_dmul+0x24a>
 800085c:	ea81 0103 	eor.w	r1, r1, r3
 8000860:	f001 4100 	and.w	r1, r1, #2147483648	; 0x80000000
 8000864:	f041 41fe 	orr.w	r1, r1, #2130706432	; 0x7f000000
 8000868:	f441 0170 	orr.w	r1, r1, #15728640	; 0xf00000
 800086c:	f04f 0000 	mov.w	r0, #0
 8000870:	bd70      	pop	{r4, r5, r6, pc}
 8000872:	f041 41fe 	orr.w	r1, r1, #2130706432	; 0x7f000000
 8000876:	f441 0178 	orr.w	r1, r1, #16252928	; 0xf80000
 800087a:	bd70      	pop	{r4, r5, r6, pc}

0800087c <__aeabi_ddiv>:
 800087c:	b570      	push	{r4, r5, r6, lr}
 800087e:	f04f 0cff 	mov.w	ip, #255	; 0xff
 8000882:	f44c 6ce0 	orr.w	ip, ip, #1792	; 0x700
 8000886:	ea1c 5411 	ands.w	r4, ip, r1, lsr #20
 800088a:	bf1d      	ittte	ne
 800088c:	ea1c 5513 	andsne.w	r5, ip, r3, lsr #20
 8000890:	ea94 0f0c 	teqne	r4, ip
 8000894:	ea95 0f0c 	teqne	r5, ip
 8000898:	f000 f8a7 	bleq	80009ea <__aeabi_ddiv+0x16e>
 800089c:	eba4 0405 	sub.w	r4, r4, r5
 80008a0:	ea81 0e03 	eor.w	lr, r1, r3
 80008a4:	ea52 3503 	orrs.w	r5, r2, r3, lsl #12
 80008a8:	ea4f 3101 	mov.w	r1, r1, lsl #12
 80008ac:	f000 8088 	beq.w	80009c0 <__aeabi_ddiv+0x144>
 80008b0:	ea4f 3303 	mov.w	r3, r3, lsl #12
 80008b4:	f04f 5580 	mov.w	r5, #268435456	; 0x10000000
 80008b8:	ea45 1313 	orr.w	r3, r5, r3, lsr #4
 80008bc:	ea43 6312 	orr.w	r3, r3, r2, lsr #24
 80008c0:	ea4f 2202 	mov.w	r2, r2, lsl #8
 80008c4:	ea45 1511 	orr.w	r5, r5, r1, lsr #4
 80008c8:	ea45 6510 	orr.w	r5, r5, r0, lsr #24
 80008cc:	ea4f 2600 	mov.w	r6, r0, lsl #8
 80008d0:	f00e 4100 	and.w	r1, lr, #2147483648	; 0x80000000
 80008d4:	429d      	cmp	r5, r3
 80008d6:	bf08      	it	eq
 80008d8:	4296      	cmpeq	r6, r2
 80008da:	f144 04fd 	adc.w	r4, r4, #253	; 0xfd
 80008de:	f504 7440 	add.w	r4, r4, #768	; 0x300
 80008e2:	d202      	bcs.n	80008ea <__aeabi_ddiv+0x6e>
 80008e4:	085b      	lsrs	r3, r3, #1
 80008e6:	ea4f 0232 	mov.w	r2, r2, rrx
 80008ea:	1ab6      	subs	r6, r6, r2
 80008ec:	eb65 0503 	sbc.w	r5, r5, r3
 80008f0:	085b      	lsrs	r3, r3, #1
 80008f2:	ea4f 0232 	mov.w	r2, r2, rrx
 80008f6:	f44f 1080 	mov.w	r0, #1048576	; 0x100000
 80008fa:	f44f 2c00 	mov.w	ip, #524288	; 0x80000
 80008fe:	ebb6 0e02 	subs.w	lr, r6, r2
 8000902:	eb75 0e03 	sbcs.w	lr, r5, r3
 8000906:	bf22      	ittt	cs
 8000908:	1ab6      	subcs	r6, r6, r2
 800090a:	4675      	movcs	r5, lr
 800090c:	ea40 000c 	orrcs.w	r0, r0, ip
 8000910:	085b      	lsrs	r3, r3, #1
 8000912:	ea4f 0232 	mov.w	r2, r2, rrx
 8000916:	ebb6 0e02 	subs.w	lr, r6, r2
 800091a:	eb75 0e03 	sbcs.w	lr, r5, r3
 800091e:	bf22      	ittt	cs
 8000920:	1ab6      	subcs	r6, r6, r2
 8000922:	4675      	movcs	r5, lr
 8000924:	ea40 005c 	orrcs.w	r0, r0, ip, lsr #1
 8000928:	085b      	lsrs	r3, r3, #1
 800092a:	ea4f 0232 	mov.w	r2, r2, rrx
 800092e:	ebb6 0e02 	subs.w	lr, r6, r2
 8000932:	eb75 0e03 	sbcs.w	lr, r5, r3
 8000936:	bf22      	ittt	cs
 8000938:	1ab6      	subcs	r6, r6, r2
 800093a:	4675      	movcs	r5, lr
 800093c:	ea40 009c 	orrcs.w	r0, r0, ip, lsr #2
 8000940:	085b      	lsrs	r3, r3, #1
 8000942:	ea4f 0232 	mov.w	r2, r2, rrx
 8000946:	ebb6 0e02 	subs.w	lr, r6, r2
 800094a:	eb75 0e03 	sbcs.w	lr, r5, r3
 800094e:	bf22      	ittt	cs
 8000950:	1ab6      	subcs	r6, r6, r2
 8000952:	4675      	movcs	r5, lr
 8000954:	ea40 00dc 	orrcs.w	r0, r0, ip, lsr #3
 8000958:	ea55 0e06 	orrs.w	lr, r5, r6
 800095c:	d018      	beq.n	8000990 <__aeabi_ddiv+0x114>
 800095e:	ea4f 1505 	mov.w	r5, r5, lsl #4
 8000962:	ea45 7516 	orr.w	r5, r5, r6, lsr #28
 8000966:	ea4f 1606 	mov.w	r6, r6, lsl #4
 800096a:	ea4f 03c3 	mov.w	r3, r3, lsl #3
 800096e:	ea43 7352 	orr.w	r3, r3, r2, lsr #29
 8000972:	ea4f 02c2 	mov.w	r2, r2, lsl #3
 8000976:	ea5f 1c1c 	movs.w	ip, ip, lsr #4
 800097a:	d1c0      	bne.n	80008fe <__aeabi_ddiv+0x82>
 800097c:	f411 1f80 	tst.w	r1, #1048576	; 0x100000
 8000980:	d10b      	bne.n	800099a <__aeabi_ddiv+0x11e>
 8000982:	ea41 0100 	orr.w	r1, r1, r0
 8000986:	f04f 0000 	mov.w	r0, #0
 800098a:	f04f 4c00 	mov.w	ip, #2147483648	; 0x80000000
 800098e:	e7b6      	b.n	80008fe <__aeabi_ddiv+0x82>
 8000990:	f411 1f80 	tst.w	r1, #1048576	; 0x100000
 8000994:	bf04      	itt	eq
 8000996:	4301      	orreq	r1, r0
 8000998:	2000      	moveq	r0, #0
 800099a:	f1b4 0cfd 	subs.w	ip, r4, #253	; 0xfd
 800099e:	bf88      	it	hi
 80009a0:	f5bc 6fe0 	cmphi.w	ip, #1792	; 0x700
 80009a4:	f63f aeaf 	bhi.w	8000706 <__aeabi_dmul+0xde>
 80009a8:	ebb5 0c03 	subs.w	ip, r5, r3
 80009ac:	bf04      	itt	eq
 80009ae:	ebb6 0c02 	subseq.w	ip, r6, r2
 80009b2:	ea5f 0c50 	movseq.w	ip, r0, lsr #1
 80009b6:	f150 0000 	adcs.w	r0, r0, #0
 80009ba:	eb41 5104 	adc.w	r1, r1, r4, lsl #20
 80009be:	bd70      	pop	{r4, r5, r6, pc}
 80009c0:	f00e 4e00 	and.w	lr, lr, #2147483648	; 0x80000000
 80009c4:	ea4e 3111 	orr.w	r1, lr, r1, lsr #12
 80009c8:	eb14 045c 	adds.w	r4, r4, ip, lsr #1
 80009cc:	bfc2      	ittt	gt
 80009ce:	ebd4 050c 	rsbsgt	r5, r4, ip
 80009d2:	ea41 5104 	orrgt.w	r1, r1, r4, lsl #20
 80009d6:	bd70      	popgt	{r4, r5, r6, pc}
 80009d8:	f441 1180 	orr.w	r1, r1, #1048576	; 0x100000
 80009dc:	f04f 0e00 	mov.w	lr, #0
 80009e0:	3c01      	subs	r4, #1
 80009e2:	e690      	b.n	8000706 <__aeabi_dmul+0xde>
 80009e4:	ea45 0e06 	orr.w	lr, r5, r6
 80009e8:	e68d      	b.n	8000706 <__aeabi_dmul+0xde>
 80009ea:	ea0c 5513 	and.w	r5, ip, r3, lsr #20
 80009ee:	ea94 0f0c 	teq	r4, ip
 80009f2:	bf08      	it	eq
 80009f4:	ea95 0f0c 	teqeq	r5, ip
 80009f8:	f43f af3b 	beq.w	8000872 <__aeabi_dmul+0x24a>
 80009fc:	ea94 0f0c 	teq	r4, ip
 8000a00:	d10a      	bne.n	8000a18 <__aeabi_ddiv+0x19c>
 8000a02:	ea50 3401 	orrs.w	r4, r0, r1, lsl #12
 8000a06:	f47f af34 	bne.w	8000872 <__aeabi_dmul+0x24a>
 8000a0a:	ea95 0f0c 	teq	r5, ip
 8000a0e:	f47f af25 	bne.w	800085c <__aeabi_dmul+0x234>
 8000a12:	4610      	mov	r0, r2
 8000a14:	4619      	mov	r1, r3
 8000a16:	e72c      	b.n	8000872 <__aeabi_dmul+0x24a>
 8000a18:	ea95 0f0c 	teq	r5, ip
 8000a1c:	d106      	bne.n	8000a2c <__aeabi_ddiv+0x1b0>
 8000a1e:	ea52 3503 	orrs.w	r5, r2, r3, lsl #12
 8000a22:	f43f aefd 	beq.w	8000820 <__aeabi_dmul+0x1f8>
 8000a26:	4610      	mov	r0, r2
 8000a28:	4619      	mov	r1, r3
 8000a2a:	e722      	b.n	8000872 <__aeabi_dmul+0x24a>
 8000a2c:	ea50 0641 	orrs.w	r6, r0, r1, lsl #1
 8000a30:	bf18      	it	ne
 8000a32:	ea52 0643 	orrsne.w	r6, r2, r3, lsl #1
 8000a36:	f47f aec5 	bne.w	80007c4 <__aeabi_dmul+0x19c>
 8000a3a:	ea50 0441 	orrs.w	r4, r0, r1, lsl #1
 8000a3e:	f47f af0d 	bne.w	800085c <__aeabi_dmul+0x234>
 8000a42:	ea52 0543 	orrs.w	r5, r2, r3, lsl #1
 8000a46:	f47f aeeb 	bne.w	8000820 <__aeabi_dmul+0x1f8>
 8000a4a:	e712      	b.n	8000872 <__aeabi_dmul+0x24a>

08000a4c <__aeabi_d2iz>:
 8000a4c:	ea4f 0241 	mov.w	r2, r1, lsl #1
 8000a50:	f512 1200 	adds.w	r2, r2, #2097152	; 0x200000
 8000a54:	d215      	bcs.n	8000a82 <__aeabi_d2iz+0x36>
 8000a56:	d511      	bpl.n	8000a7c <__aeabi_d2iz+0x30>
 8000a58:	f46f 7378 	mvn.w	r3, #992	; 0x3e0
 8000a5c:	ebb3 5262 	subs.w	r2, r3, r2, asr #21
 8000a60:	d912      	bls.n	8000a88 <__aeabi_d2iz+0x3c>
 8000a62:	ea4f 23c1 	mov.w	r3, r1, lsl #11
 8000a66:	f043 4300 	orr.w	r3, r3, #2147483648	; 0x80000000
 8000a6a:	ea43 5350 	orr.w	r3, r3, r0, lsr #21
 8000a6e:	f011 4f00 	tst.w	r1, #2147483648	; 0x80000000
 8000a72:	fa23 f002 	lsr.w	r0, r3, r2
 8000a76:	bf18      	it	ne
 8000a78:	4240      	negne	r0, r0
 8000a7a:	4770      	bx	lr
 8000a7c:	f04f 0000 	mov.w	r0, #0
 8000a80:	4770      	bx	lr
 8000a82:	ea50 3001 	orrs.w	r0, r0, r1, lsl #12
 8000a86:	d105      	bne.n	8000a94 <__aeabi_d2iz+0x48>
 8000a88:	f011 4000 	ands.w	r0, r1, #2147483648	; 0x80000000
 8000a8c:	bf08      	it	eq
 8000a8e:	f06f 4000 	mvneq.w	r0, #2147483648	; 0x80000000
 8000a92:	4770      	bx	lr
 8000a94:	f04f 0000 	mov.w	r0, #0
 8000a98:	4770      	bx	lr
 8000a9a:	bf00      	nop

08000a9c <__aeabi_uldivmod>:
 8000a9c:	b953      	cbnz	r3, 8000ab4 <__aeabi_uldivmod+0x18>
 8000a9e:	b94a      	cbnz	r2, 8000ab4 <__aeabi_uldivmod+0x18>
 8000aa0:	2900      	cmp	r1, #0
 8000aa2:	bf08      	it	eq
 8000aa4:	2800      	cmpeq	r0, #0
 8000aa6:	bf1c      	itt	ne
 8000aa8:	f04f 31ff 	movne.w	r1, #4294967295
 8000aac:	f04f 30ff 	movne.w	r0, #4294967295
 8000ab0:	f000 b972 	b.w	8000d98 <__aeabi_idiv0>
 8000ab4:	f1ad 0c08 	sub.w	ip, sp, #8
 8000ab8:	e96d ce04 	strd	ip, lr, [sp, #-16]!
 8000abc:	f000 f806 	bl	8000acc <__udivmoddi4>
 8000ac0:	f8dd e004 	ldr.w	lr, [sp, #4]
 8000ac4:	e9dd 2302 	ldrd	r2, r3, [sp, #8]
 8000ac8:	b004      	add	sp, #16
 8000aca:	4770      	bx	lr

08000acc <__udivmoddi4>:
 8000acc:	e92d 47f0 	stmdb	sp!, {r4, r5, r6, r7, r8, r9, sl, lr}
 8000ad0:	9e08      	ldr	r6, [sp, #32]
 8000ad2:	4604      	mov	r4, r0
 8000ad4:	4688      	mov	r8, r1
 8000ad6:	2b00      	cmp	r3, #0
 8000ad8:	d14b      	bne.n	8000b72 <__udivmoddi4+0xa6>
 8000ada:	428a      	cmp	r2, r1
 8000adc:	4615      	mov	r5, r2
 8000ade:	d967      	bls.n	8000bb0 <__udivmoddi4+0xe4>
 8000ae0:	fab2 f282 	clz	r2, r2
 8000ae4:	b14a      	cbz	r2, 8000afa <__udivmoddi4+0x2e>
 8000ae6:	f1c2 0720 	rsb	r7, r2, #32
 8000aea:	fa01 f302 	lsl.w	r3, r1, r2
 8000aee:	fa20 f707 	lsr.w	r7, r0, r7
 8000af2:	4095      	lsls	r5, r2
 8000af4:	ea47 0803 	orr.w	r8, r7, r3
 8000af8:	4094      	lsls	r4, r2
 8000afa:	ea4f 4e15 	mov.w	lr, r5, lsr #16
 8000afe:	0c23      	lsrs	r3, r4, #16
 8000b00:	fbb8 f7fe 	udiv	r7, r8, lr
 8000b04:	fa1f fc85 	uxth.w	ip, r5
 8000b08:	fb0e 8817 	mls	r8, lr, r7, r8
 8000b0c:	ea43 4308 	orr.w	r3, r3, r8, lsl #16
 8000b10:	fb07 f10c 	mul.w	r1, r7, ip
 8000b14:	4299      	cmp	r1, r3
 8000b16:	d909      	bls.n	8000b2c <__udivmoddi4+0x60>
 8000b18:	18eb      	adds	r3, r5, r3
 8000b1a:	f107 30ff 	add.w	r0, r7, #4294967295
 8000b1e:	f080 811b 	bcs.w	8000d58 <__udivmoddi4+0x28c>
 8000b22:	4299      	cmp	r1, r3
 8000b24:	f240 8118 	bls.w	8000d58 <__udivmoddi4+0x28c>
 8000b28:	3f02      	subs	r7, #2
 8000b2a:	442b      	add	r3, r5
 8000b2c:	1a5b      	subs	r3, r3, r1
 8000b2e:	b2a4      	uxth	r4, r4
 8000b30:	fbb3 f0fe 	udiv	r0, r3, lr
 8000b34:	fb0e 3310 	mls	r3, lr, r0, r3
 8000b38:	ea44 4403 	orr.w	r4, r4, r3, lsl #16
 8000b3c:	fb00 fc0c 	mul.w	ip, r0, ip
 8000b40:	45a4      	cmp	ip, r4
 8000b42:	d909      	bls.n	8000b58 <__udivmoddi4+0x8c>
 8000b44:	192c      	adds	r4, r5, r4
 8000b46:	f100 33ff 	add.w	r3, r0, #4294967295
 8000b4a:	f080 8107 	bcs.w	8000d5c <__udivmoddi4+0x290>
 8000b4e:	45a4      	cmp	ip, r4
 8000b50:	f240 8104 	bls.w	8000d5c <__udivmoddi4+0x290>
 8000b54:	3802      	subs	r0, #2
 8000b56:	442c      	add	r4, r5
 8000b58:	ea40 4007 	orr.w	r0, r0, r7, lsl #16
 8000b5c:	eba4 040c 	sub.w	r4, r4, ip
 8000b60:	2700      	movs	r7, #0
 8000b62:	b11e      	cbz	r6, 8000b6c <__udivmoddi4+0xa0>
 8000b64:	40d4      	lsrs	r4, r2
 8000b66:	2300      	movs	r3, #0
 8000b68:	e9c6 4300 	strd	r4, r3, [r6]
 8000b6c:	4639      	mov	r1, r7
 8000b6e:	e8bd 87f0 	ldmia.w	sp!, {r4, r5, r6, r7, r8, r9, sl, pc}
 8000b72:	428b      	cmp	r3, r1
 8000b74:	d909      	bls.n	8000b8a <__udivmoddi4+0xbe>
 8000b76:	2e00      	cmp	r6, #0
 8000b78:	f000 80eb 	beq.w	8000d52 <__udivmoddi4+0x286>
 8000b7c:	2700      	movs	r7, #0
 8000b7e:	e9c6 0100 	strd	r0, r1, [r6]
 8000b82:	4638      	mov	r0, r7
 8000b84:	4639      	mov	r1, r7
 8000b86:	e8bd 87f0 	ldmia.w	sp!, {r4, r5, r6, r7, r8, r9, sl, pc}
 8000b8a:	fab3 f783 	clz	r7, r3
 8000b8e:	2f00      	cmp	r7, #0
 8000b90:	d147      	bne.n	8000c22 <__udivmoddi4+0x156>
 8000b92:	428b      	cmp	r3, r1
 8000b94:	d302      	bcc.n	8000b9c <__udivmoddi4+0xd0>
 8000b96:	4282      	cmp	r2, r0
 8000b98:	f200 80fa 	bhi.w	8000d90 <__udivmoddi4+0x2c4>
 8000b9c:	1a84      	subs	r4, r0, r2
 8000b9e:	eb61 0303 	sbc.w	r3, r1, r3
 8000ba2:	2001      	movs	r0, #1
 8000ba4:	4698      	mov	r8, r3
 8000ba6:	2e00      	cmp	r6, #0
 8000ba8:	d0e0      	beq.n	8000b6c <__udivmoddi4+0xa0>
 8000baa:	e9c6 4800 	strd	r4, r8, [r6]
 8000bae:	e7dd      	b.n	8000b6c <__udivmoddi4+0xa0>
 8000bb0:	b902      	cbnz	r2, 8000bb4 <__udivmoddi4+0xe8>
 8000bb2:	deff      	udf	#255	; 0xff
 8000bb4:	fab2 f282 	clz	r2, r2
 8000bb8:	2a00      	cmp	r2, #0
 8000bba:	f040 808f 	bne.w	8000cdc <__udivmoddi4+0x210>
 8000bbe:	1b49      	subs	r1, r1, r5
 8000bc0:	ea4f 4e15 	mov.w	lr, r5, lsr #16
 8000bc4:	fa1f f885 	uxth.w	r8, r5
 8000bc8:	2701      	movs	r7, #1
 8000bca:	fbb1 fcfe 	udiv	ip, r1, lr
 8000bce:	0c23      	lsrs	r3, r4, #16
 8000bd0:	fb0e 111c 	mls	r1, lr, ip, r1
 8000bd4:	ea43 4301 	orr.w	r3, r3, r1, lsl #16
 8000bd8:	fb08 f10c 	mul.w	r1, r8, ip
 8000bdc:	4299      	cmp	r1, r3
 8000bde:	d907      	bls.n	8000bf0 <__udivmoddi4+0x124>
 8000be0:	18eb      	adds	r3, r5, r3
 8000be2:	f10c 30ff 	add.w	r0, ip, #4294967295
 8000be6:	d202      	bcs.n	8000bee <__udivmoddi4+0x122>
 8000be8:	4299      	cmp	r1, r3
 8000bea:	f200 80cd 	bhi.w	8000d88 <__udivmoddi4+0x2bc>
 8000bee:	4684      	mov	ip, r0
 8000bf0:	1a59      	subs	r1, r3, r1
 8000bf2:	b2a3      	uxth	r3, r4
 8000bf4:	fbb1 f0fe 	udiv	r0, r1, lr
 8000bf8:	fb0e 1410 	mls	r4, lr, r0, r1
 8000bfc:	ea43 4404 	orr.w	r4, r3, r4, lsl #16
 8000c00:	fb08 f800 	mul.w	r8, r8, r0
 8000c04:	45a0      	cmp	r8, r4
 8000c06:	d907      	bls.n	8000c18 <__udivmoddi4+0x14c>
 8000c08:	192c      	adds	r4, r5, r4
 8000c0a:	f100 33ff 	add.w	r3, r0, #4294967295
 8000c0e:	d202      	bcs.n	8000c16 <__udivmoddi4+0x14a>
 8000c10:	45a0      	cmp	r8, r4
 8000c12:	f200 80b6 	bhi.w	8000d82 <__udivmoddi4+0x2b6>
 8000c16:	4618      	mov	r0, r3
 8000c18:	eba4 0408 	sub.w	r4, r4, r8
 8000c1c:	ea40 400c 	orr.w	r0, r0, ip, lsl #16
 8000c20:	e79f      	b.n	8000b62 <__udivmoddi4+0x96>
 8000c22:	f1c7 0c20 	rsb	ip, r7, #32
 8000c26:	40bb      	lsls	r3, r7
 8000c28:	fa22 fe0c 	lsr.w	lr, r2, ip
 8000c2c:	ea4e 0e03 	orr.w	lr, lr, r3
 8000c30:	fa01 f407 	lsl.w	r4, r1, r7
 8000c34:	fa20 f50c 	lsr.w	r5, r0, ip
 8000c38:	fa21 f30c 	lsr.w	r3, r1, ip
 8000c3c:	ea4f 481e 	mov.w	r8, lr, lsr #16
 8000c40:	4325      	orrs	r5, r4
 8000c42:	fbb3 f9f8 	udiv	r9, r3, r8
 8000c46:	0c2c      	lsrs	r4, r5, #16
 8000c48:	fb08 3319 	mls	r3, r8, r9, r3
 8000c4c:	fa1f fa8e 	uxth.w	sl, lr
 8000c50:	ea44 4303 	orr.w	r3, r4, r3, lsl #16
 8000c54:	fb09 f40a 	mul.w	r4, r9, sl
 8000c58:	429c      	cmp	r4, r3
 8000c5a:	fa02 f207 	lsl.w	r2, r2, r7
 8000c5e:	fa00 f107 	lsl.w	r1, r0, r7
 8000c62:	d90b      	bls.n	8000c7c <__udivmoddi4+0x1b0>
 8000c64:	eb1e 0303 	adds.w	r3, lr, r3
 8000c68:	f109 30ff 	add.w	r0, r9, #4294967295
 8000c6c:	f080 8087 	bcs.w	8000d7e <__udivmoddi4+0x2b2>
 8000c70:	429c      	cmp	r4, r3
 8000c72:	f240 8084 	bls.w	8000d7e <__udivmoddi4+0x2b2>
 8000c76:	f1a9 0902 	sub.w	r9, r9, #2
 8000c7a:	4473      	add	r3, lr
 8000c7c:	1b1b      	subs	r3, r3, r4
 8000c7e:	b2ad      	uxth	r5, r5
 8000c80:	fbb3 f0f8 	udiv	r0, r3, r8
 8000c84:	fb08 3310 	mls	r3, r8, r0, r3
 8000c88:	ea45 4403 	orr.w	r4, r5, r3, lsl #16
 8000c8c:	fb00 fa0a 	mul.w	sl, r0, sl
 8000c90:	45a2      	cmp	sl, r4
 8000c92:	d908      	bls.n	8000ca6 <__udivmoddi4+0x1da>
 8000c94:	eb1e 0404 	adds.w	r4, lr, r4
 8000c98:	f100 33ff 	add.w	r3, r0, #4294967295
 8000c9c:	d26b      	bcs.n	8000d76 <__udivmoddi4+0x2aa>
 8000c9e:	45a2      	cmp	sl, r4
 8000ca0:	d969      	bls.n	8000d76 <__udivmoddi4+0x2aa>
 8000ca2:	3802      	subs	r0, #2
 8000ca4:	4474      	add	r4, lr
 8000ca6:	ea40 4009 	orr.w	r0, r0, r9, lsl #16
 8000caa:	fba0 8902 	umull	r8, r9, r0, r2
 8000cae:	eba4 040a 	sub.w	r4, r4, sl
 8000cb2:	454c      	cmp	r4, r9
 8000cb4:	46c2      	mov	sl, r8
 8000cb6:	464b      	mov	r3, r9
 8000cb8:	d354      	bcc.n	8000d64 <__udivmoddi4+0x298>
 8000cba:	d051      	beq.n	8000d60 <__udivmoddi4+0x294>
 8000cbc:	2e00      	cmp	r6, #0
 8000cbe:	d069      	beq.n	8000d94 <__udivmoddi4+0x2c8>
 8000cc0:	ebb1 050a 	subs.w	r5, r1, sl
 8000cc4:	eb64 0403 	sbc.w	r4, r4, r3
 8000cc8:	fa04 fc0c 	lsl.w	ip, r4, ip
 8000ccc:	40fd      	lsrs	r5, r7
 8000cce:	40fc      	lsrs	r4, r7
 8000cd0:	ea4c 0505 	orr.w	r5, ip, r5
 8000cd4:	e9c6 5400 	strd	r5, r4, [r6]
 8000cd8:	2700      	movs	r7, #0
 8000cda:	e747      	b.n	8000b6c <__udivmoddi4+0xa0>
 8000cdc:	f1c2 0320 	rsb	r3, r2, #32
 8000ce0:	fa20 f703 	lsr.w	r7, r0, r3
 8000ce4:	4095      	lsls	r5, r2
 8000ce6:	fa01 f002 	lsl.w	r0, r1, r2
 8000cea:	fa21 f303 	lsr.w	r3, r1, r3
 8000cee:	ea4f 4e15 	mov.w	lr, r5, lsr #16
 8000cf2:	4338      	orrs	r0, r7
 8000cf4:	0c01      	lsrs	r1, r0, #16
 8000cf6:	fbb3 f7fe 	udiv	r7, r3, lr
 8000cfa:	fa1f f885 	uxth.w	r8, r5
 8000cfe:	fb0e 3317 	mls	r3, lr, r7, r3
 8000d02:	ea41 4103 	orr.w	r1, r1, r3, lsl #16
 8000d06:	fb07 f308 	mul.w	r3, r7, r8
 8000d0a:	428b      	cmp	r3, r1
 8000d0c:	fa04 f402 	lsl.w	r4, r4, r2
 8000d10:	d907      	bls.n	8000d22 <__udivmoddi4+0x256>
 8000d12:	1869      	adds	r1, r5, r1
 8000d14:	f107 3cff 	add.w	ip, r7, #4294967295
 8000d18:	d22f      	bcs.n	8000d7a <__udivmoddi4+0x2ae>
 8000d1a:	428b      	cmp	r3, r1
 8000d1c:	d92d      	bls.n	8000d7a <__udivmoddi4+0x2ae>
 8000d1e:	3f02      	subs	r7, #2
 8000d20:	4429      	add	r1, r5
 8000d22:	1acb      	subs	r3, r1, r3
 8000d24:	b281      	uxth	r1, r0
 8000d26:	fbb3 f0fe 	udiv	r0, r3, lr
 8000d2a:	fb0e 3310 	mls	r3, lr, r0, r3
 8000d2e:	ea41 4103 	orr.w	r1, r1, r3, lsl #16
 8000d32:	fb00 f308 	mul.w	r3, r0, r8
 8000d36:	428b      	cmp	r3, r1
 8000d38:	d907      	bls.n	8000d4a <__udivmoddi4+0x27e>
 8000d3a:	1869      	adds	r1, r5, r1
 8000d3c:	f100 3cff 	add.w	ip, r0, #4294967295
 8000d40:	d217      	bcs.n	8000d72 <__udivmoddi4+0x2a6>
 8000d42:	428b      	cmp	r3, r1
 8000d44:	d915      	bls.n	8000d72 <__udivmoddi4+0x2a6>
 8000d46:	3802      	subs	r0, #2
 8000d48:	4429      	add	r1, r5
 8000d4a:	1ac9      	subs	r1, r1, r3
 8000d4c:	ea40 4707 	orr.w	r7, r0, r7, lsl #16
 8000d50:	e73b      	b.n	8000bca <__udivmoddi4+0xfe>
 8000d52:	4637      	mov	r7, r6
 8000d54:	4630      	mov	r0, r6
 8000d56:	e709      	b.n	8000b6c <__udivmoddi4+0xa0>
 8000d58:	4607      	mov	r7, r0
 8000d5a:	e6e7      	b.n	8000b2c <__udivmoddi4+0x60>
 8000d5c:	4618      	mov	r0, r3
 8000d5e:	e6fb      	b.n	8000b58 <__udivmoddi4+0x8c>
 8000d60:	4541      	cmp	r1, r8
 8000d62:	d2ab      	bcs.n	8000cbc <__udivmoddi4+0x1f0>
 8000d64:	ebb8 0a02 	subs.w	sl, r8, r2
 8000d68:	eb69 020e 	sbc.w	r2, r9, lr
 8000d6c:	3801      	subs	r0, #1
 8000d6e:	4613      	mov	r3, r2
 8000d70:	e7a4      	b.n	8000cbc <__udivmoddi4+0x1f0>
 8000d72:	4660      	mov	r0, ip
 8000d74:	e7e9      	b.n	8000d4a <__udivmoddi4+0x27e>
 8000d76:	4618      	mov	r0, r3
 8000d78:	e795      	b.n	8000ca6 <__udivmoddi4+0x1da>
 8000d7a:	4667      	mov	r7, ip
 8000d7c:	e7d1      	b.n	8000d22 <__udivmoddi4+0x256>
 8000d7e:	4681      	mov	r9, r0
 8000d80:	e77c      	b.n	8000c7c <__udivmoddi4+0x1b0>
 8000d82:	3802      	subs	r0, #2
 8000d84:	442c      	add	r4, r5
 8000d86:	e747      	b.n	8000c18 <__udivmoddi4+0x14c>
 8000d88:	f1ac 0c02 	sub.w	ip, ip, #2
 8000d8c:	442b      	add	r3, r5
 8000d8e:	e72f      	b.n	8000bf0 <__udivmoddi4+0x124>
 8000d90:	4638      	mov	r0, r7
 8000d92:	e708      	b.n	8000ba6 <__udivmoddi4+0xda>
 8000d94:	4637      	mov	r7, r6
 8000d96:	e6e9      	b.n	8000b6c <__udivmoddi4+0xa0>

08000d98 <__aeabi_idiv0>:
 8000d98:	4770      	bx	lr
 8000d9a:	bf00      	nop

08000d9c <HAL_Init>:
 8000d9c:	b580      	push	{r7, lr}
 8000d9e:	af00      	add	r7, sp, #0
 8000da0:	2003      	movs	r0, #3
 8000da2:	f000 f94b 	bl	800103c <HAL_NVIC_SetPriorityGrouping>
 8000da6:	2000      	movs	r0, #0
 8000da8:	f000 f806 	bl	8000db8 <HAL_InitTick>
 8000dac:	f005 ff24 	bl	8006bf8 <HAL_MspInit>
 8000db0:	2300      	movs	r3, #0
 8000db2:	4618      	mov	r0, r3
 8000db4:	bd80      	pop	{r7, pc}
	...

08000db8 <HAL_InitTick>:
 8000db8:	b580      	push	{r7, lr}
 8000dba:	b082      	sub	sp, #8
 8000dbc:	af00      	add	r7, sp, #0
 8000dbe:	6078      	str	r0, [r7, #4]
 8000dc0:	4b12      	ldr	r3, [pc, #72]	; (8000e0c <HAL_InitTick+0x54>)
 8000dc2:	681a      	ldr	r2, [r3, #0]
 8000dc4:	4b12      	ldr	r3, [pc, #72]	; (8000e10 <HAL_InitTick+0x58>)
 8000dc6:	781b      	ldrb	r3, [r3, #0]
 8000dc8:	4619      	mov	r1, r3
 8000dca:	f44f 737a 	mov.w	r3, #1000	; 0x3e8
 8000dce:	fbb3 f3f1 	udiv	r3, r3, r1
 8000dd2:	fbb2 f3f3 	udiv	r3, r2, r3
 8000dd6:	4618      	mov	r0, r3
 8000dd8:	f000 f965 	bl	80010a6 <HAL_SYSTICK_Config>
 8000ddc:	4603      	mov	r3, r0
 8000dde:	2b00      	cmp	r3, #0
 8000de0:	d001      	beq.n	8000de6 <HAL_InitTick+0x2e>
 8000de2:	2301      	movs	r3, #1
 8000de4:	e00e      	b.n	8000e04 <HAL_InitTick+0x4c>
 8000de6:	687b      	ldr	r3, [r7, #4]
 8000de8:	2b0f      	cmp	r3, #15
 8000dea:	d80a      	bhi.n	8000e02 <HAL_InitTick+0x4a>
 8000dec:	2200      	movs	r2, #0
 8000dee:	6879      	ldr	r1, [r7, #4]
 8000df0:	f04f 30ff 	mov.w	r0, #4294967295
 8000df4:	f000 f92d 	bl	8001052 <HAL_NVIC_SetPriority>
 8000df8:	4a06      	ldr	r2, [pc, #24]	; (8000e14 <HAL_InitTick+0x5c>)
 8000dfa:	687b      	ldr	r3, [r7, #4]
 8000dfc:	6013      	str	r3, [r2, #0]
 8000dfe:	2300      	movs	r3, #0
 8000e00:	e000      	b.n	8000e04 <HAL_InitTick+0x4c>
 8000e02:	2301      	movs	r3, #1
 8000e04:	4618      	mov	r0, r3
 8000e06:	3708      	adds	r7, #8
 8000e08:	46bd      	mov	sp, r7
 8000e0a:	bd80      	pop	{r7, pc}
 8000e0c:	2000000c 	.word	0x2000000c
 8000e10:	20000004 	.word	0x20000004
 8000e14:	20000000 	.word	0x20000000

08000e18 <HAL_IncTick>:
 8000e18:	b480      	push	{r7}
 8000e1a:	af00      	add	r7, sp, #0
 8000e1c:	4b06      	ldr	r3, [pc, #24]	; (8000e38 <HAL_IncTick+0x20>)
 8000e1e:	781b      	ldrb	r3, [r3, #0]
 8000e20:	461a      	mov	r2, r3
 8000e22:	4b06      	ldr	r3, [pc, #24]	; (8000e3c <HAL_IncTick+0x24>)
 8000e24:	681b      	ldr	r3, [r3, #0]
 8000e26:	4413      	add	r3, r2
 8000e28:	4a04      	ldr	r2, [pc, #16]	; (8000e3c <HAL_IncTick+0x24>)
 8000e2a:	6013      	str	r3, [r2, #0]
 8000e2c:	bf00      	nop
 8000e2e:	46bd      	mov	sp, r7
 8000e30:	f85d 7b04 	ldr.w	r7, [sp], #4
 8000e34:	4770      	bx	lr
 8000e36:	bf00      	nop
 8000e38:	20000004 	.word	0x20000004
 8000e3c:	20000208 	.word	0x20000208

08000e40 <HAL_GetTick>:
 8000e40:	b480      	push	{r7}
 8000e42:	af00      	add	r7, sp, #0
 8000e44:	4b03      	ldr	r3, [pc, #12]	; (8000e54 <HAL_GetTick+0x14>)
 8000e46:	681b      	ldr	r3, [r3, #0]
 8000e48:	4618      	mov	r0, r3
 8000e4a:	46bd      	mov	sp, r7
 8000e4c:	f85d 7b04 	ldr.w	r7, [sp], #4
 8000e50:	4770      	bx	lr
 8000e52:	bf00      	nop
 8000e54:	20000208 	.word	0x20000208

08000e58 <HAL_Delay>:
 8000e58:	b580      	push	{r7, lr}
 8000e5a:	b084      	sub	sp, #16
 8000e5c:	af00      	add	r7, sp, #0
 8000e5e:	6078      	str	r0, [r7, #4]
 8000e60:	f7ff ffee 	bl	8000e40 <HAL_GetTick>
 8000e64:	60b8      	str	r0, [r7, #8]
 8000e66:	687b      	ldr	r3, [r7, #4]
 8000e68:	60fb      	str	r3, [r7, #12]
 8000e6a:	68fb      	ldr	r3, [r7, #12]
 8000e6c:	f1b3 3fff 	cmp.w	r3, #4294967295
 8000e70:	d005      	beq.n	8000e7e <HAL_Delay+0x26>
 8000e72:	4b09      	ldr	r3, [pc, #36]	; (8000e98 <HAL_Delay+0x40>)
 8000e74:	781b      	ldrb	r3, [r3, #0]
 8000e76:	461a      	mov	r2, r3
 8000e78:	68fb      	ldr	r3, [r7, #12]
 8000e7a:	4413      	add	r3, r2
 8000e7c:	60fb      	str	r3, [r7, #12]
 8000e7e:	bf00      	nop
 8000e80:	f7ff ffde 	bl	8000e40 <HAL_GetTick>
 8000e84:	4602      	mov	r2, r0
 8000e86:	68bb      	ldr	r3, [r7, #8]
 8000e88:	1ad3      	subs	r3, r2, r3
 8000e8a:	68fa      	ldr	r2, [r7, #12]
 8000e8c:	429a      	cmp	r2, r3
 8000e8e:	d8f7      	bhi.n	8000e80 <HAL_Delay+0x28>
 8000e90:	bf00      	nop
 8000e92:	3710      	adds	r7, #16
 8000e94:	46bd      	mov	sp, r7
 8000e96:	bd80      	pop	{r7, pc}
 8000e98:	20000004 	.word	0x20000004

08000e9c <__NVIC_SetPriorityGrouping>:
 8000e9c:	b480      	push	{r7}
 8000e9e:	b085      	sub	sp, #20
 8000ea0:	af00      	add	r7, sp, #0
 8000ea2:	6078      	str	r0, [r7, #4]
 8000ea4:	687b      	ldr	r3, [r7, #4]
 8000ea6:	f003 0307 	and.w	r3, r3, #7
 8000eaa:	60fb      	str	r3, [r7, #12]
 8000eac:	4b0b      	ldr	r3, [pc, #44]	; (8000edc <__NVIC_SetPriorityGrouping+0x40>)
 8000eae:	68db      	ldr	r3, [r3, #12]
 8000eb0:	60bb      	str	r3, [r7, #8]
 8000eb2:	68ba      	ldr	r2, [r7, #8]
 8000eb4:	f64f 03ff 	movw	r3, #63743	; 0xf8ff
 8000eb8:	4013      	ands	r3, r2
 8000eba:	60bb      	str	r3, [r7, #8]
 8000ebc:	68fb      	ldr	r3, [r7, #12]
 8000ebe:	021a      	lsls	r2, r3, #8
 8000ec0:	68bb      	ldr	r3, [r7, #8]
 8000ec2:	431a      	orrs	r2, r3
 8000ec4:	4b06      	ldr	r3, [pc, #24]	; (8000ee0 <__NVIC_SetPriorityGrouping+0x44>)
 8000ec6:	4313      	orrs	r3, r2
 8000ec8:	60bb      	str	r3, [r7, #8]
 8000eca:	4a04      	ldr	r2, [pc, #16]	; (8000edc <__NVIC_SetPriorityGrouping+0x40>)
 8000ecc:	68bb      	ldr	r3, [r7, #8]
 8000ece:	60d3      	str	r3, [r2, #12]
 8000ed0:	bf00      	nop
 8000ed2:	3714      	adds	r7, #20
 8000ed4:	46bd      	mov	sp, r7
 8000ed6:	f85d 7b04 	ldr.w	r7, [sp], #4
 8000eda:	4770      	bx	lr
 8000edc:	e000ed00 	.word	0xe000ed00
 8000ee0:	05fa0000 	.word	0x05fa0000

08000ee4 <__NVIC_GetPriorityGrouping>:
 8000ee4:	b480      	push	{r7}
 8000ee6:	af00      	add	r7, sp, #0
 8000ee8:	4b04      	ldr	r3, [pc, #16]	; (8000efc <__NVIC_GetPriorityGrouping+0x18>)
 8000eea:	68db      	ldr	r3, [r3, #12]
 8000eec:	0a1b      	lsrs	r3, r3, #8
 8000eee:	f003 0307 	and.w	r3, r3, #7
 8000ef2:	4618      	mov	r0, r3
 8000ef4:	46bd      	mov	sp, r7
 8000ef6:	f85d 7b04 	ldr.w	r7, [sp], #4
 8000efa:	4770      	bx	lr
 8000efc:	e000ed00 	.word	0xe000ed00

08000f00 <__NVIC_EnableIRQ>:
 8000f00:	b480      	push	{r7}
 8000f02:	b083      	sub	sp, #12
 8000f04:	af00      	add	r7, sp, #0
 8000f06:	4603      	mov	r3, r0
 8000f08:	71fb      	strb	r3, [r7, #7]
 8000f0a:	f997 3007 	ldrsb.w	r3, [r7, #7]
 8000f0e:	2b00      	cmp	r3, #0
 8000f10:	db0b      	blt.n	8000f2a <__NVIC_EnableIRQ+0x2a>
 8000f12:	79fb      	ldrb	r3, [r7, #7]
 8000f14:	f003 021f 	and.w	r2, r3, #31
 8000f18:	4907      	ldr	r1, [pc, #28]	; (8000f38 <__NVIC_EnableIRQ+0x38>)
 8000f1a:	f997 3007 	ldrsb.w	r3, [r7, #7]
 8000f1e:	095b      	lsrs	r3, r3, #5
 8000f20:	2001      	movs	r0, #1
 8000f22:	fa00 f202 	lsl.w	r2, r0, r2
 8000f26:	f841 2023 	str.w	r2, [r1, r3, lsl #2]
 8000f2a:	bf00      	nop
 8000f2c:	370c      	adds	r7, #12
 8000f2e:	46bd      	mov	sp, r7
 8000f30:	f85d 7b04 	ldr.w	r7, [sp], #4
 8000f34:	4770      	bx	lr
 8000f36:	bf00      	nop
 8000f38:	e000e100 	.word	0xe000e100

08000f3c <__NVIC_SetPriority>:
 8000f3c:	b480      	push	{r7}
 8000f3e:	b083      	sub	sp, #12
 8000f40:	af00      	add	r7, sp, #0
 8000f42:	4603      	mov	r3, r0
 8000f44:	6039      	str	r1, [r7, #0]
 8000f46:	71fb      	strb	r3, [r7, #7]
 8000f48:	f997 3007 	ldrsb.w	r3, [r7, #7]
 8000f4c:	2b00      	cmp	r3, #0
 8000f4e:	db0a      	blt.n	8000f66 <__NVIC_SetPriority+0x2a>
 8000f50:	683b      	ldr	r3, [r7, #0]
 8000f52:	b2da      	uxtb	r2, r3
 8000f54:	490c      	ldr	r1, [pc, #48]	; (8000f88 <__NVIC_SetPriority+0x4c>)
 8000f56:	f997 3007 	ldrsb.w	r3, [r7, #7]
 8000f5a:	0112      	lsls	r2, r2, #4
 8000f5c:	b2d2      	uxtb	r2, r2
 8000f5e:	440b      	add	r3, r1
 8000f60:	f883 2300 	strb.w	r2, [r3, #768]	; 0x300
 8000f64:	e00a      	b.n	8000f7c <__NVIC_SetPriority+0x40>
 8000f66:	683b      	ldr	r3, [r7, #0]
 8000f68:	b2da      	uxtb	r2, r3
 8000f6a:	4908      	ldr	r1, [pc, #32]	; (8000f8c <__NVIC_SetPriority+0x50>)
 8000f6c:	79fb      	ldrb	r3, [r7, #7]
 8000f6e:	f003 030f 	and.w	r3, r3, #15
 8000f72:	3b04      	subs	r3, #4
 8000f74:	0112      	lsls	r2, r2, #4
 8000f76:	b2d2      	uxtb	r2, r2
 8000f78:	440b      	add	r3, r1
 8000f7a:	761a      	strb	r2, [r3, #24]
 8000f7c:	bf00      	nop
 8000f7e:	370c      	adds	r7, #12
 8000f80:	46bd      	mov	sp, r7
 8000f82:	f85d 7b04 	ldr.w	r7, [sp], #4
 8000f86:	4770      	bx	lr
 8000f88:	e000e100 	.word	0xe000e100
 8000f8c:	e000ed00 	.word	0xe000ed00

08000f90 <NVIC_EncodePriority>:
 8000f90:	b480      	push	{r7}
 8000f92:	b089      	sub	sp, #36	; 0x24
 8000f94:	af00      	add	r7, sp, #0
 8000f96:	60f8      	str	r0, [r7, #12]
 8000f98:	60b9      	str	r1, [r7, #8]
 8000f9a:	607a      	str	r2, [r7, #4]
 8000f9c:	68fb      	ldr	r3, [r7, #12]
 8000f9e:	f003 0307 	and.w	r3, r3, #7
 8000fa2:	61fb      	str	r3, [r7, #28]
 8000fa4:	69fb      	ldr	r3, [r7, #28]
 8000fa6:	f1c3 0307 	rsb	r3, r3, #7
 8000faa:	2b04      	cmp	r3, #4
 8000fac:	bf28      	it	cs
 8000fae:	2304      	movcs	r3, #4
 8000fb0:	61bb      	str	r3, [r7, #24]
 8000fb2:	69fb      	ldr	r3, [r7, #28]
 8000fb4:	3304      	adds	r3, #4
 8000fb6:	2b06      	cmp	r3, #6
 8000fb8:	d902      	bls.n	8000fc0 <NVIC_EncodePriority+0x30>
 8000fba:	69fb      	ldr	r3, [r7, #28]
 8000fbc:	3b03      	subs	r3, #3
 8000fbe:	e000      	b.n	8000fc2 <NVIC_EncodePriority+0x32>
 8000fc0:	2300      	movs	r3, #0
 8000fc2:	617b      	str	r3, [r7, #20]
 8000fc4:	f04f 32ff 	mov.w	r2, #4294967295
 8000fc8:	69bb      	ldr	r3, [r7, #24]
 8000fca:	fa02 f303 	lsl.w	r3, r2, r3
 8000fce:	43da      	mvns	r2, r3
 8000fd0:	68bb      	ldr	r3, [r7, #8]
 8000fd2:	401a      	ands	r2, r3
 8000fd4:	697b      	ldr	r3, [r7, #20]
 8000fd6:	409a      	lsls	r2, r3
 8000fd8:	f04f 31ff 	mov.w	r1, #4294967295
 8000fdc:	697b      	ldr	r3, [r7, #20]
 8000fde:	fa01 f303 	lsl.w	r3, r1, r3
 8000fe2:	43d9      	mvns	r1, r3
 8000fe4:	687b      	ldr	r3, [r7, #4]
 8000fe6:	400b      	ands	r3, r1
 8000fe8:	4313      	orrs	r3, r2
 8000fea:	4618      	mov	r0, r3
 8000fec:	3724      	adds	r7, #36	; 0x24
 8000fee:	46bd      	mov	sp, r7
 8000ff0:	f85d 7b04 	ldr.w	r7, [sp], #4
 8000ff4:	4770      	bx	lr
	...

08000ff8 <SysTick_Config>:
 8000ff8:	b580      	push	{r7, lr}
 8000ffa:	b082      	sub	sp, #8
 8000ffc:	af00      	add	r7, sp, #0
 8000ffe:	6078      	str	r0, [r7, #4]
 8001000:	687b      	ldr	r3, [r7, #4]
 8001002:	3b01      	subs	r3, #1
 8001004:	f1b3 7f80 	cmp.w	r3, #16777216	; 0x1000000
 8001008:	d301      	bcc.n	800100e <SysTick_Config+0x16>
 800100a:	2301      	movs	r3, #1
 800100c:	e00f      	b.n	800102e <SysTick_Config+0x36>
 800100e:	4a0a      	ldr	r2, [pc, #40]	; (8001038 <SysTick_Config+0x40>)
 8001010:	687b      	ldr	r3, [r7, #4]
 8001012:	3b01      	subs	r3, #1
 8001014:	6053      	str	r3, [r2, #4]
 8001016:	210f      	movs	r1, #15
 8001018:	f04f 30ff 	mov.w	r0, #4294967295
 800101c:	f7ff ff8e 	bl	8000f3c <__NVIC_SetPriority>
 8001020:	4b05      	ldr	r3, [pc, #20]	; (8001038 <SysTick_Config+0x40>)
 8001022:	2200      	movs	r2, #0
 8001024:	609a      	str	r2, [r3, #8]
 8001026:	4b04      	ldr	r3, [pc, #16]	; (8001038 <SysTick_Config+0x40>)
 8001028:	2207      	movs	r2, #7
 800102a:	601a      	str	r2, [r3, #0]
 800102c:	2300      	movs	r3, #0
 800102e:	4618      	mov	r0, r3
 8001030:	3708      	adds	r7, #8
 8001032:	46bd      	mov	sp, r7
 8001034:	bd80      	pop	{r7, pc}
 8001036:	bf00      	nop
 8001038:	e000e010 	.word	0xe000e010

0800103c <HAL_NVIC_SetPriorityGrouping>:
 800103c:	b580      	push	{r7, lr}
 800103e:	b082      	sub	sp, #8
 8001040:	af00      	add	r7, sp, #0
 8001042:	6078      	str	r0, [r7, #4]
 8001044:	6878      	ldr	r0, [r7, #4]
 8001046:	f7ff ff29 	bl	8000e9c <__NVIC_SetPriorityGrouping>
 800104a:	bf00      	nop
 800104c:	3708      	adds	r7, #8
 800104e:	46bd      	mov	sp, r7
 8001050:	bd80      	pop	{r7, pc}

08001052 <HAL_NVIC_SetPriority>:
 8001052:	b580      	push	{r7, lr}
 8001054:	b086      	sub	sp, #24
 8001056:	af00      	add	r7, sp, #0
 8001058:	4603      	mov	r3, r0
 800105a:	60b9      	str	r1, [r7, #8]
 800105c:	607a      	str	r2, [r7, #4]
 800105e:	73fb      	strb	r3, [r7, #15]
 8001060:	2300      	movs	r3, #0
 8001062:	617b      	str	r3, [r7, #20]
 8001064:	f7ff ff3e 	bl	8000ee4 <__NVIC_GetPriorityGrouping>
 8001068:	6178      	str	r0, [r7, #20]
 800106a:	687a      	ldr	r2, [r7, #4]
 800106c:	68b9      	ldr	r1, [r7, #8]
 800106e:	6978      	ldr	r0, [r7, #20]
 8001070:	f7ff ff8e 	bl	8000f90 <NVIC_EncodePriority>
 8001074:	4602      	mov	r2, r0
 8001076:	f997 300f 	ldrsb.w	r3, [r7, #15]
 800107a:	4611      	mov	r1, r2
 800107c:	4618      	mov	r0, r3
 800107e:	f7ff ff5d 	bl	8000f3c <__NVIC_SetPriority>
 8001082:	bf00      	nop
 8001084:	3718      	adds	r7, #24
 8001086:	46bd      	mov	sp, r7
 8001088:	bd80      	pop	{r7, pc}

0800108a <HAL_NVIC_EnableIRQ>:
 800108a:	b580      	push	{r7, lr}
 800108c:	b082      	sub	sp, #8
 800108e:	af00      	add	r7, sp, #0
 8001090:	4603      	mov	r3, r0
 8001092:	71fb      	strb	r3, [r7, #7]
 8001094:	f997 3007 	ldrsb.w	r3, [r7, #7]
 8001098:	4618      	mov	r0, r3
 800109a:	f7ff ff31 	bl	8000f00 <__NVIC_EnableIRQ>
 800109e:	bf00      	nop
 80010a0:	3708      	adds	r7, #8
 80010a2:	46bd      	mov	sp, r7
 80010a4:	bd80      	pop	{r7, pc}

080010a6 <HAL_SYSTICK_Config>:
 80010a6:	b580      	push	{r7, lr}
 80010a8:	b082      	sub	sp, #8
 80010aa:	af00      	add	r7, sp, #0
 80010ac:	6078      	str	r0, [r7, #4]
 80010ae:	6878      	ldr	r0, [r7, #4]
 80010b0:	f7ff ffa2 	bl	8000ff8 <SysTick_Config>
 80010b4:	4603      	mov	r3, r0
 80010b6:	4618      	mov	r0, r3
 80010b8:	3708      	adds	r7, #8
 80010ba:	46bd      	mov	sp, r7
 80010bc:	bd80      	pop	{r7, pc}

080010be <HAL_DMA_Abort_IT>:
 80010be:	b480      	push	{r7}
 80010c0:	b083      	sub	sp, #12
 80010c2:	af00      	add	r7, sp, #0
 80010c4:	6078      	str	r0, [r7, #4]
 80010c6:	687b      	ldr	r3, [r7, #4]
 80010c8:	f893 3035 	ldrb.w	r3, [r3, #53]	; 0x35
 80010cc:	b2db      	uxtb	r3, r3
 80010ce:	2b02      	cmp	r3, #2
 80010d0:	d004      	beq.n	80010dc <HAL_DMA_Abort_IT+0x1e>
 80010d2:	687b      	ldr	r3, [r7, #4]
 80010d4:	2280      	movs	r2, #128	; 0x80
 80010d6:	655a      	str	r2, [r3, #84]	; 0x54
 80010d8:	2301      	movs	r3, #1
 80010da:	e00c      	b.n	80010f6 <HAL_DMA_Abort_IT+0x38>
 80010dc:	687b      	ldr	r3, [r7, #4]
 80010de:	2205      	movs	r2, #5
 80010e0:	f883 2035 	strb.w	r2, [r3, #53]	; 0x35
 80010e4:	687b      	ldr	r3, [r7, #4]
 80010e6:	681b      	ldr	r3, [r3, #0]
 80010e8:	681a      	ldr	r2, [r3, #0]
 80010ea:	687b      	ldr	r3, [r7, #4]
 80010ec:	681b      	ldr	r3, [r3, #0]
 80010ee:	f022 0201 	bic.w	r2, r2, #1
 80010f2:	601a      	str	r2, [r3, #0]
 80010f4:	2300      	movs	r3, #0
 80010f6:	4618      	mov	r0, r3
 80010f8:	370c      	adds	r7, #12
 80010fa:	46bd      	mov	sp, r7
 80010fc:	f85d 7b04 	ldr.w	r7, [sp], #4
 8001100:	4770      	bx	lr
	...

08001104 <HAL_GPIO_Init>:
 8001104:	b480      	push	{r7}
 8001106:	b089      	sub	sp, #36	; 0x24
 8001108:	af00      	add	r7, sp, #0
 800110a:	6078      	str	r0, [r7, #4]
 800110c:	6039      	str	r1, [r7, #0]
 800110e:	2300      	movs	r3, #0
 8001110:	61fb      	str	r3, [r7, #28]
 8001112:	2300      	movs	r3, #0
 8001114:	617b      	str	r3, [r7, #20]
 8001116:	2300      	movs	r3, #0
 8001118:	613b      	str	r3, [r7, #16]
 800111a:	2300      	movs	r3, #0
 800111c:	61bb      	str	r3, [r7, #24]
 800111e:	2300      	movs	r3, #0
 8001120:	61fb      	str	r3, [r7, #28]
 8001122:	e175      	b.n	8001410 <HAL_GPIO_Init+0x30c>
 8001124:	2201      	movs	r2, #1
 8001126:	69fb      	ldr	r3, [r7, #28]
 8001128:	fa02 f303 	lsl.w	r3, r2, r3
 800112c:	617b      	str	r3, [r7, #20]
 800112e:	683b      	ldr	r3, [r7, #0]
 8001130:	681b      	ldr	r3, [r3, #0]
 8001132:	697a      	ldr	r2, [r7, #20]
 8001134:	4013      	ands	r3, r2
 8001136:	613b      	str	r3, [r7, #16]
 8001138:	693a      	ldr	r2, [r7, #16]
 800113a:	697b      	ldr	r3, [r7, #20]
 800113c:	429a      	cmp	r2, r3
 800113e:	f040 8164 	bne.w	800140a <HAL_GPIO_Init+0x306>
 8001142:	683b      	ldr	r3, [r7, #0]
 8001144:	685b      	ldr	r3, [r3, #4]
 8001146:	2b02      	cmp	r3, #2
 8001148:	d003      	beq.n	8001152 <HAL_GPIO_Init+0x4e>
 800114a:	683b      	ldr	r3, [r7, #0]
 800114c:	685b      	ldr	r3, [r3, #4]
 800114e:	2b12      	cmp	r3, #18
 8001150:	d123      	bne.n	800119a <HAL_GPIO_Init+0x96>
 8001152:	69fb      	ldr	r3, [r7, #28]
 8001154:	08da      	lsrs	r2, r3, #3
 8001156:	687b      	ldr	r3, [r7, #4]
 8001158:	3208      	adds	r2, #8
 800115a:	f853 3022 	ldr.w	r3, [r3, r2, lsl #2]
 800115e:	61bb      	str	r3, [r7, #24]
 8001160:	69fb      	ldr	r3, [r7, #28]
 8001162:	f003 0307 	and.w	r3, r3, #7
 8001166:	009b      	lsls	r3, r3, #2
 8001168:	220f      	movs	r2, #15
 800116a:	fa02 f303 	lsl.w	r3, r2, r3
 800116e:	43db      	mvns	r3, r3
 8001170:	69ba      	ldr	r2, [r7, #24]
 8001172:	4013      	ands	r3, r2
 8001174:	61bb      	str	r3, [r7, #24]
 8001176:	683b      	ldr	r3, [r7, #0]
 8001178:	691a      	ldr	r2, [r3, #16]
 800117a:	69fb      	ldr	r3, [r7, #28]
 800117c:	f003 0307 	and.w	r3, r3, #7
 8001180:	009b      	lsls	r3, r3, #2
 8001182:	fa02 f303 	lsl.w	r3, r2, r3
 8001186:	69ba      	ldr	r2, [r7, #24]
 8001188:	4313      	orrs	r3, r2
 800118a:	61bb      	str	r3, [r7, #24]
 800118c:	69fb      	ldr	r3, [r7, #28]
 800118e:	08da      	lsrs	r2, r3, #3
 8001190:	687b      	ldr	r3, [r7, #4]
 8001192:	3208      	adds	r2, #8
 8001194:	69b9      	ldr	r1, [r7, #24]
 8001196:	f843 1022 	str.w	r1, [r3, r2, lsl #2]
 800119a:	687b      	ldr	r3, [r7, #4]
 800119c:	681b      	ldr	r3, [r3, #0]
 800119e:	61bb      	str	r3, [r7, #24]
 80011a0:	69fb      	ldr	r3, [r7, #28]
 80011a2:	005b      	lsls	r3, r3, #1
 80011a4:	2203      	movs	r2, #3
 80011a6:	fa02 f303 	lsl.w	r3, r2, r3
 80011aa:	43db      	mvns	r3, r3
 80011ac:	69ba      	ldr	r2, [r7, #24]
 80011ae:	4013      	ands	r3, r2
 80011b0:	61bb      	str	r3, [r7, #24]
 80011b2:	683b      	ldr	r3, [r7, #0]
 80011b4:	685b      	ldr	r3, [r3, #4]
 80011b6:	f003 0203 	and.w	r2, r3, #3
 80011ba:	69fb      	ldr	r3, [r7, #28]
 80011bc:	005b      	lsls	r3, r3, #1
 80011be:	fa02 f303 	lsl.w	r3, r2, r3
 80011c2:	69ba      	ldr	r2, [r7, #24]
 80011c4:	4313      	orrs	r3, r2
 80011c6:	61bb      	str	r3, [r7, #24]
 80011c8:	687b      	ldr	r3, [r7, #4]
 80011ca:	69ba      	ldr	r2, [r7, #24]
 80011cc:	601a      	str	r2, [r3, #0]
 80011ce:	683b      	ldr	r3, [r7, #0]
 80011d0:	685b      	ldr	r3, [r3, #4]
 80011d2:	2b01      	cmp	r3, #1
 80011d4:	d00b      	beq.n	80011ee <HAL_GPIO_Init+0xea>
 80011d6:	683b      	ldr	r3, [r7, #0]
 80011d8:	685b      	ldr	r3, [r3, #4]
 80011da:	2b02      	cmp	r3, #2
 80011dc:	d007      	beq.n	80011ee <HAL_GPIO_Init+0xea>
 80011de:	683b      	ldr	r3, [r7, #0]
 80011e0:	685b      	ldr	r3, [r3, #4]
 80011e2:	2b11      	cmp	r3, #17
 80011e4:	d003      	beq.n	80011ee <HAL_GPIO_Init+0xea>
 80011e6:	683b      	ldr	r3, [r7, #0]
 80011e8:	685b      	ldr	r3, [r3, #4]
 80011ea:	2b12      	cmp	r3, #18
 80011ec:	d130      	bne.n	8001250 <HAL_GPIO_Init+0x14c>
 80011ee:	687b      	ldr	r3, [r7, #4]
 80011f0:	689b      	ldr	r3, [r3, #8]
 80011f2:	61bb      	str	r3, [r7, #24]
 80011f4:	69fb      	ldr	r3, [r7, #28]
 80011f6:	005b      	lsls	r3, r3, #1
 80011f8:	2203      	movs	r2, #3
 80011fa:	fa02 f303 	lsl.w	r3, r2, r3
 80011fe:	43db      	mvns	r3, r3
 8001200:	69ba      	ldr	r2, [r7, #24]
 8001202:	4013      	ands	r3, r2
 8001204:	61bb      	str	r3, [r7, #24]
 8001206:	683b      	ldr	r3, [r7, #0]
 8001208:	68da      	ldr	r2, [r3, #12]
 800120a:	69fb      	ldr	r3, [r7, #28]
 800120c:	005b      	lsls	r3, r3, #1
 800120e:	fa02 f303 	lsl.w	r3, r2, r3
 8001212:	69ba      	ldr	r2, [r7, #24]
 8001214:	4313      	orrs	r3, r2
 8001216:	61bb      	str	r3, [r7, #24]
 8001218:	687b      	ldr	r3, [r7, #4]
 800121a:	69ba      	ldr	r2, [r7, #24]
 800121c:	609a      	str	r2, [r3, #8]
 800121e:	687b      	ldr	r3, [r7, #4]
 8001220:	685b      	ldr	r3, [r3, #4]
 8001222:	61bb      	str	r3, [r7, #24]
 8001224:	2201      	movs	r2, #1
 8001226:	69fb      	ldr	r3, [r7, #28]
 8001228:	fa02 f303 	lsl.w	r3, r2, r3
 800122c:	43db      	mvns	r3, r3
 800122e:	69ba      	ldr	r2, [r7, #24]
 8001230:	4013      	ands	r3, r2
 8001232:	61bb      	str	r3, [r7, #24]
 8001234:	683b      	ldr	r3, [r7, #0]
 8001236:	685b      	ldr	r3, [r3, #4]
 8001238:	091b      	lsrs	r3, r3, #4
 800123a:	f003 0201 	and.w	r2, r3, #1
 800123e:	69fb      	ldr	r3, [r7, #28]
 8001240:	fa02 f303 	lsl.w	r3, r2, r3
 8001244:	69ba      	ldr	r2, [r7, #24]
 8001246:	4313      	orrs	r3, r2
 8001248:	61bb      	str	r3, [r7, #24]
 800124a:	687b      	ldr	r3, [r7, #4]
 800124c:	69ba      	ldr	r2, [r7, #24]
 800124e:	605a      	str	r2, [r3, #4]
 8001250:	687b      	ldr	r3, [r7, #4]
 8001252:	68db      	ldr	r3, [r3, #12]
 8001254:	61bb      	str	r3, [r7, #24]
 8001256:	69fb      	ldr	r3, [r7, #28]
 8001258:	005b      	lsls	r3, r3, #1
 800125a:	2203      	movs	r2, #3
 800125c:	fa02 f303 	lsl.w	r3, r2, r3
 8001260:	43db      	mvns	r3, r3
 8001262:	69ba      	ldr	r2, [r7, #24]
 8001264:	4013      	ands	r3, r2
 8001266:	61bb      	str	r3, [r7, #24]
 8001268:	683b      	ldr	r3, [r7, #0]
 800126a:	689a      	ldr	r2, [r3, #8]
 800126c:	69fb      	ldr	r3, [r7, #28]
 800126e:	005b      	lsls	r3, r3, #1
 8001270:	fa02 f303 	lsl.w	r3, r2, r3
 8001274:	69ba      	ldr	r2, [r7, #24]
 8001276:	4313      	orrs	r3, r2
 8001278:	61bb      	str	r3, [r7, #24]
 800127a:	687b      	ldr	r3, [r7, #4]
 800127c:	69ba      	ldr	r2, [r7, #24]
 800127e:	60da      	str	r2, [r3, #12]
 8001280:	683b      	ldr	r3, [r7, #0]
 8001282:	685b      	ldr	r3, [r3, #4]
 8001284:	f003 5380 	and.w	r3, r3, #268435456	; 0x10000000
 8001288:	2b00      	cmp	r3, #0
 800128a:	f000 80be 	beq.w	800140a <HAL_GPIO_Init+0x306>
 800128e:	4b65      	ldr	r3, [pc, #404]	; (8001424 <HAL_GPIO_Init+0x320>)
 8001290:	6c5b      	ldr	r3, [r3, #68]	; 0x44
 8001292:	4a64      	ldr	r2, [pc, #400]	; (8001424 <HAL_GPIO_Init+0x320>)
 8001294:	f443 4380 	orr.w	r3, r3, #16384	; 0x4000
 8001298:	6453      	str	r3, [r2, #68]	; 0x44
 800129a:	4b62      	ldr	r3, [pc, #392]	; (8001424 <HAL_GPIO_Init+0x320>)
 800129c:	6c5b      	ldr	r3, [r3, #68]	; 0x44
 800129e:	f403 4380 	and.w	r3, r3, #16384	; 0x4000
 80012a2:	60fb      	str	r3, [r7, #12]
 80012a4:	68fb      	ldr	r3, [r7, #12]
 80012a6:	4a60      	ldr	r2, [pc, #384]	; (8001428 <HAL_GPIO_Init+0x324>)
 80012a8:	69fb      	ldr	r3, [r7, #28]
 80012aa:	089b      	lsrs	r3, r3, #2
 80012ac:	3302      	adds	r3, #2
 80012ae:	f852 3023 	ldr.w	r3, [r2, r3, lsl #2]
 80012b2:	61bb      	str	r3, [r7, #24]
 80012b4:	69fb      	ldr	r3, [r7, #28]
 80012b6:	f003 0303 	and.w	r3, r3, #3
 80012ba:	009b      	lsls	r3, r3, #2
 80012bc:	220f      	movs	r2, #15
 80012be:	fa02 f303 	lsl.w	r3, r2, r3
 80012c2:	43db      	mvns	r3, r3
 80012c4:	69ba      	ldr	r2, [r7, #24]
 80012c6:	4013      	ands	r3, r2
 80012c8:	61bb      	str	r3, [r7, #24]
 80012ca:	687b      	ldr	r3, [r7, #4]
 80012cc:	4a57      	ldr	r2, [pc, #348]	; (800142c <HAL_GPIO_Init+0x328>)
 80012ce:	4293      	cmp	r3, r2
 80012d0:	d037      	beq.n	8001342 <HAL_GPIO_Init+0x23e>
 80012d2:	687b      	ldr	r3, [r7, #4]
 80012d4:	4a56      	ldr	r2, [pc, #344]	; (8001430 <HAL_GPIO_Init+0x32c>)
 80012d6:	4293      	cmp	r3, r2
 80012d8:	d031      	beq.n	800133e <HAL_GPIO_Init+0x23a>
 80012da:	687b      	ldr	r3, [r7, #4]
 80012dc:	4a55      	ldr	r2, [pc, #340]	; (8001434 <HAL_GPIO_Init+0x330>)
 80012de:	4293      	cmp	r3, r2
 80012e0:	d02b      	beq.n	800133a <HAL_GPIO_Init+0x236>
 80012e2:	687b      	ldr	r3, [r7, #4]
 80012e4:	4a54      	ldr	r2, [pc, #336]	; (8001438 <HAL_GPIO_Init+0x334>)
 80012e6:	4293      	cmp	r3, r2
 80012e8:	d025      	beq.n	8001336 <HAL_GPIO_Init+0x232>
 80012ea:	687b      	ldr	r3, [r7, #4]
 80012ec:	4a53      	ldr	r2, [pc, #332]	; (800143c <HAL_GPIO_Init+0x338>)
 80012ee:	4293      	cmp	r3, r2
 80012f0:	d01f      	beq.n	8001332 <HAL_GPIO_Init+0x22e>
 80012f2:	687b      	ldr	r3, [r7, #4]
 80012f4:	4a52      	ldr	r2, [pc, #328]	; (8001440 <HAL_GPIO_Init+0x33c>)
 80012f6:	4293      	cmp	r3, r2
 80012f8:	d019      	beq.n	800132e <HAL_GPIO_Init+0x22a>
 80012fa:	687b      	ldr	r3, [r7, #4]
 80012fc:	4a51      	ldr	r2, [pc, #324]	; (8001444 <HAL_GPIO_Init+0x340>)
 80012fe:	4293      	cmp	r3, r2
 8001300:	d013      	beq.n	800132a <HAL_GPIO_Init+0x226>
 8001302:	687b      	ldr	r3, [r7, #4]
 8001304:	4a50      	ldr	r2, [pc, #320]	; (8001448 <HAL_GPIO_Init+0x344>)
 8001306:	4293      	cmp	r3, r2
 8001308:	d00d      	beq.n	8001326 <HAL_GPIO_Init+0x222>
 800130a:	687b      	ldr	r3, [r7, #4]
 800130c:	4a4f      	ldr	r2, [pc, #316]	; (800144c <HAL_GPIO_Init+0x348>)
 800130e:	4293      	cmp	r3, r2
 8001310:	d007      	beq.n	8001322 <HAL_GPIO_Init+0x21e>
 8001312:	687b      	ldr	r3, [r7, #4]
 8001314:	4a4e      	ldr	r2, [pc, #312]	; (8001450 <HAL_GPIO_Init+0x34c>)
 8001316:	4293      	cmp	r3, r2
 8001318:	d101      	bne.n	800131e <HAL_GPIO_Init+0x21a>
 800131a:	2309      	movs	r3, #9
 800131c:	e012      	b.n	8001344 <HAL_GPIO_Init+0x240>
 800131e:	230a      	movs	r3, #10
 8001320:	e010      	b.n	8001344 <HAL_GPIO_Init+0x240>
 8001322:	2308      	movs	r3, #8
 8001324:	e00e      	b.n	8001344 <HAL_GPIO_Init+0x240>
 8001326:	2307      	movs	r3, #7
 8001328:	e00c      	b.n	8001344 <HAL_GPIO_Init+0x240>
 800132a:	2306      	movs	r3, #6
 800132c:	e00a      	b.n	8001344 <HAL_GPIO_Init+0x240>
 800132e:	2305      	movs	r3, #5
 8001330:	e008      	b.n	8001344 <HAL_GPIO_Init+0x240>
 8001332:	2304      	movs	r3, #4
 8001334:	e006      	b.n	8001344 <HAL_GPIO_Init+0x240>
 8001336:	2303      	movs	r3, #3
 8001338:	e004      	b.n	8001344 <HAL_GPIO_Init+0x240>
 800133a:	2302      	movs	r3, #2
 800133c:	e002      	b.n	8001344 <HAL_GPIO_Init+0x240>
 800133e:	2301      	movs	r3, #1
 8001340:	e000      	b.n	8001344 <HAL_GPIO_Init+0x240>
 8001342:	2300      	movs	r3, #0
 8001344:	69fa      	ldr	r2, [r7, #28]
 8001346:	f002 0203 	and.w	r2, r2, #3
 800134a:	0092      	lsls	r2, r2, #2
 800134c:	4093      	lsls	r3, r2
 800134e:	69ba      	ldr	r2, [r7, #24]
 8001350:	4313      	orrs	r3, r2
 8001352:	61bb      	str	r3, [r7, #24]
 8001354:	4934      	ldr	r1, [pc, #208]	; (8001428 <HAL_GPIO_Init+0x324>)
 8001356:	69fb      	ldr	r3, [r7, #28]
 8001358:	089b      	lsrs	r3, r3, #2
 800135a:	3302      	adds	r3, #2
 800135c:	69ba      	ldr	r2, [r7, #24]
 800135e:	f841 2023 	str.w	r2, [r1, r3, lsl #2]
 8001362:	4b3c      	ldr	r3, [pc, #240]	; (8001454 <HAL_GPIO_Init+0x350>)
 8001364:	681b      	ldr	r3, [r3, #0]
 8001366:	61bb      	str	r3, [r7, #24]
 8001368:	693b      	ldr	r3, [r7, #16]
 800136a:	43db      	mvns	r3, r3
 800136c:	69ba      	ldr	r2, [r7, #24]
 800136e:	4013      	ands	r3, r2
 8001370:	61bb      	str	r3, [r7, #24]
 8001372:	683b      	ldr	r3, [r7, #0]
 8001374:	685b      	ldr	r3, [r3, #4]
 8001376:	f403 3380 	and.w	r3, r3, #65536	; 0x10000
 800137a:	2b00      	cmp	r3, #0
 800137c:	d003      	beq.n	8001386 <HAL_GPIO_Init+0x282>
 800137e:	69ba      	ldr	r2, [r7, #24]
 8001380:	693b      	ldr	r3, [r7, #16]
 8001382:	4313      	orrs	r3, r2
 8001384:	61bb      	str	r3, [r7, #24]
 8001386:	4a33      	ldr	r2, [pc, #204]	; (8001454 <HAL_GPIO_Init+0x350>)
 8001388:	69bb      	ldr	r3, [r7, #24]
 800138a:	6013      	str	r3, [r2, #0]
 800138c:	4b31      	ldr	r3, [pc, #196]	; (8001454 <HAL_GPIO_Init+0x350>)
 800138e:	685b      	ldr	r3, [r3, #4]
 8001390:	61bb      	str	r3, [r7, #24]
 8001392:	693b      	ldr	r3, [r7, #16]
 8001394:	43db      	mvns	r3, r3
 8001396:	69ba      	ldr	r2, [r7, #24]
 8001398:	4013      	ands	r3, r2
 800139a:	61bb      	str	r3, [r7, #24]
 800139c:	683b      	ldr	r3, [r7, #0]
 800139e:	685b      	ldr	r3, [r3, #4]
 80013a0:	f403 3300 	and.w	r3, r3, #131072	; 0x20000
 80013a4:	2b00      	cmp	r3, #0
 80013a6:	d003      	beq.n	80013b0 <HAL_GPIO_Init+0x2ac>
 80013a8:	69ba      	ldr	r2, [r7, #24]
 80013aa:	693b      	ldr	r3, [r7, #16]
 80013ac:	4313      	orrs	r3, r2
 80013ae:	61bb      	str	r3, [r7, #24]
 80013b0:	4a28      	ldr	r2, [pc, #160]	; (8001454 <HAL_GPIO_Init+0x350>)
 80013b2:	69bb      	ldr	r3, [r7, #24]
 80013b4:	6053      	str	r3, [r2, #4]
 80013b6:	4b27      	ldr	r3, [pc, #156]	; (8001454 <HAL_GPIO_Init+0x350>)
 80013b8:	689b      	ldr	r3, [r3, #8]
 80013ba:	61bb      	str	r3, [r7, #24]
 80013bc:	693b      	ldr	r3, [r7, #16]
 80013be:	43db      	mvns	r3, r3
 80013c0:	69ba      	ldr	r2, [r7, #24]
 80013c2:	4013      	ands	r3, r2
 80013c4:	61bb      	str	r3, [r7, #24]
 80013c6:	683b      	ldr	r3, [r7, #0]
 80013c8:	685b      	ldr	r3, [r3, #4]
 80013ca:	f403 1380 	and.w	r3, r3, #1048576	; 0x100000
 80013ce:	2b00      	cmp	r3, #0
 80013d0:	d003      	beq.n	80013da <HAL_GPIO_Init+0x2d6>
 80013d2:	69ba      	ldr	r2, [r7, #24]
 80013d4:	693b      	ldr	r3, [r7, #16]
 80013d6:	4313      	orrs	r3, r2
 80013d8:	61bb      	str	r3, [r7, #24]
 80013da:	4a1e      	ldr	r2, [pc, #120]	; (8001454 <HAL_GPIO_Init+0x350>)
 80013dc:	69bb      	ldr	r3, [r7, #24]
 80013de:	6093      	str	r3, [r2, #8]
 80013e0:	4b1c      	ldr	r3, [pc, #112]	; (8001454 <HAL_GPIO_Init+0x350>)
 80013e2:	68db      	ldr	r3, [r3, #12]
 80013e4:	61bb      	str	r3, [r7, #24]
 80013e6:	693b      	ldr	r3, [r7, #16]
 80013e8:	43db      	mvns	r3, r3
 80013ea:	69ba      	ldr	r2, [r7, #24]
 80013ec:	4013      	ands	r3, r2
 80013ee:	61bb      	str	r3, [r7, #24]
 80013f0:	683b      	ldr	r3, [r7, #0]
 80013f2:	685b      	ldr	r3, [r3, #4]
 80013f4:	f403 1300 	and.w	r3, r3, #2097152	; 0x200000
 80013f8:	2b00      	cmp	r3, #0
 80013fa:	d003      	beq.n	8001404 <HAL_GPIO_Init+0x300>
 80013fc:	69ba      	ldr	r2, [r7, #24]
 80013fe:	693b      	ldr	r3, [r7, #16]
 8001400:	4313      	orrs	r3, r2
 8001402:	61bb      	str	r3, [r7, #24]
 8001404:	4a13      	ldr	r2, [pc, #76]	; (8001454 <HAL_GPIO_Init+0x350>)
 8001406:	69bb      	ldr	r3, [r7, #24]
 8001408:	60d3      	str	r3, [r2, #12]
 800140a:	69fb      	ldr	r3, [r7, #28]
 800140c:	3301      	adds	r3, #1
 800140e:	61fb      	str	r3, [r7, #28]
 8001410:	69fb      	ldr	r3, [r7, #28]
 8001412:	2b0f      	cmp	r3, #15
 8001414:	f67f ae86 	bls.w	8001124 <HAL_GPIO_Init+0x20>
 8001418:	bf00      	nop
 800141a:	3724      	adds	r7, #36	; 0x24
 800141c:	46bd      	mov	sp, r7
 800141e:	f85d 7b04 	ldr.w	r7, [sp], #4
 8001422:	4770      	bx	lr
 8001424:	40023800 	.word	0x40023800
 8001428:	40013800 	.word	0x40013800
 800142c:	40020000 	.word	0x40020000
 8001430:	40020400 	.word	0x40020400
 8001434:	40020800 	.word	0x40020800
 8001438:	40020c00 	.word	0x40020c00
 800143c:	40021000 	.word	0x40021000
 8001440:	40021400 	.word	0x40021400
 8001444:	40021800 	.word	0x40021800
 8001448:	40021c00 	.word	0x40021c00
 800144c:	40022000 	.word	0x40022000
 8001450:	40022400 	.word	0x40022400
 8001454:	40013c00 	.word	0x40013c00

08001458 <HAL_GPIO_WritePin>:
 8001458:	b480      	push	{r7}
 800145a:	b083      	sub	sp, #12
 800145c:	af00      	add	r7, sp, #0
 800145e:	6078      	str	r0, [r7, #4]
 8001460:	460b      	mov	r3, r1
 8001462:	807b      	strh	r3, [r7, #2]
 8001464:	4613      	mov	r3, r2
 8001466:	707b      	strb	r3, [r7, #1]
 8001468:	787b      	ldrb	r3, [r7, #1]
 800146a:	2b00      	cmp	r3, #0
 800146c:	d003      	beq.n	8001476 <HAL_GPIO_WritePin+0x1e>
 800146e:	887a      	ldrh	r2, [r7, #2]
 8001470:	687b      	ldr	r3, [r7, #4]
 8001472:	619a      	str	r2, [r3, #24]
 8001474:	e003      	b.n	800147e <HAL_GPIO_WritePin+0x26>
 8001476:	887b      	ldrh	r3, [r7, #2]
 8001478:	041a      	lsls	r2, r3, #16
 800147a:	687b      	ldr	r3, [r7, #4]
 800147c:	619a      	str	r2, [r3, #24]
 800147e:	bf00      	nop
 8001480:	370c      	adds	r7, #12
 8001482:	46bd      	mov	sp, r7
 8001484:	f85d 7b04 	ldr.w	r7, [sp], #4
 8001488:	4770      	bx	lr
	...

0800148c <HAL_I2C_Init>:
 800148c:	b580      	push	{r7, lr}
 800148e:	b082      	sub	sp, #8
 8001490:	af00      	add	r7, sp, #0
 8001492:	6078      	str	r0, [r7, #4]
 8001494:	687b      	ldr	r3, [r7, #4]
 8001496:	2b00      	cmp	r3, #0
 8001498:	d101      	bne.n	800149e <HAL_I2C_Init+0x12>
 800149a:	2301      	movs	r3, #1
 800149c:	e07f      	b.n	800159e <HAL_I2C_Init+0x112>
 800149e:	687b      	ldr	r3, [r7, #4]
 80014a0:	f893 3041 	ldrb.w	r3, [r3, #65]	; 0x41
 80014a4:	b2db      	uxtb	r3, r3
 80014a6:	2b00      	cmp	r3, #0
 80014a8:	d106      	bne.n	80014b8 <HAL_I2C_Init+0x2c>
 80014aa:	687b      	ldr	r3, [r7, #4]
 80014ac:	2200      	movs	r2, #0
 80014ae:	f883 2040 	strb.w	r2, [r3, #64]	; 0x40
 80014b2:	6878      	ldr	r0, [r7, #4]
 80014b4:	f004 fff6 	bl	80064a4 <HAL_I2C_MspInit>
 80014b8:	687b      	ldr	r3, [r7, #4]
 80014ba:	2224      	movs	r2, #36	; 0x24
 80014bc:	f883 2041 	strb.w	r2, [r3, #65]	; 0x41
 80014c0:	687b      	ldr	r3, [r7, #4]
 80014c2:	681b      	ldr	r3, [r3, #0]
 80014c4:	681a      	ldr	r2, [r3, #0]
 80014c6:	687b      	ldr	r3, [r7, #4]
 80014c8:	681b      	ldr	r3, [r3, #0]
 80014ca:	f022 0201 	bic.w	r2, r2, #1
 80014ce:	601a      	str	r2, [r3, #0]
 80014d0:	687b      	ldr	r3, [r7, #4]
 80014d2:	685a      	ldr	r2, [r3, #4]
 80014d4:	687b      	ldr	r3, [r7, #4]
 80014d6:	681b      	ldr	r3, [r3, #0]
 80014d8:	f022 6270 	bic.w	r2, r2, #251658240	; 0xf000000
 80014dc:	611a      	str	r2, [r3, #16]
 80014de:	687b      	ldr	r3, [r7, #4]
 80014e0:	681b      	ldr	r3, [r3, #0]
 80014e2:	689a      	ldr	r2, [r3, #8]
 80014e4:	687b      	ldr	r3, [r7, #4]
 80014e6:	681b      	ldr	r3, [r3, #0]
 80014e8:	f422 4200 	bic.w	r2, r2, #32768	; 0x8000
 80014ec:	609a      	str	r2, [r3, #8]
 80014ee:	687b      	ldr	r3, [r7, #4]
 80014f0:	68db      	ldr	r3, [r3, #12]
 80014f2:	2b01      	cmp	r3, #1
 80014f4:	d107      	bne.n	8001506 <HAL_I2C_Init+0x7a>
 80014f6:	687b      	ldr	r3, [r7, #4]
 80014f8:	689a      	ldr	r2, [r3, #8]
 80014fa:	687b      	ldr	r3, [r7, #4]
 80014fc:	681b      	ldr	r3, [r3, #0]
 80014fe:	f442 4200 	orr.w	r2, r2, #32768	; 0x8000
 8001502:	609a      	str	r2, [r3, #8]
 8001504:	e006      	b.n	8001514 <HAL_I2C_Init+0x88>
 8001506:	687b      	ldr	r3, [r7, #4]
 8001508:	689a      	ldr	r2, [r3, #8]
 800150a:	687b      	ldr	r3, [r7, #4]
 800150c:	681b      	ldr	r3, [r3, #0]
 800150e:	f442 4204 	orr.w	r2, r2, #33792	; 0x8400
 8001512:	609a      	str	r2, [r3, #8]
 8001514:	687b      	ldr	r3, [r7, #4]
 8001516:	68db      	ldr	r3, [r3, #12]
 8001518:	2b02      	cmp	r3, #2
 800151a:	d104      	bne.n	8001526 <HAL_I2C_Init+0x9a>
 800151c:	687b      	ldr	r3, [r7, #4]
 800151e:	681b      	ldr	r3, [r3, #0]
 8001520:	f44f 6200 	mov.w	r2, #2048	; 0x800
 8001524:	605a      	str	r2, [r3, #4]
 8001526:	687b      	ldr	r3, [r7, #4]
 8001528:	681b      	ldr	r3, [r3, #0]
 800152a:	6859      	ldr	r1, [r3, #4]
 800152c:	687b      	ldr	r3, [r7, #4]
 800152e:	681a      	ldr	r2, [r3, #0]
 8001530:	4b1d      	ldr	r3, [pc, #116]	; (80015a8 <HAL_I2C_Init+0x11c>)
 8001532:	430b      	orrs	r3, r1
 8001534:	6053      	str	r3, [r2, #4]
 8001536:	687b      	ldr	r3, [r7, #4]
 8001538:	681b      	ldr	r3, [r3, #0]
 800153a:	68da      	ldr	r2, [r3, #12]
 800153c:	687b      	ldr	r3, [r7, #4]
 800153e:	681b      	ldr	r3, [r3, #0]
 8001540:	f422 4200 	bic.w	r2, r2, #32768	; 0x8000
 8001544:	60da      	str	r2, [r3, #12]
 8001546:	687b      	ldr	r3, [r7, #4]
 8001548:	691a      	ldr	r2, [r3, #16]
 800154a:	687b      	ldr	r3, [r7, #4]
 800154c:	695b      	ldr	r3, [r3, #20]
 800154e:	ea42 0103 	orr.w	r1, r2, r3
 8001552:	687b      	ldr	r3, [r7, #4]
 8001554:	699b      	ldr	r3, [r3, #24]
 8001556:	021a      	lsls	r2, r3, #8
 8001558:	687b      	ldr	r3, [r7, #4]
 800155a:	681b      	ldr	r3, [r3, #0]
 800155c:	430a      	orrs	r2, r1
 800155e:	60da      	str	r2, [r3, #12]
 8001560:	687b      	ldr	r3, [r7, #4]
 8001562:	69d9      	ldr	r1, [r3, #28]
 8001564:	687b      	ldr	r3, [r7, #4]
 8001566:	6a1a      	ldr	r2, [r3, #32]
 8001568:	687b      	ldr	r3, [r7, #4]
 800156a:	681b      	ldr	r3, [r3, #0]
 800156c:	430a      	orrs	r2, r1
 800156e:	601a      	str	r2, [r3, #0]
 8001570:	687b      	ldr	r3, [r7, #4]
 8001572:	681b      	ldr	r3, [r3, #0]
 8001574:	681a      	ldr	r2, [r3, #0]
 8001576:	687b      	ldr	r3, [r7, #4]
 8001578:	681b      	ldr	r3, [r3, #0]
 800157a:	f042 0201 	orr.w	r2, r2, #1
 800157e:	601a      	str	r2, [r3, #0]
 8001580:	687b      	ldr	r3, [r7, #4]
 8001582:	2200      	movs	r2, #0
 8001584:	645a      	str	r2, [r3, #68]	; 0x44
 8001586:	687b      	ldr	r3, [r7, #4]
 8001588:	2220      	movs	r2, #32
 800158a:	f883 2041 	strb.w	r2, [r3, #65]	; 0x41
 800158e:	687b      	ldr	r3, [r7, #4]
 8001590:	2200      	movs	r2, #0
 8001592:	631a      	str	r2, [r3, #48]	; 0x30
 8001594:	687b      	ldr	r3, [r7, #4]
 8001596:	2200      	movs	r2, #0
 8001598:	f883 2042 	strb.w	r2, [r3, #66]	; 0x42
 800159c:	2300      	movs	r3, #0
 800159e:	4618      	mov	r0, r3
 80015a0:	3708      	adds	r7, #8
 80015a2:	46bd      	mov	sp, r7
 80015a4:	bd80      	pop	{r7, pc}
 80015a6:	bf00      	nop
 80015a8:	02008000 	.word	0x02008000

080015ac <HAL_I2C_Master_Transmit>:
 80015ac:	b580      	push	{r7, lr}
 80015ae:	b088      	sub	sp, #32
 80015b0:	af02      	add	r7, sp, #8
 80015b2:	60f8      	str	r0, [r7, #12]
 80015b4:	607a      	str	r2, [r7, #4]
 80015b6:	461a      	mov	r2, r3
 80015b8:	460b      	mov	r3, r1
 80015ba:	817b      	strh	r3, [r7, #10]
 80015bc:	4613      	mov	r3, r2
 80015be:	813b      	strh	r3, [r7, #8]
 80015c0:	68fb      	ldr	r3, [r7, #12]
 80015c2:	f893 3041 	ldrb.w	r3, [r3, #65]	; 0x41
 80015c6:	b2db      	uxtb	r3, r3
 80015c8:	2b20      	cmp	r3, #32
 80015ca:	f040 80da 	bne.w	8001782 <HAL_I2C_Master_Transmit+0x1d6>
 80015ce:	68fb      	ldr	r3, [r7, #12]
 80015d0:	f893 3040 	ldrb.w	r3, [r3, #64]	; 0x40
 80015d4:	2b01      	cmp	r3, #1
 80015d6:	d101      	bne.n	80015dc <HAL_I2C_Master_Transmit+0x30>
 80015d8:	2302      	movs	r3, #2
 80015da:	e0d3      	b.n	8001784 <HAL_I2C_Master_Transmit+0x1d8>
 80015dc:	68fb      	ldr	r3, [r7, #12]
 80015de:	2201      	movs	r2, #1
 80015e0:	f883 2040 	strb.w	r2, [r3, #64]	; 0x40
 80015e4:	f7ff fc2c 	bl	8000e40 <HAL_GetTick>
 80015e8:	6178      	str	r0, [r7, #20]
 80015ea:	697b      	ldr	r3, [r7, #20]
 80015ec:	9300      	str	r3, [sp, #0]
 80015ee:	2319      	movs	r3, #25
 80015f0:	2201      	movs	r2, #1
 80015f2:	f44f 4100 	mov.w	r1, #32768	; 0x8000
 80015f6:	68f8      	ldr	r0, [r7, #12]
 80015f8:	f000 fe76 	bl	80022e8 <I2C_WaitOnFlagUntilTimeout>
 80015fc:	4603      	mov	r3, r0
 80015fe:	2b00      	cmp	r3, #0
 8001600:	d001      	beq.n	8001606 <HAL_I2C_Master_Transmit+0x5a>
 8001602:	2301      	movs	r3, #1
 8001604:	e0be      	b.n	8001784 <HAL_I2C_Master_Transmit+0x1d8>
 8001606:	68fb      	ldr	r3, [r7, #12]
 8001608:	2221      	movs	r2, #33	; 0x21
 800160a:	f883 2041 	strb.w	r2, [r3, #65]	; 0x41
 800160e:	68fb      	ldr	r3, [r7, #12]
 8001610:	2210      	movs	r2, #16
 8001612:	f883 2042 	strb.w	r2, [r3, #66]	; 0x42
 8001616:	68fb      	ldr	r3, [r7, #12]
 8001618:	2200      	movs	r2, #0
 800161a:	645a      	str	r2, [r3, #68]	; 0x44
 800161c:	68fb      	ldr	r3, [r7, #12]
 800161e:	687a      	ldr	r2, [r7, #4]
 8001620:	625a      	str	r2, [r3, #36]	; 0x24
 8001622:	68fb      	ldr	r3, [r7, #12]
 8001624:	893a      	ldrh	r2, [r7, #8]
 8001626:	855a      	strh	r2, [r3, #42]	; 0x2a
 8001628:	68fb      	ldr	r3, [r7, #12]
 800162a:	2200      	movs	r2, #0
 800162c:	635a      	str	r2, [r3, #52]	; 0x34
 800162e:	68fb      	ldr	r3, [r7, #12]
 8001630:	8d5b      	ldrh	r3, [r3, #42]	; 0x2a
 8001632:	b29b      	uxth	r3, r3
 8001634:	2bff      	cmp	r3, #255	; 0xff
 8001636:	d90e      	bls.n	8001656 <HAL_I2C_Master_Transmit+0xaa>
 8001638:	68fb      	ldr	r3, [r7, #12]
 800163a:	22ff      	movs	r2, #255	; 0xff
 800163c:	851a      	strh	r2, [r3, #40]	; 0x28
 800163e:	68fb      	ldr	r3, [r7, #12]
 8001640:	8d1b      	ldrh	r3, [r3, #40]	; 0x28
 8001642:	b2da      	uxtb	r2, r3
 8001644:	8979      	ldrh	r1, [r7, #10]
 8001646:	4b51      	ldr	r3, [pc, #324]	; (800178c <HAL_I2C_Master_Transmit+0x1e0>)
 8001648:	9300      	str	r3, [sp, #0]
 800164a:	f04f 7380 	mov.w	r3, #16777216	; 0x1000000
 800164e:	68f8      	ldr	r0, [r7, #12]
 8001650:	f000 ffd8 	bl	8002604 <I2C_TransferConfig>
 8001654:	e06c      	b.n	8001730 <HAL_I2C_Master_Transmit+0x184>
 8001656:	68fb      	ldr	r3, [r7, #12]
 8001658:	8d5b      	ldrh	r3, [r3, #42]	; 0x2a
 800165a:	b29a      	uxth	r2, r3
 800165c:	68fb      	ldr	r3, [r7, #12]
 800165e:	851a      	strh	r2, [r3, #40]	; 0x28
 8001660:	68fb      	ldr	r3, [r7, #12]
 8001662:	8d1b      	ldrh	r3, [r3, #40]	; 0x28
 8001664:	b2da      	uxtb	r2, r3
 8001666:	8979      	ldrh	r1, [r7, #10]
 8001668:	4b48      	ldr	r3, [pc, #288]	; (800178c <HAL_I2C_Master_Transmit+0x1e0>)
 800166a:	9300      	str	r3, [sp, #0]
 800166c:	f04f 7300 	mov.w	r3, #33554432	; 0x2000000
 8001670:	68f8      	ldr	r0, [r7, #12]
 8001672:	f000 ffc7 	bl	8002604 <I2C_TransferConfig>
 8001676:	e05b      	b.n	8001730 <HAL_I2C_Master_Transmit+0x184>
 8001678:	697a      	ldr	r2, [r7, #20]
 800167a:	6a39      	ldr	r1, [r7, #32]
 800167c:	68f8      	ldr	r0, [r7, #12]
 800167e:	f000 fe73 	bl	8002368 <I2C_WaitOnTXISFlagUntilTimeout>
 8001682:	4603      	mov	r3, r0
 8001684:	2b00      	cmp	r3, #0
 8001686:	d001      	beq.n	800168c <HAL_I2C_Master_Transmit+0xe0>
 8001688:	2301      	movs	r3, #1
 800168a:	e07b      	b.n	8001784 <HAL_I2C_Master_Transmit+0x1d8>
 800168c:	68fb      	ldr	r3, [r7, #12]
 800168e:	6a5b      	ldr	r3, [r3, #36]	; 0x24
 8001690:	781a      	ldrb	r2, [r3, #0]
 8001692:	68fb      	ldr	r3, [r7, #12]
 8001694:	681b      	ldr	r3, [r3, #0]
 8001696:	629a      	str	r2, [r3, #40]	; 0x28
 8001698:	68fb      	ldr	r3, [r7, #12]
 800169a:	6a5b      	ldr	r3, [r3, #36]	; 0x24
 800169c:	1c5a      	adds	r2, r3, #1
 800169e:	68fb      	ldr	r3, [r7, #12]
 80016a0:	625a      	str	r2, [r3, #36]	; 0x24
 80016a2:	68fb      	ldr	r3, [r7, #12]
 80016a4:	8d5b      	ldrh	r3, [r3, #42]	; 0x2a
 80016a6:	b29b      	uxth	r3, r3
 80016a8:	3b01      	subs	r3, #1
 80016aa:	b29a      	uxth	r2, r3
 80016ac:	68fb      	ldr	r3, [r7, #12]
 80016ae:	855a      	strh	r2, [r3, #42]	; 0x2a
 80016b0:	68fb      	ldr	r3, [r7, #12]
 80016b2:	8d1b      	ldrh	r3, [r3, #40]	; 0x28
 80016b4:	3b01      	subs	r3, #1
 80016b6:	b29a      	uxth	r2, r3
 80016b8:	68fb      	ldr	r3, [r7, #12]
 80016ba:	851a      	strh	r2, [r3, #40]	; 0x28
 80016bc:	68fb      	ldr	r3, [r7, #12]
 80016be:	8d5b      	ldrh	r3, [r3, #42]	; 0x2a
 80016c0:	b29b      	uxth	r3, r3
 80016c2:	2b00      	cmp	r3, #0
 80016c4:	d034      	beq.n	8001730 <HAL_I2C_Master_Transmit+0x184>
 80016c6:	68fb      	ldr	r3, [r7, #12]
 80016c8:	8d1b      	ldrh	r3, [r3, #40]	; 0x28
 80016ca:	2b00      	cmp	r3, #0
 80016cc:	d130      	bne.n	8001730 <HAL_I2C_Master_Transmit+0x184>
 80016ce:	697b      	ldr	r3, [r7, #20]
 80016d0:	9300      	str	r3, [sp, #0]
 80016d2:	6a3b      	ldr	r3, [r7, #32]
 80016d4:	2200      	movs	r2, #0
 80016d6:	2180      	movs	r1, #128	; 0x80
 80016d8:	68f8      	ldr	r0, [r7, #12]
 80016da:	f000 fe05 	bl	80022e8 <I2C_WaitOnFlagUntilTimeout>
 80016de:	4603      	mov	r3, r0
 80016e0:	2b00      	cmp	r3, #0
 80016e2:	d001      	beq.n	80016e8 <HAL_I2C_Master_Transmit+0x13c>
 80016e4:	2301      	movs	r3, #1
 80016e6:	e04d      	b.n	8001784 <HAL_I2C_Master_Transmit+0x1d8>
 80016e8:	68fb      	ldr	r3, [r7, #12]
 80016ea:	8d5b      	ldrh	r3, [r3, #42]	; 0x2a
 80016ec:	b29b      	uxth	r3, r3
 80016ee:	2bff      	cmp	r3, #255	; 0xff
 80016f0:	d90e      	bls.n	8001710 <HAL_I2C_Master_Transmit+0x164>
 80016f2:	68fb      	ldr	r3, [r7, #12]
 80016f4:	22ff      	movs	r2, #255	; 0xff
 80016f6:	851a      	strh	r2, [r3, #40]	; 0x28
 80016f8:	68fb      	ldr	r3, [r7, #12]
 80016fa:	8d1b      	ldrh	r3, [r3, #40]	; 0x28
 80016fc:	b2da      	uxtb	r2, r3
 80016fe:	8979      	ldrh	r1, [r7, #10]
 8001700:	2300      	movs	r3, #0
 8001702:	9300      	str	r3, [sp, #0]
 8001704:	f04f 7380 	mov.w	r3, #16777216	; 0x1000000
 8001708:	68f8      	ldr	r0, [r7, #12]
 800170a:	f000 ff7b 	bl	8002604 <I2C_TransferConfig>
 800170e:	e00f      	b.n	8001730 <HAL_I2C_Master_Transmit+0x184>
 8001710:	68fb      	ldr	r3, [r7, #12]
 8001712:	8d5b      	ldrh	r3, [r3, #42]	; 0x2a
 8001714:	b29a      	uxth	r2, r3
 8001716:	68fb      	ldr	r3, [r7, #12]
 8001718:	851a      	strh	r2, [r3, #40]	; 0x28
 800171a:	68fb      	ldr	r3, [r7, #12]
 800171c:	8d1b      	ldrh	r3, [r3, #40]	; 0x28
 800171e:	b2da      	uxtb	r2, r3
 8001720:	8979      	ldrh	r1, [r7, #10]
 8001722:	2300      	movs	r3, #0
 8001724:	9300      	str	r3, [sp, #0]
 8001726:	f04f 7300 	mov.w	r3, #33554432	; 0x2000000
 800172a:	68f8      	ldr	r0, [r7, #12]
 800172c:	f000 ff6a 	bl	8002604 <I2C_TransferConfig>
 8001730:	68fb      	ldr	r3, [r7, #12]
 8001732:	8d5b      	ldrh	r3, [r3, #42]	; 0x2a
 8001734:	b29b      	uxth	r3, r3
 8001736:	2b00      	cmp	r3, #0
 8001738:	d19e      	bne.n	8001678 <HAL_I2C_Master_Transmit+0xcc>
 800173a:	697a      	ldr	r2, [r7, #20]
 800173c:	6a39      	ldr	r1, [r7, #32]
 800173e:	68f8      	ldr	r0, [r7, #12]
 8001740:	f000 fe52 	bl	80023e8 <I2C_WaitOnSTOPFlagUntilTimeout>
 8001744:	4603      	mov	r3, r0
 8001746:	2b00      	cmp	r3, #0
 8001748:	d001      	beq.n	800174e <HAL_I2C_Master_Transmit+0x1a2>
 800174a:	2301      	movs	r3, #1
 800174c:	e01a      	b.n	8001784 <HAL_I2C_Master_Transmit+0x1d8>
 800174e:	68fb      	ldr	r3, [r7, #12]
 8001750:	681b      	ldr	r3, [r3, #0]
 8001752:	2220      	movs	r2, #32
 8001754:	61da      	str	r2, [r3, #28]
 8001756:	68fb      	ldr	r3, [r7, #12]
 8001758:	681b      	ldr	r3, [r3, #0]
 800175a:	6859      	ldr	r1, [r3, #4]
 800175c:	68fb      	ldr	r3, [r7, #12]
 800175e:	681a      	ldr	r2, [r3, #0]
 8001760:	4b0b      	ldr	r3, [pc, #44]	; (8001790 <HAL_I2C_Master_Transmit+0x1e4>)
 8001762:	400b      	ands	r3, r1
 8001764:	6053      	str	r3, [r2, #4]
 8001766:	68fb      	ldr	r3, [r7, #12]
 8001768:	2220      	movs	r2, #32
 800176a:	f883 2041 	strb.w	r2, [r3, #65]	; 0x41
 800176e:	68fb      	ldr	r3, [r7, #12]
 8001770:	2200      	movs	r2, #0
 8001772:	f883 2042 	strb.w	r2, [r3, #66]	; 0x42
 8001776:	68fb      	ldr	r3, [r7, #12]
 8001778:	2200      	movs	r2, #0
 800177a:	f883 2040 	strb.w	r2, [r3, #64]	; 0x40
 800177e:	2300      	movs	r3, #0
 8001780:	e000      	b.n	8001784 <HAL_I2C_Master_Transmit+0x1d8>
 8001782:	2302      	movs	r3, #2
 8001784:	4618      	mov	r0, r3
 8001786:	3718      	adds	r7, #24
 8001788:	46bd      	mov	sp, r7
 800178a:	bd80      	pop	{r7, pc}
 800178c:	80002000 	.word	0x80002000
 8001790:	fe00e800 	.word	0xfe00e800

08001794 <HAL_I2C_Master_Receive>:
 8001794:	b580      	push	{r7, lr}
 8001796:	b088      	sub	sp, #32
 8001798:	af02      	add	r7, sp, #8
 800179a:	60f8      	str	r0, [r7, #12]
 800179c:	607a      	str	r2, [r7, #4]
 800179e:	461a      	mov	r2, r3
 80017a0:	460b      	mov	r3, r1
 80017a2:	817b      	strh	r3, [r7, #10]
 80017a4:	4613      	mov	r3, r2
 80017a6:	813b      	strh	r3, [r7, #8]
 80017a8:	68fb      	ldr	r3, [r7, #12]
 80017aa:	f893 3041 	ldrb.w	r3, [r3, #65]	; 0x41
 80017ae:	b2db      	uxtb	r3, r3
 80017b0:	2b20      	cmp	r3, #32
 80017b2:	f040 80db 	bne.w	800196c <HAL_I2C_Master_Receive+0x1d8>
 80017b6:	68fb      	ldr	r3, [r7, #12]
 80017b8:	f893 3040 	ldrb.w	r3, [r3, #64]	; 0x40
 80017bc:	2b01      	cmp	r3, #1
 80017be:	d101      	bne.n	80017c4 <HAL_I2C_Master_Receive+0x30>
 80017c0:	2302      	movs	r3, #2
 80017c2:	e0d4      	b.n	800196e <HAL_I2C_Master_Receive+0x1da>
 80017c4:	68fb      	ldr	r3, [r7, #12]
 80017c6:	2201      	movs	r2, #1
 80017c8:	f883 2040 	strb.w	r2, [r3, #64]	; 0x40
 80017cc:	f7ff fb38 	bl	8000e40 <HAL_GetTick>
 80017d0:	6178      	str	r0, [r7, #20]
 80017d2:	697b      	ldr	r3, [r7, #20]
 80017d4:	9300      	str	r3, [sp, #0]
 80017d6:	2319      	movs	r3, #25
 80017d8:	2201      	movs	r2, #1
 80017da:	f44f 4100 	mov.w	r1, #32768	; 0x8000
 80017de:	68f8      	ldr	r0, [r7, #12]
 80017e0:	f000 fd82 	bl	80022e8 <I2C_WaitOnFlagUntilTimeout>
 80017e4:	4603      	mov	r3, r0
 80017e6:	2b00      	cmp	r3, #0
 80017e8:	d001      	beq.n	80017ee <HAL_I2C_Master_Receive+0x5a>
 80017ea:	2301      	movs	r3, #1
 80017ec:	e0bf      	b.n	800196e <HAL_I2C_Master_Receive+0x1da>
 80017ee:	68fb      	ldr	r3, [r7, #12]
 80017f0:	2222      	movs	r2, #34	; 0x22
 80017f2:	f883 2041 	strb.w	r2, [r3, #65]	; 0x41
 80017f6:	68fb      	ldr	r3, [r7, #12]
 80017f8:	2210      	movs	r2, #16
 80017fa:	f883 2042 	strb.w	r2, [r3, #66]	; 0x42
 80017fe:	68fb      	ldr	r3, [r7, #12]
 8001800:	2200      	movs	r2, #0
 8001802:	645a      	str	r2, [r3, #68]	; 0x44
 8001804:	68fb      	ldr	r3, [r7, #12]
 8001806:	687a      	ldr	r2, [r7, #4]
 8001808:	625a      	str	r2, [r3, #36]	; 0x24
 800180a:	68fb      	ldr	r3, [r7, #12]
 800180c:	893a      	ldrh	r2, [r7, #8]
 800180e:	855a      	strh	r2, [r3, #42]	; 0x2a
 8001810:	68fb      	ldr	r3, [r7, #12]
 8001812:	2200      	movs	r2, #0
 8001814:	635a      	str	r2, [r3, #52]	; 0x34
 8001816:	68fb      	ldr	r3, [r7, #12]
 8001818:	8d5b      	ldrh	r3, [r3, #42]	; 0x2a
 800181a:	b29b      	uxth	r3, r3
 800181c:	2bff      	cmp	r3, #255	; 0xff
 800181e:	d90e      	bls.n	800183e <HAL_I2C_Master_Receive+0xaa>
 8001820:	68fb      	ldr	r3, [r7, #12]
 8001822:	22ff      	movs	r2, #255	; 0xff
 8001824:	851a      	strh	r2, [r3, #40]	; 0x28
 8001826:	68fb      	ldr	r3, [r7, #12]
 8001828:	8d1b      	ldrh	r3, [r3, #40]	; 0x28
 800182a:	b2da      	uxtb	r2, r3
 800182c:	8979      	ldrh	r1, [r7, #10]
 800182e:	4b52      	ldr	r3, [pc, #328]	; (8001978 <HAL_I2C_Master_Receive+0x1e4>)
 8001830:	9300      	str	r3, [sp, #0]
 8001832:	f04f 7380 	mov.w	r3, #16777216	; 0x1000000
 8001836:	68f8      	ldr	r0, [r7, #12]
 8001838:	f000 fee4 	bl	8002604 <I2C_TransferConfig>
 800183c:	e06d      	b.n	800191a <HAL_I2C_Master_Receive+0x186>
 800183e:	68fb      	ldr	r3, [r7, #12]
 8001840:	8d5b      	ldrh	r3, [r3, #42]	; 0x2a
 8001842:	b29a      	uxth	r2, r3
 8001844:	68fb      	ldr	r3, [r7, #12]
 8001846:	851a      	strh	r2, [r3, #40]	; 0x28
 8001848:	68fb      	ldr	r3, [r7, #12]
 800184a:	8d1b      	ldrh	r3, [r3, #40]	; 0x28
 800184c:	b2da      	uxtb	r2, r3
 800184e:	8979      	ldrh	r1, [r7, #10]
 8001850:	4b49      	ldr	r3, [pc, #292]	; (8001978 <HAL_I2C_Master_Receive+0x1e4>)
 8001852:	9300      	str	r3, [sp, #0]
 8001854:	f04f 7300 	mov.w	r3, #33554432	; 0x2000000
 8001858:	68f8      	ldr	r0, [r7, #12]
 800185a:	f000 fed3 	bl	8002604 <I2C_TransferConfig>
 800185e:	e05c      	b.n	800191a <HAL_I2C_Master_Receive+0x186>
 8001860:	697a      	ldr	r2, [r7, #20]
 8001862:	6a39      	ldr	r1, [r7, #32]
 8001864:	68f8      	ldr	r0, [r7, #12]
 8001866:	f000 fdfb 	bl	8002460 <I2C_WaitOnRXNEFlagUntilTimeout>
 800186a:	4603      	mov	r3, r0
 800186c:	2b00      	cmp	r3, #0
 800186e:	d001      	beq.n	8001874 <HAL_I2C_Master_Receive+0xe0>
 8001870:	2301      	movs	r3, #1
 8001872:	e07c      	b.n	800196e <HAL_I2C_Master_Receive+0x1da>
 8001874:	68fb      	ldr	r3, [r7, #12]
 8001876:	681b      	ldr	r3, [r3, #0]
 8001878:	6a5a      	ldr	r2, [r3, #36]	; 0x24
 800187a:	68fb      	ldr	r3, [r7, #12]
 800187c:	6a5b      	ldr	r3, [r3, #36]	; 0x24
 800187e:	b2d2      	uxtb	r2, r2
 8001880:	701a      	strb	r2, [r3, #0]
 8001882:	68fb      	ldr	r3, [r7, #12]
 8001884:	6a5b      	ldr	r3, [r3, #36]	; 0x24
 8001886:	1c5a      	adds	r2, r3, #1
 8001888:	68fb      	ldr	r3, [r7, #12]
 800188a:	625a      	str	r2, [r3, #36]	; 0x24
 800188c:	68fb      	ldr	r3, [r7, #12]
 800188e:	8d1b      	ldrh	r3, [r3, #40]	; 0x28
 8001890:	3b01      	subs	r3, #1
 8001892:	b29a      	uxth	r2, r3
 8001894:	68fb      	ldr	r3, [r7, #12]
 8001896:	851a      	strh	r2, [r3, #40]	; 0x28
 8001898:	68fb      	ldr	r3, [r7, #12]
 800189a:	8d5b      	ldrh	r3, [r3, #42]	; 0x2a
 800189c:	b29b      	uxth	r3, r3
 800189e:	3b01      	subs	r3, #1
 80018a0:	b29a      	uxth	r2, r3
 80018a2:	68fb      	ldr	r3, [r7, #12]
 80018a4:	855a      	strh	r2, [r3, #42]	; 0x2a
 80018a6:	68fb      	ldr	r3, [r7, #12]
 80018a8:	8d5b      	ldrh	r3, [r3, #42]	; 0x2a
 80018aa:	b29b      	uxth	r3, r3
 80018ac:	2b00      	cmp	r3, #0
 80018ae:	d034      	beq.n	800191a <HAL_I2C_Master_Receive+0x186>
 80018b0:	68fb      	ldr	r3, [r7, #12]
 80018b2:	8d1b      	ldrh	r3, [r3, #40]	; 0x28
 80018b4:	2b00      	cmp	r3, #0
 80018b6:	d130      	bne.n	800191a <HAL_I2C_Master_Receive+0x186>
 80018b8:	697b      	ldr	r3, [r7, #20]
 80018ba:	9300      	str	r3, [sp, #0]
 80018bc:	6a3b      	ldr	r3, [r7, #32]
 80018be:	2200      	movs	r2, #0
 80018c0:	2180      	movs	r1, #128	; 0x80
 80018c2:	68f8      	ldr	r0, [r7, #12]
 80018c4:	f000 fd10 	bl	80022e8 <I2C_WaitOnFlagUntilTimeout>
 80018c8:	4603      	mov	r3, r0
 80018ca:	2b00      	cmp	r3, #0
 80018cc:	d001      	beq.n	80018d2 <HAL_I2C_Master_Receive+0x13e>
 80018ce:	2301      	movs	r3, #1
 80018d0:	e04d      	b.n	800196e <HAL_I2C_Master_Receive+0x1da>
 80018d2:	68fb      	ldr	r3, [r7, #12]
 80018d4:	8d5b      	ldrh	r3, [r3, #42]	; 0x2a
 80018d6:	b29b      	uxth	r3, r3
 80018d8:	2bff      	cmp	r3, #255	; 0xff
 80018da:	d90e      	bls.n	80018fa <HAL_I2C_Master_Receive+0x166>
 80018dc:	68fb      	ldr	r3, [r7, #12]
 80018de:	22ff      	movs	r2, #255	; 0xff
 80018e0:	851a      	strh	r2, [r3, #40]	; 0x28
 80018e2:	68fb      	ldr	r3, [r7, #12]
 80018e4:	8d1b      	ldrh	r3, [r3, #40]	; 0x28
 80018e6:	b2da      	uxtb	r2, r3
 80018e8:	8979      	ldrh	r1, [r7, #10]
 80018ea:	2300      	movs	r3, #0
 80018ec:	9300      	str	r3, [sp, #0]
 80018ee:	f04f 7380 	mov.w	r3, #16777216	; 0x1000000
 80018f2:	68f8      	ldr	r0, [r7, #12]
 80018f4:	f000 fe86 	bl	8002604 <I2C_TransferConfig>
 80018f8:	e00f      	b.n	800191a <HAL_I2C_Master_Receive+0x186>
 80018fa:	68fb      	ldr	r3, [r7, #12]
 80018fc:	8d5b      	ldrh	r3, [r3, #42]	; 0x2a
 80018fe:	b29a      	uxth	r2, r3
 8001900:	68fb      	ldr	r3, [r7, #12]
 8001902:	851a      	strh	r2, [r3, #40]	; 0x28
 8001904:	68fb      	ldr	r3, [r7, #12]
 8001906:	8d1b      	ldrh	r3, [r3, #40]	; 0x28
 8001908:	b2da      	uxtb	r2, r3
 800190a:	8979      	ldrh	r1, [r7, #10]
 800190c:	2300      	movs	r3, #0
 800190e:	9300      	str	r3, [sp, #0]
 8001910:	f04f 7300 	mov.w	r3, #33554432	; 0x2000000
 8001914:	68f8      	ldr	r0, [r7, #12]
 8001916:	f000 fe75 	bl	8002604 <I2C_TransferConfig>
 800191a:	68fb      	ldr	r3, [r7, #12]
 800191c:	8d5b      	ldrh	r3, [r3, #42]	; 0x2a
 800191e:	b29b      	uxth	r3, r3
 8001920:	2b00      	cmp	r3, #0
 8001922:	d19d      	bne.n	8001860 <HAL_I2C_Master_Receive+0xcc>
 8001924:	697a      	ldr	r2, [r7, #20]
 8001926:	6a39      	ldr	r1, [r7, #32]
 8001928:	68f8      	ldr	r0, [r7, #12]
 800192a:	f000 fd5d 	bl	80023e8 <I2C_WaitOnSTOPFlagUntilTimeout>
 800192e:	4603      	mov	r3, r0
 8001930:	2b00      	cmp	r3, #0
 8001932:	d001      	beq.n	8001938 <HAL_I2C_Master_Receive+0x1a4>
 8001934:	2301      	movs	r3, #1
 8001936:	e01a      	b.n	800196e <HAL_I2C_Master_Receive+0x1da>
 8001938:	68fb      	ldr	r3, [r7, #12]
 800193a:	681b      	ldr	r3, [r3, #0]
 800193c:	2220      	movs	r2, #32
 800193e:	61da      	str	r2, [r3, #28]
 8001940:	68fb      	ldr	r3, [r7, #12]
 8001942:	681b      	ldr	r3, [r3, #0]
 8001944:	6859      	ldr	r1, [r3, #4]
 8001946:	68fb      	ldr	r3, [r7, #12]
 8001948:	681a      	ldr	r2, [r3, #0]
 800194a:	4b0c      	ldr	r3, [pc, #48]	; (800197c <HAL_I2C_Master_Receive+0x1e8>)
 800194c:	400b      	ands	r3, r1
 800194e:	6053      	str	r3, [r2, #4]
 8001950:	68fb      	ldr	r3, [r7, #12]
 8001952:	2220      	movs	r2, #32
 8001954:	f883 2041 	strb.w	r2, [r3, #65]	; 0x41
 8001958:	68fb      	ldr	r3, [r7, #12]
 800195a:	2200      	movs	r2, #0
 800195c:	f883 2042 	strb.w	r2, [r3, #66]	; 0x42
 8001960:	68fb      	ldr	r3, [r7, #12]
 8001962:	2200      	movs	r2, #0
 8001964:	f883 2040 	strb.w	r2, [r3, #64]	; 0x40
 8001968:	2300      	movs	r3, #0
 800196a:	e000      	b.n	800196e <HAL_I2C_Master_Receive+0x1da>
 800196c:	2302      	movs	r3, #2
 800196e:	4618      	mov	r0, r3
 8001970:	3718      	adds	r7, #24
 8001972:	46bd      	mov	sp, r7
 8001974:	bd80      	pop	{r7, pc}
 8001976:	bf00      	nop
 8001978:	80002400 	.word	0x80002400
 800197c:	fe00e800 	.word	0xfe00e800

08001980 <HAL_I2C_EV_IRQHandler>:
 8001980:	b580      	push	{r7, lr}
 8001982:	b084      	sub	sp, #16
 8001984:	af00      	add	r7, sp, #0
 8001986:	6078      	str	r0, [r7, #4]
 8001988:	687b      	ldr	r3, [r7, #4]
 800198a:	681b      	ldr	r3, [r3, #0]
 800198c:	699b      	ldr	r3, [r3, #24]
 800198e:	60fb      	str	r3, [r7, #12]
 8001990:	687b      	ldr	r3, [r7, #4]
 8001992:	681b      	ldr	r3, [r3, #0]
 8001994:	681b      	ldr	r3, [r3, #0]
 8001996:	60bb      	str	r3, [r7, #8]
 8001998:	687b      	ldr	r3, [r7, #4]
 800199a:	6b5b      	ldr	r3, [r3, #52]	; 0x34
 800199c:	2b00      	cmp	r3, #0
 800199e:	d005      	beq.n	80019ac <HAL_I2C_EV_IRQHandler+0x2c>
 80019a0:	687b      	ldr	r3, [r7, #4]
 80019a2:	6b5b      	ldr	r3, [r3, #52]	; 0x34
 80019a4:	68ba      	ldr	r2, [r7, #8]
 80019a6:	68f9      	ldr	r1, [r7, #12]
 80019a8:	6878      	ldr	r0, [r7, #4]
 80019aa:	4798      	blx	r3
 80019ac:	bf00      	nop
 80019ae:	3710      	adds	r7, #16
 80019b0:	46bd      	mov	sp, r7
 80019b2:	bd80      	pop	{r7, pc}

080019b4 <HAL_I2C_ER_IRQHandler>:
 80019b4:	b580      	push	{r7, lr}
 80019b6:	b086      	sub	sp, #24
 80019b8:	af00      	add	r7, sp, #0
 80019ba:	6078      	str	r0, [r7, #4]
 80019bc:	687b      	ldr	r3, [r7, #4]
 80019be:	681b      	ldr	r3, [r3, #0]
 80019c0:	699b      	ldr	r3, [r3, #24]
 80019c2:	617b      	str	r3, [r7, #20]
 80019c4:	687b      	ldr	r3, [r7, #4]
 80019c6:	681b      	ldr	r3, [r3, #0]
 80019c8:	681b      	ldr	r3, [r3, #0]
 80019ca:	613b      	str	r3, [r7, #16]
 80019cc:	697b      	ldr	r3, [r7, #20]
 80019ce:	0a1b      	lsrs	r3, r3, #8
 80019d0:	f003 0301 	and.w	r3, r3, #1
 80019d4:	2b00      	cmp	r3, #0
 80019d6:	d010      	beq.n	80019fa <HAL_I2C_ER_IRQHandler+0x46>
 80019d8:	693b      	ldr	r3, [r7, #16]
 80019da:	09db      	lsrs	r3, r3, #7
 80019dc:	f003 0301 	and.w	r3, r3, #1
 80019e0:	2b00      	cmp	r3, #0
 80019e2:	d00a      	beq.n	80019fa <HAL_I2C_ER_IRQHandler+0x46>
 80019e4:	687b      	ldr	r3, [r7, #4]
 80019e6:	6c5b      	ldr	r3, [r3, #68]	; 0x44
 80019e8:	f043 0201 	orr.w	r2, r3, #1
 80019ec:	687b      	ldr	r3, [r7, #4]
 80019ee:	645a      	str	r2, [r3, #68]	; 0x44
 80019f0:	687b      	ldr	r3, [r7, #4]
 80019f2:	681b      	ldr	r3, [r3, #0]
 80019f4:	f44f 7280 	mov.w	r2, #256	; 0x100
 80019f8:	61da      	str	r2, [r3, #28]
 80019fa:	697b      	ldr	r3, [r7, #20]
 80019fc:	0a9b      	lsrs	r3, r3, #10
 80019fe:	f003 0301 	and.w	r3, r3, #1
 8001a02:	2b00      	cmp	r3, #0
 8001a04:	d010      	beq.n	8001a28 <HAL_I2C_ER_IRQHandler+0x74>
 8001a06:	693b      	ldr	r3, [r7, #16]
 8001a08:	09db      	lsrs	r3, r3, #7
 8001a0a:	f003 0301 	and.w	r3, r3, #1
 8001a0e:	2b00      	cmp	r3, #0
 8001a10:	d00a      	beq.n	8001a28 <HAL_I2C_ER_IRQHandler+0x74>
 8001a12:	687b      	ldr	r3, [r7, #4]
 8001a14:	6c5b      	ldr	r3, [r3, #68]	; 0x44
 8001a16:	f043 0208 	orr.w	r2, r3, #8
 8001a1a:	687b      	ldr	r3, [r7, #4]
 8001a1c:	645a      	str	r2, [r3, #68]	; 0x44
 8001a1e:	687b      	ldr	r3, [r7, #4]
 8001a20:	681b      	ldr	r3, [r3, #0]
 8001a22:	f44f 6280 	mov.w	r2, #1024	; 0x400
 8001a26:	61da      	str	r2, [r3, #28]
 8001a28:	697b      	ldr	r3, [r7, #20]
 8001a2a:	0a5b      	lsrs	r3, r3, #9
 8001a2c:	f003 0301 	and.w	r3, r3, #1
 8001a30:	2b00      	cmp	r3, #0
 8001a32:	d010      	beq.n	8001a56 <HAL_I2C_ER_IRQHandler+0xa2>
 8001a34:	693b      	ldr	r3, [r7, #16]
 8001a36:	09db      	lsrs	r3, r3, #7
 8001a38:	f003 0301 	and.w	r3, r3, #1
 8001a3c:	2b00      	cmp	r3, #0
 8001a3e:	d00a      	beq.n	8001a56 <HAL_I2C_ER_IRQHandler+0xa2>
 8001a40:	687b      	ldr	r3, [r7, #4]
 8001a42:	6c5b      	ldr	r3, [r3, #68]	; 0x44
 8001a44:	f043 0202 	orr.w	r2, r3, #2
 8001a48:	687b      	ldr	r3, [r7, #4]
 8001a4a:	645a      	str	r2, [r3, #68]	; 0x44
 8001a4c:	687b      	ldr	r3, [r7, #4]
 8001a4e:	681b      	ldr	r3, [r3, #0]
 8001a50:	f44f 7200 	mov.w	r2, #512	; 0x200
 8001a54:	61da      	str	r2, [r3, #28]
 8001a56:	687b      	ldr	r3, [r7, #4]
 8001a58:	6c5b      	ldr	r3, [r3, #68]	; 0x44
 8001a5a:	60fb      	str	r3, [r7, #12]
 8001a5c:	68fb      	ldr	r3, [r7, #12]
 8001a5e:	f003 030b 	and.w	r3, r3, #11
 8001a62:	2b00      	cmp	r3, #0
 8001a64:	d003      	beq.n	8001a6e <HAL_I2C_ER_IRQHandler+0xba>
 8001a66:	68f9      	ldr	r1, [r7, #12]
 8001a68:	6878      	ldr	r0, [r7, #4]
 8001a6a:	f000 fb35 	bl	80020d8 <I2C_ITError>
 8001a6e:	bf00      	nop
 8001a70:	3718      	adds	r7, #24
 8001a72:	46bd      	mov	sp, r7
 8001a74:	bd80      	pop	{r7, pc}

08001a76 <HAL_I2C_SlaveTxCpltCallback>:
 8001a76:	b480      	push	{r7}
 8001a78:	b083      	sub	sp, #12
 8001a7a:	af00      	add	r7, sp, #0
 8001a7c:	6078      	str	r0, [r7, #4]
 8001a7e:	bf00      	nop
 8001a80:	370c      	adds	r7, #12
 8001a82:	46bd      	mov	sp, r7
 8001a84:	f85d 7b04 	ldr.w	r7, [sp], #4
 8001a88:	4770      	bx	lr

08001a8a <HAL_I2C_SlaveRxCpltCallback>:
 8001a8a:	b480      	push	{r7}
 8001a8c:	b083      	sub	sp, #12
 8001a8e:	af00      	add	r7, sp, #0
 8001a90:	6078      	str	r0, [r7, #4]
 8001a92:	bf00      	nop
 8001a94:	370c      	adds	r7, #12
 8001a96:	46bd      	mov	sp, r7
 8001a98:	f85d 7b04 	ldr.w	r7, [sp], #4
 8001a9c:	4770      	bx	lr

08001a9e <HAL_I2C_AddrCallback>:
 8001a9e:	b480      	push	{r7}
 8001aa0:	b083      	sub	sp, #12
 8001aa2:	af00      	add	r7, sp, #0
 8001aa4:	6078      	str	r0, [r7, #4]
 8001aa6:	460b      	mov	r3, r1
 8001aa8:	70fb      	strb	r3, [r7, #3]
 8001aaa:	4613      	mov	r3, r2
 8001aac:	803b      	strh	r3, [r7, #0]
 8001aae:	bf00      	nop
 8001ab0:	370c      	adds	r7, #12
 8001ab2:	46bd      	mov	sp, r7
 8001ab4:	f85d 7b04 	ldr.w	r7, [sp], #4
 8001ab8:	4770      	bx	lr

08001aba <HAL_I2C_ListenCpltCallback>:
 8001aba:	b480      	push	{r7}
 8001abc:	b083      	sub	sp, #12
 8001abe:	af00      	add	r7, sp, #0
 8001ac0:	6078      	str	r0, [r7, #4]
 8001ac2:	bf00      	nop
 8001ac4:	370c      	adds	r7, #12
 8001ac6:	46bd      	mov	sp, r7
 8001ac8:	f85d 7b04 	ldr.w	r7, [sp], #4
 8001acc:	4770      	bx	lr

08001ace <HAL_I2C_ErrorCallback>:
 8001ace:	b480      	push	{r7}
 8001ad0:	b083      	sub	sp, #12
 8001ad2:	af00      	add	r7, sp, #0
 8001ad4:	6078      	str	r0, [r7, #4]
 8001ad6:	bf00      	nop
 8001ad8:	370c      	adds	r7, #12
 8001ada:	46bd      	mov	sp, r7
 8001adc:	f85d 7b04 	ldr.w	r7, [sp], #4
 8001ae0:	4770      	bx	lr

08001ae2 <HAL_I2C_AbortCpltCallback>:
 8001ae2:	b480      	push	{r7}
 8001ae4:	b083      	sub	sp, #12
 8001ae6:	af00      	add	r7, sp, #0
 8001ae8:	6078      	str	r0, [r7, #4]
 8001aea:	bf00      	nop
 8001aec:	370c      	adds	r7, #12
 8001aee:	46bd      	mov	sp, r7
 8001af0:	f85d 7b04 	ldr.w	r7, [sp], #4
 8001af4:	4770      	bx	lr

08001af6 <I2C_Slave_ISR_IT>:
 8001af6:	b580      	push	{r7, lr}
 8001af8:	b086      	sub	sp, #24
 8001afa:	af00      	add	r7, sp, #0
 8001afc:	60f8      	str	r0, [r7, #12]
 8001afe:	60b9      	str	r1, [r7, #8]
 8001b00:	607a      	str	r2, [r7, #4]
 8001b02:	68fb      	ldr	r3, [r7, #12]
 8001b04:	6adb      	ldr	r3, [r3, #44]	; 0x2c
 8001b06:	613b      	str	r3, [r7, #16]
 8001b08:	68bb      	ldr	r3, [r7, #8]
 8001b0a:	617b      	str	r3, [r7, #20]
 8001b0c:	68fb      	ldr	r3, [r7, #12]
 8001b0e:	f893 3040 	ldrb.w	r3, [r3, #64]	; 0x40
 8001b12:	2b01      	cmp	r3, #1
 8001b14:	d101      	bne.n	8001b1a <I2C_Slave_ISR_IT+0x24>
 8001b16:	2302      	movs	r3, #2
 8001b18:	e0f0      	b.n	8001cfc <I2C_Slave_ISR_IT+0x206>
 8001b1a:	68fb      	ldr	r3, [r7, #12]
 8001b1c:	2201      	movs	r2, #1
 8001b1e:	f883 2040 	strb.w	r2, [r3, #64]	; 0x40
 8001b22:	697b      	ldr	r3, [r7, #20]
 8001b24:	091b      	lsrs	r3, r3, #4
 8001b26:	f003 0301 	and.w	r3, r3, #1
 8001b2a:	2b00      	cmp	r3, #0
 8001b2c:	d04d      	beq.n	8001bca <I2C_Slave_ISR_IT+0xd4>
 8001b2e:	687b      	ldr	r3, [r7, #4]
 8001b30:	091b      	lsrs	r3, r3, #4
 8001b32:	f003 0301 	and.w	r3, r3, #1
 8001b36:	2b00      	cmp	r3, #0
 8001b38:	d047      	beq.n	8001bca <I2C_Slave_ISR_IT+0xd4>
 8001b3a:	68fb      	ldr	r3, [r7, #12]
 8001b3c:	8d5b      	ldrh	r3, [r3, #42]	; 0x2a
 8001b3e:	b29b      	uxth	r3, r3
 8001b40:	2b00      	cmp	r3, #0
 8001b42:	d128      	bne.n	8001b96 <I2C_Slave_ISR_IT+0xa0>
 8001b44:	68fb      	ldr	r3, [r7, #12]
 8001b46:	f893 3041 	ldrb.w	r3, [r3, #65]	; 0x41
 8001b4a:	b2db      	uxtb	r3, r3
 8001b4c:	2b28      	cmp	r3, #40	; 0x28
 8001b4e:	d108      	bne.n	8001b62 <I2C_Slave_ISR_IT+0x6c>
 8001b50:	693b      	ldr	r3, [r7, #16]
 8001b52:	f1b3 7f00 	cmp.w	r3, #33554432	; 0x2000000
 8001b56:	d104      	bne.n	8001b62 <I2C_Slave_ISR_IT+0x6c>
 8001b58:	6979      	ldr	r1, [r7, #20]
 8001b5a:	68f8      	ldr	r0, [r7, #12]
 8001b5c:	f000 fa68 	bl	8002030 <I2C_ITListenCplt>
 8001b60:	e032      	b.n	8001bc8 <I2C_Slave_ISR_IT+0xd2>
 8001b62:	68fb      	ldr	r3, [r7, #12]
 8001b64:	f893 3041 	ldrb.w	r3, [r3, #65]	; 0x41
 8001b68:	b2db      	uxtb	r3, r3
 8001b6a:	2b29      	cmp	r3, #41	; 0x29
 8001b6c:	d10e      	bne.n	8001b8c <I2C_Slave_ISR_IT+0x96>
 8001b6e:	693b      	ldr	r3, [r7, #16]
 8001b70:	f513 3f80 	cmn.w	r3, #65536	; 0x10000
 8001b74:	d00a      	beq.n	8001b8c <I2C_Slave_ISR_IT+0x96>
 8001b76:	68fb      	ldr	r3, [r7, #12]
 8001b78:	681b      	ldr	r3, [r3, #0]
 8001b7a:	2210      	movs	r2, #16
 8001b7c:	61da      	str	r2, [r3, #28]
 8001b7e:	68f8      	ldr	r0, [r7, #12]
 8001b80:	f000 fb6a 	bl	8002258 <I2C_Flush_TXDR>
 8001b84:	68f8      	ldr	r0, [r7, #12]
 8001b86:	f000 f93f 	bl	8001e08 <I2C_ITSlaveSeqCplt>
 8001b8a:	e01d      	b.n	8001bc8 <I2C_Slave_ISR_IT+0xd2>
 8001b8c:	68fb      	ldr	r3, [r7, #12]
 8001b8e:	681b      	ldr	r3, [r3, #0]
 8001b90:	2210      	movs	r2, #16
 8001b92:	61da      	str	r2, [r3, #28]
 8001b94:	e09a      	b.n	8001ccc <I2C_Slave_ISR_IT+0x1d6>
 8001b96:	68fb      	ldr	r3, [r7, #12]
 8001b98:	681b      	ldr	r3, [r3, #0]
 8001b9a:	2210      	movs	r2, #16
 8001b9c:	61da      	str	r2, [r3, #28]
 8001b9e:	68fb      	ldr	r3, [r7, #12]
 8001ba0:	6c5b      	ldr	r3, [r3, #68]	; 0x44
 8001ba2:	f043 0204 	orr.w	r2, r3, #4
 8001ba6:	68fb      	ldr	r3, [r7, #12]
 8001ba8:	645a      	str	r2, [r3, #68]	; 0x44
 8001baa:	693b      	ldr	r3, [r7, #16]
 8001bac:	2b00      	cmp	r3, #0
 8001bae:	d004      	beq.n	8001bba <I2C_Slave_ISR_IT+0xc4>
 8001bb0:	693b      	ldr	r3, [r7, #16]
 8001bb2:	f1b3 7f80 	cmp.w	r3, #16777216	; 0x1000000
 8001bb6:	f040 8089 	bne.w	8001ccc <I2C_Slave_ISR_IT+0x1d6>
 8001bba:	68fb      	ldr	r3, [r7, #12]
 8001bbc:	6c5b      	ldr	r3, [r3, #68]	; 0x44
 8001bbe:	4619      	mov	r1, r3
 8001bc0:	68f8      	ldr	r0, [r7, #12]
 8001bc2:	f000 fa89 	bl	80020d8 <I2C_ITError>
 8001bc6:	e081      	b.n	8001ccc <I2C_Slave_ISR_IT+0x1d6>
 8001bc8:	e080      	b.n	8001ccc <I2C_Slave_ISR_IT+0x1d6>
 8001bca:	697b      	ldr	r3, [r7, #20]
 8001bcc:	089b      	lsrs	r3, r3, #2
 8001bce:	f003 0301 	and.w	r3, r3, #1
 8001bd2:	2b00      	cmp	r3, #0
 8001bd4:	d034      	beq.n	8001c40 <I2C_Slave_ISR_IT+0x14a>
 8001bd6:	687b      	ldr	r3, [r7, #4]
 8001bd8:	089b      	lsrs	r3, r3, #2
 8001bda:	f003 0301 	and.w	r3, r3, #1
 8001bde:	2b00      	cmp	r3, #0
 8001be0:	d02e      	beq.n	8001c40 <I2C_Slave_ISR_IT+0x14a>
 8001be2:	68fb      	ldr	r3, [r7, #12]
 8001be4:	8d5b      	ldrh	r3, [r3, #42]	; 0x2a
 8001be6:	b29b      	uxth	r3, r3
 8001be8:	2b00      	cmp	r3, #0
 8001bea:	d01c      	beq.n	8001c26 <I2C_Slave_ISR_IT+0x130>
 8001bec:	697b      	ldr	r3, [r7, #20]
 8001bee:	f023 0304 	bic.w	r3, r3, #4
 8001bf2:	617b      	str	r3, [r7, #20]
 8001bf4:	68fb      	ldr	r3, [r7, #12]
 8001bf6:	681b      	ldr	r3, [r3, #0]
 8001bf8:	6a5a      	ldr	r2, [r3, #36]	; 0x24
 8001bfa:	68fb      	ldr	r3, [r7, #12]
 8001bfc:	6a5b      	ldr	r3, [r3, #36]	; 0x24
 8001bfe:	b2d2      	uxtb	r2, r2
 8001c00:	701a      	strb	r2, [r3, #0]
 8001c02:	68fb      	ldr	r3, [r7, #12]
 8001c04:	6a5b      	ldr	r3, [r3, #36]	; 0x24
 8001c06:	1c5a      	adds	r2, r3, #1
 8001c08:	68fb      	ldr	r3, [r7, #12]
 8001c0a:	625a      	str	r2, [r3, #36]	; 0x24
 8001c0c:	68fb      	ldr	r3, [r7, #12]
 8001c0e:	8d1b      	ldrh	r3, [r3, #40]	; 0x28
 8001c10:	3b01      	subs	r3, #1
 8001c12:	b29a      	uxth	r2, r3
 8001c14:	68fb      	ldr	r3, [r7, #12]
 8001c16:	851a      	strh	r2, [r3, #40]	; 0x28
 8001c18:	68fb      	ldr	r3, [r7, #12]
 8001c1a:	8d5b      	ldrh	r3, [r3, #42]	; 0x2a
 8001c1c:	b29b      	uxth	r3, r3
 8001c1e:	3b01      	subs	r3, #1
 8001c20:	b29a      	uxth	r2, r3
 8001c22:	68fb      	ldr	r3, [r7, #12]
 8001c24:	855a      	strh	r2, [r3, #42]	; 0x2a
 8001c26:	68fb      	ldr	r3, [r7, #12]
 8001c28:	8d5b      	ldrh	r3, [r3, #42]	; 0x2a
 8001c2a:	b29b      	uxth	r3, r3
 8001c2c:	2b00      	cmp	r3, #0
 8001c2e:	d14f      	bne.n	8001cd0 <I2C_Slave_ISR_IT+0x1da>
 8001c30:	693b      	ldr	r3, [r7, #16]
 8001c32:	f513 3f80 	cmn.w	r3, #65536	; 0x10000
 8001c36:	d04b      	beq.n	8001cd0 <I2C_Slave_ISR_IT+0x1da>
 8001c38:	68f8      	ldr	r0, [r7, #12]
 8001c3a:	f000 f8e5 	bl	8001e08 <I2C_ITSlaveSeqCplt>
 8001c3e:	e047      	b.n	8001cd0 <I2C_Slave_ISR_IT+0x1da>
 8001c40:	697b      	ldr	r3, [r7, #20]
 8001c42:	08db      	lsrs	r3, r3, #3
 8001c44:	f003 0301 	and.w	r3, r3, #1
 8001c48:	2b00      	cmp	r3, #0
 8001c4a:	d00a      	beq.n	8001c62 <I2C_Slave_ISR_IT+0x16c>
 8001c4c:	687b      	ldr	r3, [r7, #4]
 8001c4e:	08db      	lsrs	r3, r3, #3
 8001c50:	f003 0301 	and.w	r3, r3, #1
 8001c54:	2b00      	cmp	r3, #0
 8001c56:	d004      	beq.n	8001c62 <I2C_Slave_ISR_IT+0x16c>
 8001c58:	6979      	ldr	r1, [r7, #20]
 8001c5a:	68f8      	ldr	r0, [r7, #12]
 8001c5c:	f000 f852 	bl	8001d04 <I2C_ITAddrCplt>
 8001c60:	e037      	b.n	8001cd2 <I2C_Slave_ISR_IT+0x1dc>
 8001c62:	697b      	ldr	r3, [r7, #20]
 8001c64:	085b      	lsrs	r3, r3, #1
 8001c66:	f003 0301 	and.w	r3, r3, #1
 8001c6a:	2b00      	cmp	r3, #0
 8001c6c:	d031      	beq.n	8001cd2 <I2C_Slave_ISR_IT+0x1dc>
 8001c6e:	687b      	ldr	r3, [r7, #4]
 8001c70:	085b      	lsrs	r3, r3, #1
 8001c72:	f003 0301 	and.w	r3, r3, #1
 8001c76:	2b00      	cmp	r3, #0
 8001c78:	d02b      	beq.n	8001cd2 <I2C_Slave_ISR_IT+0x1dc>
 8001c7a:	68fb      	ldr	r3, [r7, #12]
 8001c7c:	8d5b      	ldrh	r3, [r3, #42]	; 0x2a
 8001c7e:	b29b      	uxth	r3, r3
 8001c80:	2b00      	cmp	r3, #0
 8001c82:	d018      	beq.n	8001cb6 <I2C_Slave_ISR_IT+0x1c0>
 8001c84:	68fb      	ldr	r3, [r7, #12]
 8001c86:	6a5b      	ldr	r3, [r3, #36]	; 0x24
 8001c88:	781a      	ldrb	r2, [r3, #0]
 8001c8a:	68fb      	ldr	r3, [r7, #12]
 8001c8c:	681b      	ldr	r3, [r3, #0]
 8001c8e:	629a      	str	r2, [r3, #40]	; 0x28
 8001c90:	68fb      	ldr	r3, [r7, #12]
 8001c92:	6a5b      	ldr	r3, [r3, #36]	; 0x24
 8001c94:	1c5a      	adds	r2, r3, #1
 8001c96:	68fb      	ldr	r3, [r7, #12]
 8001c98:	625a      	str	r2, [r3, #36]	; 0x24
 8001c9a:	68fb      	ldr	r3, [r7, #12]
 8001c9c:	8d5b      	ldrh	r3, [r3, #42]	; 0x2a
 8001c9e:	b29b      	uxth	r3, r3
 8001ca0:	3b01      	subs	r3, #1
 8001ca2:	b29a      	uxth	r2, r3
 8001ca4:	68fb      	ldr	r3, [r7, #12]
 8001ca6:	855a      	strh	r2, [r3, #42]	; 0x2a
 8001ca8:	68fb      	ldr	r3, [r7, #12]
 8001caa:	8d1b      	ldrh	r3, [r3, #40]	; 0x28
 8001cac:	3b01      	subs	r3, #1
 8001cae:	b29a      	uxth	r2, r3
 8001cb0:	68fb      	ldr	r3, [r7, #12]
 8001cb2:	851a      	strh	r2, [r3, #40]	; 0x28
 8001cb4:	e00d      	b.n	8001cd2 <I2C_Slave_ISR_IT+0x1dc>
 8001cb6:	693b      	ldr	r3, [r7, #16]
 8001cb8:	f1b3 7f80 	cmp.w	r3, #16777216	; 0x1000000
 8001cbc:	d002      	beq.n	8001cc4 <I2C_Slave_ISR_IT+0x1ce>
 8001cbe:	693b      	ldr	r3, [r7, #16]
 8001cc0:	2b00      	cmp	r3, #0
 8001cc2:	d106      	bne.n	8001cd2 <I2C_Slave_ISR_IT+0x1dc>
 8001cc4:	68f8      	ldr	r0, [r7, #12]
 8001cc6:	f000 f89f 	bl	8001e08 <I2C_ITSlaveSeqCplt>
 8001cca:	e002      	b.n	8001cd2 <I2C_Slave_ISR_IT+0x1dc>
 8001ccc:	bf00      	nop
 8001cce:	e000      	b.n	8001cd2 <I2C_Slave_ISR_IT+0x1dc>
 8001cd0:	bf00      	nop
 8001cd2:	697b      	ldr	r3, [r7, #20]
 8001cd4:	095b      	lsrs	r3, r3, #5
 8001cd6:	f003 0301 	and.w	r3, r3, #1
 8001cda:	2b00      	cmp	r3, #0
 8001cdc:	d009      	beq.n	8001cf2 <I2C_Slave_ISR_IT+0x1fc>
 8001cde:	687b      	ldr	r3, [r7, #4]
 8001ce0:	095b      	lsrs	r3, r3, #5
 8001ce2:	f003 0301 	and.w	r3, r3, #1
 8001ce6:	2b00      	cmp	r3, #0
 8001ce8:	d003      	beq.n	8001cf2 <I2C_Slave_ISR_IT+0x1fc>
 8001cea:	6979      	ldr	r1, [r7, #20]
 8001cec:	68f8      	ldr	r0, [r7, #12]
 8001cee:	f000 f8c9 	bl	8001e84 <I2C_ITSlaveCplt>
 8001cf2:	68fb      	ldr	r3, [r7, #12]
 8001cf4:	2200      	movs	r2, #0
 8001cf6:	f883 2040 	strb.w	r2, [r3, #64]	; 0x40
 8001cfa:	2300      	movs	r3, #0
 8001cfc:	4618      	mov	r0, r3
 8001cfe:	3718      	adds	r7, #24
 8001d00:	46bd      	mov	sp, r7
 8001d02:	bd80      	pop	{r7, pc}

08001d04 <I2C_ITAddrCplt>:
 8001d04:	b580      	push	{r7, lr}
 8001d06:	b084      	sub	sp, #16
 8001d08:	af00      	add	r7, sp, #0
 8001d0a:	6078      	str	r0, [r7, #4]
 8001d0c:	6039      	str	r1, [r7, #0]
 8001d0e:	687b      	ldr	r3, [r7, #4]
 8001d10:	f893 3041 	ldrb.w	r3, [r3, #65]	; 0x41
 8001d14:	b2db      	uxtb	r3, r3
 8001d16:	f003 0328 	and.w	r3, r3, #40	; 0x28
 8001d1a:	2b28      	cmp	r3, #40	; 0x28
 8001d1c:	d168      	bne.n	8001df0 <I2C_ITAddrCplt+0xec>
 8001d1e:	687b      	ldr	r3, [r7, #4]
 8001d20:	681b      	ldr	r3, [r3, #0]
 8001d22:	699b      	ldr	r3, [r3, #24]
 8001d24:	0c1b      	lsrs	r3, r3, #16
 8001d26:	b2db      	uxtb	r3, r3
 8001d28:	f003 0301 	and.w	r3, r3, #1
 8001d2c:	73fb      	strb	r3, [r7, #15]
 8001d2e:	687b      	ldr	r3, [r7, #4]
 8001d30:	681b      	ldr	r3, [r3, #0]
 8001d32:	699b      	ldr	r3, [r3, #24]
 8001d34:	0c1b      	lsrs	r3, r3, #16
 8001d36:	b29b      	uxth	r3, r3
 8001d38:	f003 03fe 	and.w	r3, r3, #254	; 0xfe
 8001d3c:	81bb      	strh	r3, [r7, #12]
 8001d3e:	687b      	ldr	r3, [r7, #4]
 8001d40:	681b      	ldr	r3, [r3, #0]
 8001d42:	689b      	ldr	r3, [r3, #8]
 8001d44:	b29b      	uxth	r3, r3
 8001d46:	f3c3 0309 	ubfx	r3, r3, #0, #10
 8001d4a:	817b      	strh	r3, [r7, #10]
 8001d4c:	687b      	ldr	r3, [r7, #4]
 8001d4e:	681b      	ldr	r3, [r3, #0]
 8001d50:	68db      	ldr	r3, [r3, #12]
 8001d52:	b29b      	uxth	r3, r3
 8001d54:	f003 03fe 	and.w	r3, r3, #254	; 0xfe
 8001d58:	813b      	strh	r3, [r7, #8]
 8001d5a:	687b      	ldr	r3, [r7, #4]
 8001d5c:	68db      	ldr	r3, [r3, #12]
 8001d5e:	2b02      	cmp	r3, #2
 8001d60:	d137      	bne.n	8001dd2 <I2C_ITAddrCplt+0xce>
 8001d62:	897b      	ldrh	r3, [r7, #10]
 8001d64:	09db      	lsrs	r3, r3, #7
 8001d66:	b29a      	uxth	r2, r3
 8001d68:	89bb      	ldrh	r3, [r7, #12]
 8001d6a:	4053      	eors	r3, r2
 8001d6c:	b29b      	uxth	r3, r3
 8001d6e:	f003 0306 	and.w	r3, r3, #6
 8001d72:	2b00      	cmp	r3, #0
 8001d74:	d11c      	bne.n	8001db0 <I2C_ITAddrCplt+0xac>
 8001d76:	897b      	ldrh	r3, [r7, #10]
 8001d78:	81bb      	strh	r3, [r7, #12]
 8001d7a:	687b      	ldr	r3, [r7, #4]
 8001d7c:	6c9b      	ldr	r3, [r3, #72]	; 0x48
 8001d7e:	1c5a      	adds	r2, r3, #1
 8001d80:	687b      	ldr	r3, [r7, #4]
 8001d82:	649a      	str	r2, [r3, #72]	; 0x48
 8001d84:	687b      	ldr	r3, [r7, #4]
 8001d86:	6c9b      	ldr	r3, [r3, #72]	; 0x48
 8001d88:	2b02      	cmp	r3, #2
 8001d8a:	d139      	bne.n	8001e00 <I2C_ITAddrCplt+0xfc>
 8001d8c:	687b      	ldr	r3, [r7, #4]
 8001d8e:	2200      	movs	r2, #0
 8001d90:	649a      	str	r2, [r3, #72]	; 0x48
 8001d92:	687b      	ldr	r3, [r7, #4]
 8001d94:	681b      	ldr	r3, [r3, #0]
 8001d96:	2208      	movs	r2, #8
 8001d98:	61da      	str	r2, [r3, #28]
 8001d9a:	687b      	ldr	r3, [r7, #4]
 8001d9c:	2200      	movs	r2, #0
 8001d9e:	f883 2040 	strb.w	r2, [r3, #64]	; 0x40
 8001da2:	89ba      	ldrh	r2, [r7, #12]
 8001da4:	7bfb      	ldrb	r3, [r7, #15]
 8001da6:	4619      	mov	r1, r3
 8001da8:	6878      	ldr	r0, [r7, #4]
 8001daa:	f7ff fe78 	bl	8001a9e <HAL_I2C_AddrCallback>
 8001dae:	e027      	b.n	8001e00 <I2C_ITAddrCplt+0xfc>
 8001db0:	893b      	ldrh	r3, [r7, #8]
 8001db2:	81bb      	strh	r3, [r7, #12]
 8001db4:	2104      	movs	r1, #4
 8001db6:	6878      	ldr	r0, [r7, #4]
 8001db8:	f000 fc52 	bl	8002660 <I2C_Disable_IRQ>
 8001dbc:	687b      	ldr	r3, [r7, #4]
 8001dbe:	2200      	movs	r2, #0
 8001dc0:	f883 2040 	strb.w	r2, [r3, #64]	; 0x40
 8001dc4:	89ba      	ldrh	r2, [r7, #12]
 8001dc6:	7bfb      	ldrb	r3, [r7, #15]
 8001dc8:	4619      	mov	r1, r3
 8001dca:	6878      	ldr	r0, [r7, #4]
 8001dcc:	f7ff fe67 	bl	8001a9e <HAL_I2C_AddrCallback>
 8001dd0:	e016      	b.n	8001e00 <I2C_ITAddrCplt+0xfc>
 8001dd2:	2104      	movs	r1, #4
 8001dd4:	6878      	ldr	r0, [r7, #4]
 8001dd6:	f000 fc43 	bl	8002660 <I2C_Disable_IRQ>
 8001dda:	687b      	ldr	r3, [r7, #4]
 8001ddc:	2200      	movs	r2, #0
 8001dde:	f883 2040 	strb.w	r2, [r3, #64]	; 0x40
 8001de2:	89ba      	ldrh	r2, [r7, #12]
 8001de4:	7bfb      	ldrb	r3, [r7, #15]
 8001de6:	4619      	mov	r1, r3
 8001de8:	6878      	ldr	r0, [r7, #4]
 8001dea:	f7ff fe58 	bl	8001a9e <HAL_I2C_AddrCallback>
 8001dee:	e007      	b.n	8001e00 <I2C_ITAddrCplt+0xfc>
 8001df0:	687b      	ldr	r3, [r7, #4]
 8001df2:	681b      	ldr	r3, [r3, #0]
 8001df4:	2208      	movs	r2, #8
 8001df6:	61da      	str	r2, [r3, #28]
 8001df8:	687b      	ldr	r3, [r7, #4]
 8001dfa:	2200      	movs	r2, #0
 8001dfc:	f883 2040 	strb.w	r2, [r3, #64]	; 0x40
 8001e00:	bf00      	nop
 8001e02:	3710      	adds	r7, #16
 8001e04:	46bd      	mov	sp, r7
 8001e06:	bd80      	pop	{r7, pc}

08001e08 <I2C_ITSlaveSeqCplt>:
 8001e08:	b580      	push	{r7, lr}
 8001e0a:	b082      	sub	sp, #8
 8001e0c:	af00      	add	r7, sp, #0
 8001e0e:	6078      	str	r0, [r7, #4]
 8001e10:	687b      	ldr	r3, [r7, #4]
 8001e12:	2200      	movs	r2, #0
 8001e14:	f883 2042 	strb.w	r2, [r3, #66]	; 0x42
 8001e18:	687b      	ldr	r3, [r7, #4]
 8001e1a:	f893 3041 	ldrb.w	r3, [r3, #65]	; 0x41
 8001e1e:	b2db      	uxtb	r3, r3
 8001e20:	2b29      	cmp	r3, #41	; 0x29
 8001e22:	d112      	bne.n	8001e4a <I2C_ITSlaveSeqCplt+0x42>
 8001e24:	687b      	ldr	r3, [r7, #4]
 8001e26:	2228      	movs	r2, #40	; 0x28
 8001e28:	f883 2041 	strb.w	r2, [r3, #65]	; 0x41
 8001e2c:	687b      	ldr	r3, [r7, #4]
 8001e2e:	2221      	movs	r2, #33	; 0x21
 8001e30:	631a      	str	r2, [r3, #48]	; 0x30
 8001e32:	2101      	movs	r1, #1
 8001e34:	6878      	ldr	r0, [r7, #4]
 8001e36:	f000 fc13 	bl	8002660 <I2C_Disable_IRQ>
 8001e3a:	687b      	ldr	r3, [r7, #4]
 8001e3c:	2200      	movs	r2, #0
 8001e3e:	f883 2040 	strb.w	r2, [r3, #64]	; 0x40
 8001e42:	6878      	ldr	r0, [r7, #4]
 8001e44:	f7ff fe17 	bl	8001a76 <HAL_I2C_SlaveTxCpltCallback>
 8001e48:	e017      	b.n	8001e7a <I2C_ITSlaveSeqCplt+0x72>
 8001e4a:	687b      	ldr	r3, [r7, #4]
 8001e4c:	f893 3041 	ldrb.w	r3, [r3, #65]	; 0x41
 8001e50:	b2db      	uxtb	r3, r3
 8001e52:	2b2a      	cmp	r3, #42	; 0x2a
 8001e54:	d111      	bne.n	8001e7a <I2C_ITSlaveSeqCplt+0x72>
 8001e56:	687b      	ldr	r3, [r7, #4]
 8001e58:	2228      	movs	r2, #40	; 0x28
 8001e5a:	f883 2041 	strb.w	r2, [r3, #65]	; 0x41
 8001e5e:	687b      	ldr	r3, [r7, #4]
 8001e60:	2222      	movs	r2, #34	; 0x22
 8001e62:	631a      	str	r2, [r3, #48]	; 0x30
 8001e64:	2102      	movs	r1, #2
 8001e66:	6878      	ldr	r0, [r7, #4]
 8001e68:	f000 fbfa 	bl	8002660 <I2C_Disable_IRQ>
 8001e6c:	687b      	ldr	r3, [r7, #4]
 8001e6e:	2200      	movs	r2, #0
 8001e70:	f883 2040 	strb.w	r2, [r3, #64]	; 0x40
 8001e74:	6878      	ldr	r0, [r7, #4]
 8001e76:	f7ff fe08 	bl	8001a8a <HAL_I2C_SlaveRxCpltCallback>
 8001e7a:	bf00      	nop
 8001e7c:	3708      	adds	r7, #8
 8001e7e:	46bd      	mov	sp, r7
 8001e80:	bd80      	pop	{r7, pc}
	...

08001e84 <I2C_ITSlaveCplt>:
 8001e84:	b580      	push	{r7, lr}
 8001e86:	b084      	sub	sp, #16
 8001e88:	af00      	add	r7, sp, #0
 8001e8a:	6078      	str	r0, [r7, #4]
 8001e8c:	6039      	str	r1, [r7, #0]
 8001e8e:	687b      	ldr	r3, [r7, #4]
 8001e90:	681b      	ldr	r3, [r3, #0]
 8001e92:	681b      	ldr	r3, [r3, #0]
 8001e94:	60bb      	str	r3, [r7, #8]
 8001e96:	683b      	ldr	r3, [r7, #0]
 8001e98:	60fb      	str	r3, [r7, #12]
 8001e9a:	687b      	ldr	r3, [r7, #4]
 8001e9c:	681b      	ldr	r3, [r3, #0]
 8001e9e:	2220      	movs	r2, #32
 8001ea0:	61da      	str	r2, [r3, #28]
 8001ea2:	2107      	movs	r1, #7
 8001ea4:	6878      	ldr	r0, [r7, #4]
 8001ea6:	f000 fbdb 	bl	8002660 <I2C_Disable_IRQ>
 8001eaa:	687b      	ldr	r3, [r7, #4]
 8001eac:	681b      	ldr	r3, [r3, #0]
 8001eae:	685a      	ldr	r2, [r3, #4]
 8001eb0:	687b      	ldr	r3, [r7, #4]
 8001eb2:	681b      	ldr	r3, [r3, #0]
 8001eb4:	f442 4200 	orr.w	r2, r2, #32768	; 0x8000
 8001eb8:	605a      	str	r2, [r3, #4]
 8001eba:	687b      	ldr	r3, [r7, #4]
 8001ebc:	681b      	ldr	r3, [r3, #0]
 8001ebe:	6859      	ldr	r1, [r3, #4]
 8001ec0:	687b      	ldr	r3, [r7, #4]
 8001ec2:	681a      	ldr	r2, [r3, #0]
 8001ec4:	4b58      	ldr	r3, [pc, #352]	; (8002028 <I2C_ITSlaveCplt+0x1a4>)
 8001ec6:	400b      	ands	r3, r1
 8001ec8:	6053      	str	r3, [r2, #4]
 8001eca:	6878      	ldr	r0, [r7, #4]
 8001ecc:	f000 f9c4 	bl	8002258 <I2C_Flush_TXDR>
 8001ed0:	68bb      	ldr	r3, [r7, #8]
 8001ed2:	0b9b      	lsrs	r3, r3, #14
 8001ed4:	f003 0301 	and.w	r3, r3, #1
 8001ed8:	2b00      	cmp	r3, #0
 8001eda:	d00b      	beq.n	8001ef4 <I2C_ITSlaveCplt+0x70>
 8001edc:	687b      	ldr	r3, [r7, #4]
 8001ede:	6b9b      	ldr	r3, [r3, #56]	; 0x38
 8001ee0:	2b00      	cmp	r3, #0
 8001ee2:	d018      	beq.n	8001f16 <I2C_ITSlaveCplt+0x92>
 8001ee4:	687b      	ldr	r3, [r7, #4]
 8001ee6:	6b9b      	ldr	r3, [r3, #56]	; 0x38
 8001ee8:	681b      	ldr	r3, [r3, #0]
 8001eea:	685b      	ldr	r3, [r3, #4]
 8001eec:	b29a      	uxth	r2, r3
 8001eee:	687b      	ldr	r3, [r7, #4]
 8001ef0:	855a      	strh	r2, [r3, #42]	; 0x2a
 8001ef2:	e010      	b.n	8001f16 <I2C_ITSlaveCplt+0x92>
 8001ef4:	68bb      	ldr	r3, [r7, #8]
 8001ef6:	0bdb      	lsrs	r3, r3, #15
 8001ef8:	f003 0301 	and.w	r3, r3, #1
 8001efc:	2b00      	cmp	r3, #0
 8001efe:	d00a      	beq.n	8001f16 <I2C_ITSlaveCplt+0x92>
 8001f00:	687b      	ldr	r3, [r7, #4]
 8001f02:	6bdb      	ldr	r3, [r3, #60]	; 0x3c
 8001f04:	2b00      	cmp	r3, #0
 8001f06:	d006      	beq.n	8001f16 <I2C_ITSlaveCplt+0x92>
 8001f08:	687b      	ldr	r3, [r7, #4]
 8001f0a:	6bdb      	ldr	r3, [r3, #60]	; 0x3c
 8001f0c:	681b      	ldr	r3, [r3, #0]
 8001f0e:	685b      	ldr	r3, [r3, #4]
 8001f10:	b29a      	uxth	r2, r3
 8001f12:	687b      	ldr	r3, [r7, #4]
 8001f14:	855a      	strh	r2, [r3, #42]	; 0x2a
 8001f16:	68fb      	ldr	r3, [r7, #12]
 8001f18:	089b      	lsrs	r3, r3, #2
 8001f1a:	f003 0301 	and.w	r3, r3, #1
 8001f1e:	2b00      	cmp	r3, #0
 8001f20:	d020      	beq.n	8001f64 <I2C_ITSlaveCplt+0xe0>
 8001f22:	68fb      	ldr	r3, [r7, #12]
 8001f24:	f023 0304 	bic.w	r3, r3, #4
 8001f28:	60fb      	str	r3, [r7, #12]
 8001f2a:	687b      	ldr	r3, [r7, #4]
 8001f2c:	681b      	ldr	r3, [r3, #0]
 8001f2e:	6a5a      	ldr	r2, [r3, #36]	; 0x24
 8001f30:	687b      	ldr	r3, [r7, #4]
 8001f32:	6a5b      	ldr	r3, [r3, #36]	; 0x24
 8001f34:	b2d2      	uxtb	r2, r2
 8001f36:	701a      	strb	r2, [r3, #0]
 8001f38:	687b      	ldr	r3, [r7, #4]
 8001f3a:	6a5b      	ldr	r3, [r3, #36]	; 0x24
 8001f3c:	1c5a      	adds	r2, r3, #1
 8001f3e:	687b      	ldr	r3, [r7, #4]
 8001f40:	625a      	str	r2, [r3, #36]	; 0x24
 8001f42:	687b      	ldr	r3, [r7, #4]
 8001f44:	8d1b      	ldrh	r3, [r3, #40]	; 0x28
 8001f46:	2b00      	cmp	r3, #0
 8001f48:	d00c      	beq.n	8001f64 <I2C_ITSlaveCplt+0xe0>
 8001f4a:	687b      	ldr	r3, [r7, #4]
 8001f4c:	8d1b      	ldrh	r3, [r3, #40]	; 0x28
 8001f4e:	3b01      	subs	r3, #1
 8001f50:	b29a      	uxth	r2, r3
 8001f52:	687b      	ldr	r3, [r7, #4]
 8001f54:	851a      	strh	r2, [r3, #40]	; 0x28
 8001f56:	687b      	ldr	r3, [r7, #4]
 8001f58:	8d5b      	ldrh	r3, [r3, #42]	; 0x2a
 8001f5a:	b29b      	uxth	r3, r3
 8001f5c:	3b01      	subs	r3, #1
 8001f5e:	b29a      	uxth	r2, r3
 8001f60:	687b      	ldr	r3, [r7, #4]
 8001f62:	855a      	strh	r2, [r3, #42]	; 0x2a
 8001f64:	687b      	ldr	r3, [r7, #4]
 8001f66:	8d5b      	ldrh	r3, [r3, #42]	; 0x2a
 8001f68:	b29b      	uxth	r3, r3
 8001f6a:	2b00      	cmp	r3, #0
 8001f6c:	d005      	beq.n	8001f7a <I2C_ITSlaveCplt+0xf6>
 8001f6e:	687b      	ldr	r3, [r7, #4]
 8001f70:	6c5b      	ldr	r3, [r3, #68]	; 0x44
 8001f72:	f043 0204 	orr.w	r2, r3, #4
 8001f76:	687b      	ldr	r3, [r7, #4]
 8001f78:	645a      	str	r2, [r3, #68]	; 0x44
 8001f7a:	687b      	ldr	r3, [r7, #4]
 8001f7c:	2200      	movs	r2, #0
 8001f7e:	631a      	str	r2, [r3, #48]	; 0x30
 8001f80:	687b      	ldr	r3, [r7, #4]
 8001f82:	2200      	movs	r2, #0
 8001f84:	f883 2042 	strb.w	r2, [r3, #66]	; 0x42
 8001f88:	687b      	ldr	r3, [r7, #4]
 8001f8a:	2200      	movs	r2, #0
 8001f8c:	635a      	str	r2, [r3, #52]	; 0x34
 8001f8e:	687b      	ldr	r3, [r7, #4]
 8001f90:	6c5b      	ldr	r3, [r3, #68]	; 0x44
 8001f92:	2b00      	cmp	r3, #0
 8001f94:	d010      	beq.n	8001fb8 <I2C_ITSlaveCplt+0x134>
 8001f96:	687b      	ldr	r3, [r7, #4]
 8001f98:	6c5b      	ldr	r3, [r3, #68]	; 0x44
 8001f9a:	4619      	mov	r1, r3
 8001f9c:	6878      	ldr	r0, [r7, #4]
 8001f9e:	f000 f89b 	bl	80020d8 <I2C_ITError>
 8001fa2:	687b      	ldr	r3, [r7, #4]
 8001fa4:	f893 3041 	ldrb.w	r3, [r3, #65]	; 0x41
 8001fa8:	b2db      	uxtb	r3, r3
 8001faa:	2b28      	cmp	r3, #40	; 0x28
 8001fac:	d138      	bne.n	8002020 <I2C_ITSlaveCplt+0x19c>
 8001fae:	68f9      	ldr	r1, [r7, #12]
 8001fb0:	6878      	ldr	r0, [r7, #4]
 8001fb2:	f000 f83d 	bl	8002030 <I2C_ITListenCplt>
 8001fb6:	e033      	b.n	8002020 <I2C_ITSlaveCplt+0x19c>
 8001fb8:	687b      	ldr	r3, [r7, #4]
 8001fba:	6adb      	ldr	r3, [r3, #44]	; 0x2c
 8001fbc:	f513 3f80 	cmn.w	r3, #65536	; 0x10000
 8001fc0:	d011      	beq.n	8001fe6 <I2C_ITSlaveCplt+0x162>
 8001fc2:	6878      	ldr	r0, [r7, #4]
 8001fc4:	f7ff ff20 	bl	8001e08 <I2C_ITSlaveSeqCplt>
 8001fc8:	687b      	ldr	r3, [r7, #4]
 8001fca:	4a18      	ldr	r2, [pc, #96]	; (800202c <I2C_ITSlaveCplt+0x1a8>)
 8001fcc:	62da      	str	r2, [r3, #44]	; 0x2c
 8001fce:	687b      	ldr	r3, [r7, #4]
 8001fd0:	2220      	movs	r2, #32
 8001fd2:	f883 2041 	strb.w	r2, [r3, #65]	; 0x41
 8001fd6:	687b      	ldr	r3, [r7, #4]
 8001fd8:	2200      	movs	r2, #0
 8001fda:	f883 2040 	strb.w	r2, [r3, #64]	; 0x40
 8001fde:	6878      	ldr	r0, [r7, #4]
 8001fe0:	f7ff fd6b 	bl	8001aba <HAL_I2C_ListenCpltCallback>
 8001fe4:	e01c      	b.n	8002020 <I2C_ITSlaveCplt+0x19c>
 8001fe6:	687b      	ldr	r3, [r7, #4]
 8001fe8:	f893 3041 	ldrb.w	r3, [r3, #65]	; 0x41
 8001fec:	b2db      	uxtb	r3, r3
 8001fee:	2b22      	cmp	r3, #34	; 0x22
 8001ff0:	d10b      	bne.n	800200a <I2C_ITSlaveCplt+0x186>
 8001ff2:	687b      	ldr	r3, [r7, #4]
 8001ff4:	2220      	movs	r2, #32
 8001ff6:	f883 2041 	strb.w	r2, [r3, #65]	; 0x41
 8001ffa:	687b      	ldr	r3, [r7, #4]
 8001ffc:	2200      	movs	r2, #0
 8001ffe:	f883 2040 	strb.w	r2, [r3, #64]	; 0x40
 8002002:	6878      	ldr	r0, [r7, #4]
 8002004:	f7ff fd41 	bl	8001a8a <HAL_I2C_SlaveRxCpltCallback>
 8002008:	e00a      	b.n	8002020 <I2C_ITSlaveCplt+0x19c>
 800200a:	687b      	ldr	r3, [r7, #4]
 800200c:	2220      	movs	r2, #32
 800200e:	f883 2041 	strb.w	r2, [r3, #65]	; 0x41
 8002012:	687b      	ldr	r3, [r7, #4]
 8002014:	2200      	movs	r2, #0
 8002016:	f883 2040 	strb.w	r2, [r3, #64]	; 0x40
 800201a:	6878      	ldr	r0, [r7, #4]
 800201c:	f7ff fd2b 	bl	8001a76 <HAL_I2C_SlaveTxCpltCallback>
 8002020:	bf00      	nop
 8002022:	3710      	adds	r7, #16
 8002024:	46bd      	mov	sp, r7
 8002026:	bd80      	pop	{r7, pc}
 8002028:	fe00e800 	.word	0xfe00e800
 800202c:	ffff0000 	.word	0xffff0000

08002030 <I2C_ITListenCplt>:
 8002030:	b580      	push	{r7, lr}
 8002032:	b082      	sub	sp, #8
 8002034:	af00      	add	r7, sp, #0
 8002036:	6078      	str	r0, [r7, #4]
 8002038:	6039      	str	r1, [r7, #0]
 800203a:	687b      	ldr	r3, [r7, #4]
 800203c:	4a25      	ldr	r2, [pc, #148]	; (80020d4 <I2C_ITListenCplt+0xa4>)
 800203e:	62da      	str	r2, [r3, #44]	; 0x2c
 8002040:	687b      	ldr	r3, [r7, #4]
 8002042:	2200      	movs	r2, #0
 8002044:	631a      	str	r2, [r3, #48]	; 0x30
 8002046:	687b      	ldr	r3, [r7, #4]
 8002048:	2220      	movs	r2, #32
 800204a:	f883 2041 	strb.w	r2, [r3, #65]	; 0x41
 800204e:	687b      	ldr	r3, [r7, #4]
 8002050:	2200      	movs	r2, #0
 8002052:	f883 2042 	strb.w	r2, [r3, #66]	; 0x42
 8002056:	687b      	ldr	r3, [r7, #4]
 8002058:	2200      	movs	r2, #0
 800205a:	635a      	str	r2, [r3, #52]	; 0x34
 800205c:	683b      	ldr	r3, [r7, #0]
 800205e:	089b      	lsrs	r3, r3, #2
 8002060:	f003 0301 	and.w	r3, r3, #1
 8002064:	2b00      	cmp	r3, #0
 8002066:	d022      	beq.n	80020ae <I2C_ITListenCplt+0x7e>
 8002068:	687b      	ldr	r3, [r7, #4]
 800206a:	681b      	ldr	r3, [r3, #0]
 800206c:	6a5a      	ldr	r2, [r3, #36]	; 0x24
 800206e:	687b      	ldr	r3, [r7, #4]
 8002070:	6a5b      	ldr	r3, [r3, #36]	; 0x24
 8002072:	b2d2      	uxtb	r2, r2
 8002074:	701a      	strb	r2, [r3, #0]
 8002076:	687b      	ldr	r3, [r7, #4]
 8002078:	6a5b      	ldr	r3, [r3, #36]	; 0x24
 800207a:	1c5a      	adds	r2, r3, #1
 800207c:	687b      	ldr	r3, [r7, #4]
 800207e:	625a      	str	r2, [r3, #36]	; 0x24
 8002080:	687b      	ldr	r3, [r7, #4]
 8002082:	8d1b      	ldrh	r3, [r3, #40]	; 0x28
 8002084:	2b00      	cmp	r3, #0
 8002086:	d012      	beq.n	80020ae <I2C_ITListenCplt+0x7e>
 8002088:	687b      	ldr	r3, [r7, #4]
 800208a:	8d1b      	ldrh	r3, [r3, #40]	; 0x28
 800208c:	3b01      	subs	r3, #1
 800208e:	b29a      	uxth	r2, r3
 8002090:	687b      	ldr	r3, [r7, #4]
 8002092:	851a      	strh	r2, [r3, #40]	; 0x28
 8002094:	687b      	ldr	r3, [r7, #4]
 8002096:	8d5b      	ldrh	r3, [r3, #42]	; 0x2a
 8002098:	b29b      	uxth	r3, r3
 800209a:	3b01      	subs	r3, #1
 800209c:	b29a      	uxth	r2, r3
 800209e:	687b      	ldr	r3, [r7, #4]
 80020a0:	855a      	strh	r2, [r3, #42]	; 0x2a
 80020a2:	687b      	ldr	r3, [r7, #4]
 80020a4:	6c5b      	ldr	r3, [r3, #68]	; 0x44
 80020a6:	f043 0204 	orr.w	r2, r3, #4
 80020aa:	687b      	ldr	r3, [r7, #4]
 80020ac:	645a      	str	r2, [r3, #68]	; 0x44
 80020ae:	2107      	movs	r1, #7
 80020b0:	6878      	ldr	r0, [r7, #4]
 80020b2:	f000 fad5 	bl	8002660 <I2C_Disable_IRQ>
 80020b6:	687b      	ldr	r3, [r7, #4]
 80020b8:	681b      	ldr	r3, [r3, #0]
 80020ba:	2210      	movs	r2, #16
 80020bc:	61da      	str	r2, [r3, #28]
 80020be:	687b      	ldr	r3, [r7, #4]
 80020c0:	2200      	movs	r2, #0
 80020c2:	f883 2040 	strb.w	r2, [r3, #64]	; 0x40
 80020c6:	6878      	ldr	r0, [r7, #4]
 80020c8:	f7ff fcf7 	bl	8001aba <HAL_I2C_ListenCpltCallback>
 80020cc:	bf00      	nop
 80020ce:	3708      	adds	r7, #8
 80020d0:	46bd      	mov	sp, r7
 80020d2:	bd80      	pop	{r7, pc}
 80020d4:	ffff0000 	.word	0xffff0000

080020d8 <I2C_ITError>:
 80020d8:	b580      	push	{r7, lr}
 80020da:	b084      	sub	sp, #16
 80020dc:	af00      	add	r7, sp, #0
 80020de:	6078      	str	r0, [r7, #4]
 80020e0:	6039      	str	r1, [r7, #0]
 80020e2:	687b      	ldr	r3, [r7, #4]
 80020e4:	f893 3041 	ldrb.w	r3, [r3, #65]	; 0x41
 80020e8:	73fb      	strb	r3, [r7, #15]
 80020ea:	687b      	ldr	r3, [r7, #4]
 80020ec:	2200      	movs	r2, #0
 80020ee:	f883 2042 	strb.w	r2, [r3, #66]	; 0x42
 80020f2:	687b      	ldr	r3, [r7, #4]
 80020f4:	4a55      	ldr	r2, [pc, #340]	; (800224c <I2C_ITError+0x174>)
 80020f6:	62da      	str	r2, [r3, #44]	; 0x2c
 80020f8:	687b      	ldr	r3, [r7, #4]
 80020fa:	2200      	movs	r2, #0
 80020fc:	855a      	strh	r2, [r3, #42]	; 0x2a
 80020fe:	687b      	ldr	r3, [r7, #4]
 8002100:	6c5a      	ldr	r2, [r3, #68]	; 0x44
 8002102:	683b      	ldr	r3, [r7, #0]
 8002104:	431a      	orrs	r2, r3
 8002106:	687b      	ldr	r3, [r7, #4]
 8002108:	645a      	str	r2, [r3, #68]	; 0x44
 800210a:	7bfb      	ldrb	r3, [r7, #15]
 800210c:	2b28      	cmp	r3, #40	; 0x28
 800210e:	d005      	beq.n	800211c <I2C_ITError+0x44>
 8002110:	7bfb      	ldrb	r3, [r7, #15]
 8002112:	2b29      	cmp	r3, #41	; 0x29
 8002114:	d002      	beq.n	800211c <I2C_ITError+0x44>
 8002116:	7bfb      	ldrb	r3, [r7, #15]
 8002118:	2b2a      	cmp	r3, #42	; 0x2a
 800211a:	d10e      	bne.n	800213a <I2C_ITError+0x62>
 800211c:	2103      	movs	r1, #3
 800211e:	6878      	ldr	r0, [r7, #4]
 8002120:	f000 fa9e 	bl	8002660 <I2C_Disable_IRQ>
 8002124:	687b      	ldr	r3, [r7, #4]
 8002126:	2228      	movs	r2, #40	; 0x28
 8002128:	f883 2041 	strb.w	r2, [r3, #65]	; 0x41
 800212c:	687b      	ldr	r3, [r7, #4]
 800212e:	2200      	movs	r2, #0
 8002130:	631a      	str	r2, [r3, #48]	; 0x30
 8002132:	687b      	ldr	r3, [r7, #4]
 8002134:	4a46      	ldr	r2, [pc, #280]	; (8002250 <I2C_ITError+0x178>)
 8002136:	635a      	str	r2, [r3, #52]	; 0x34
 8002138:	e013      	b.n	8002162 <I2C_ITError+0x8a>
 800213a:	2107      	movs	r1, #7
 800213c:	6878      	ldr	r0, [r7, #4]
 800213e:	f000 fa8f 	bl	8002660 <I2C_Disable_IRQ>
 8002142:	687b      	ldr	r3, [r7, #4]
 8002144:	f893 3041 	ldrb.w	r3, [r3, #65]	; 0x41
 8002148:	b2db      	uxtb	r3, r3
 800214a:	2b60      	cmp	r3, #96	; 0x60
 800214c:	d003      	beq.n	8002156 <I2C_ITError+0x7e>
 800214e:	687b      	ldr	r3, [r7, #4]
 8002150:	2220      	movs	r2, #32
 8002152:	f883 2041 	strb.w	r2, [r3, #65]	; 0x41
 8002156:	687b      	ldr	r3, [r7, #4]
 8002158:	2200      	movs	r2, #0
 800215a:	631a      	str	r2, [r3, #48]	; 0x30
 800215c:	687b      	ldr	r3, [r7, #4]
 800215e:	2200      	movs	r2, #0
 8002160:	635a      	str	r2, [r3, #52]	; 0x34
 8002162:	687b      	ldr	r3, [r7, #4]
 8002164:	681b      	ldr	r3, [r3, #0]
 8002166:	681b      	ldr	r3, [r3, #0]
 8002168:	f403 4380 	and.w	r3, r3, #16384	; 0x4000
 800216c:	f5b3 4f80 	cmp.w	r3, #16384	; 0x4000
 8002170:	d123      	bne.n	80021ba <I2C_ITError+0xe2>
 8002172:	687b      	ldr	r3, [r7, #4]
 8002174:	681b      	ldr	r3, [r3, #0]
 8002176:	681a      	ldr	r2, [r3, #0]
 8002178:	687b      	ldr	r3, [r7, #4]
 800217a:	681b      	ldr	r3, [r3, #0]
 800217c:	f422 4280 	bic.w	r2, r2, #16384	; 0x4000
 8002180:	601a      	str	r2, [r3, #0]
 8002182:	687b      	ldr	r3, [r7, #4]
 8002184:	6b9b      	ldr	r3, [r3, #56]	; 0x38
 8002186:	2b00      	cmp	r3, #0
 8002188:	d05c      	beq.n	8002244 <I2C_ITError+0x16c>
 800218a:	687b      	ldr	r3, [r7, #4]
 800218c:	6b9b      	ldr	r3, [r3, #56]	; 0x38
 800218e:	4a31      	ldr	r2, [pc, #196]	; (8002254 <I2C_ITError+0x17c>)
 8002190:	651a      	str	r2, [r3, #80]	; 0x50
 8002192:	687b      	ldr	r3, [r7, #4]
 8002194:	2200      	movs	r2, #0
 8002196:	f883 2040 	strb.w	r2, [r3, #64]	; 0x40
 800219a:	687b      	ldr	r3, [r7, #4]
 800219c:	6b9b      	ldr	r3, [r3, #56]	; 0x38
 800219e:	4618      	mov	r0, r3
 80021a0:	f7fe ff8d 	bl	80010be <HAL_DMA_Abort_IT>
 80021a4:	4603      	mov	r3, r0
 80021a6:	2b00      	cmp	r3, #0
 80021a8:	d04c      	beq.n	8002244 <I2C_ITError+0x16c>
 80021aa:	687b      	ldr	r3, [r7, #4]
 80021ac:	6b9b      	ldr	r3, [r3, #56]	; 0x38
 80021ae:	6d1b      	ldr	r3, [r3, #80]	; 0x50
 80021b0:	687a      	ldr	r2, [r7, #4]
 80021b2:	6b92      	ldr	r2, [r2, #56]	; 0x38
 80021b4:	4610      	mov	r0, r2
 80021b6:	4798      	blx	r3
 80021b8:	e044      	b.n	8002244 <I2C_ITError+0x16c>
 80021ba:	687b      	ldr	r3, [r7, #4]
 80021bc:	681b      	ldr	r3, [r3, #0]
 80021be:	681b      	ldr	r3, [r3, #0]
 80021c0:	f403 4300 	and.w	r3, r3, #32768	; 0x8000
 80021c4:	f5b3 4f00 	cmp.w	r3, #32768	; 0x8000
 80021c8:	d123      	bne.n	8002212 <I2C_ITError+0x13a>
 80021ca:	687b      	ldr	r3, [r7, #4]
 80021cc:	681b      	ldr	r3, [r3, #0]
 80021ce:	681a      	ldr	r2, [r3, #0]
 80021d0:	687b      	ldr	r3, [r7, #4]
 80021d2:	681b      	ldr	r3, [r3, #0]
 80021d4:	f422 4200 	bic.w	r2, r2, #32768	; 0x8000
 80021d8:	601a      	str	r2, [r3, #0]
 80021da:	687b      	ldr	r3, [r7, #4]
 80021dc:	6bdb      	ldr	r3, [r3, #60]	; 0x3c
 80021de:	2b00      	cmp	r3, #0
 80021e0:	d030      	beq.n	8002244 <I2C_ITError+0x16c>
 80021e2:	687b      	ldr	r3, [r7, #4]
 80021e4:	6bdb      	ldr	r3, [r3, #60]	; 0x3c
 80021e6:	4a1b      	ldr	r2, [pc, #108]	; (8002254 <I2C_ITError+0x17c>)
 80021e8:	651a      	str	r2, [r3, #80]	; 0x50
 80021ea:	687b      	ldr	r3, [r7, #4]
 80021ec:	2200      	movs	r2, #0
 80021ee:	f883 2040 	strb.w	r2, [r3, #64]	; 0x40
 80021f2:	687b      	ldr	r3, [r7, #4]
 80021f4:	6bdb      	ldr	r3, [r3, #60]	; 0x3c
 80021f6:	4618      	mov	r0, r3
 80021f8:	f7fe ff61 	bl	80010be <HAL_DMA_Abort_IT>
 80021fc:	4603      	mov	r3, r0
 80021fe:	2b00      	cmp	r3, #0
 8002200:	d020      	beq.n	8002244 <I2C_ITError+0x16c>
 8002202:	687b      	ldr	r3, [r7, #4]
 8002204:	6bdb      	ldr	r3, [r3, #60]	; 0x3c
 8002206:	6d1b      	ldr	r3, [r3, #80]	; 0x50
 8002208:	687a      	ldr	r2, [r7, #4]
 800220a:	6bd2      	ldr	r2, [r2, #60]	; 0x3c
 800220c:	4610      	mov	r0, r2
 800220e:	4798      	blx	r3
 8002210:	e018      	b.n	8002244 <I2C_ITError+0x16c>
 8002212:	687b      	ldr	r3, [r7, #4]
 8002214:	f893 3041 	ldrb.w	r3, [r3, #65]	; 0x41
 8002218:	b2db      	uxtb	r3, r3
 800221a:	2b60      	cmp	r3, #96	; 0x60
 800221c:	d10b      	bne.n	8002236 <I2C_ITError+0x15e>
 800221e:	687b      	ldr	r3, [r7, #4]
 8002220:	2220      	movs	r2, #32
 8002222:	f883 2041 	strb.w	r2, [r3, #65]	; 0x41
 8002226:	687b      	ldr	r3, [r7, #4]
 8002228:	2200      	movs	r2, #0
 800222a:	f883 2040 	strb.w	r2, [r3, #64]	; 0x40
 800222e:	6878      	ldr	r0, [r7, #4]
 8002230:	f7ff fc57 	bl	8001ae2 <HAL_I2C_AbortCpltCallback>
 8002234:	e006      	b.n	8002244 <I2C_ITError+0x16c>
 8002236:	687b      	ldr	r3, [r7, #4]
 8002238:	2200      	movs	r2, #0
 800223a:	f883 2040 	strb.w	r2, [r3, #64]	; 0x40
 800223e:	6878      	ldr	r0, [r7, #4]
 8002240:	f7ff fc45 	bl	8001ace <HAL_I2C_ErrorCallback>
 8002244:	bf00      	nop
 8002246:	3710      	adds	r7, #16
 8002248:	46bd      	mov	sp, r7
 800224a:	bd80      	pop	{r7, pc}
 800224c:	ffff0000 	.word	0xffff0000
 8002250:	08001af7 	.word	0x08001af7
 8002254:	080022a1 	.word	0x080022a1

08002258 <I2C_Flush_TXDR>:
 8002258:	b480      	push	{r7}
 800225a:	b083      	sub	sp, #12
 800225c:	af00      	add	r7, sp, #0
 800225e:	6078      	str	r0, [r7, #4]
 8002260:	687b      	ldr	r3, [r7, #4]
 8002262:	681b      	ldr	r3, [r3, #0]
 8002264:	699b      	ldr	r3, [r3, #24]
 8002266:	f003 0302 	and.w	r3, r3, #2
 800226a:	2b02      	cmp	r3, #2
 800226c:	d103      	bne.n	8002276 <I2C_Flush_TXDR+0x1e>
 800226e:	687b      	ldr	r3, [r7, #4]
 8002270:	681b      	ldr	r3, [r3, #0]
 8002272:	2200      	movs	r2, #0
 8002274:	629a      	str	r2, [r3, #40]	; 0x28
 8002276:	687b      	ldr	r3, [r7, #4]
 8002278:	681b      	ldr	r3, [r3, #0]
 800227a:	699b      	ldr	r3, [r3, #24]
 800227c:	f003 0301 	and.w	r3, r3, #1
 8002280:	2b01      	cmp	r3, #1
 8002282:	d007      	beq.n	8002294 <I2C_Flush_TXDR+0x3c>
 8002284:	687b      	ldr	r3, [r7, #4]
 8002286:	681b      	ldr	r3, [r3, #0]
 8002288:	699a      	ldr	r2, [r3, #24]
 800228a:	687b      	ldr	r3, [r7, #4]
 800228c:	681b      	ldr	r3, [r3, #0]
 800228e:	f042 0201 	orr.w	r2, r2, #1
 8002292:	619a      	str	r2, [r3, #24]
 8002294:	bf00      	nop
 8002296:	370c      	adds	r7, #12
 8002298:	46bd      	mov	sp, r7
 800229a:	f85d 7b04 	ldr.w	r7, [sp], #4
 800229e:	4770      	bx	lr

080022a0 <I2C_DMAAbort>:
 80022a0:	b580      	push	{r7, lr}
 80022a2:	b084      	sub	sp, #16
 80022a4:	af00      	add	r7, sp, #0
 80022a6:	6078      	str	r0, [r7, #4]
 80022a8:	687b      	ldr	r3, [r7, #4]
 80022aa:	6b9b      	ldr	r3, [r3, #56]	; 0x38
 80022ac:	60fb      	str	r3, [r7, #12]
 80022ae:	68fb      	ldr	r3, [r7, #12]
 80022b0:	6b9b      	ldr	r3, [r3, #56]	; 0x38
 80022b2:	2200      	movs	r2, #0
 80022b4:	651a      	str	r2, [r3, #80]	; 0x50
 80022b6:	68fb      	ldr	r3, [r7, #12]
 80022b8:	6bdb      	ldr	r3, [r3, #60]	; 0x3c
 80022ba:	2200      	movs	r2, #0
 80022bc:	651a      	str	r2, [r3, #80]	; 0x50
 80022be:	68fb      	ldr	r3, [r7, #12]
 80022c0:	f893 3041 	ldrb.w	r3, [r3, #65]	; 0x41
 80022c4:	b2db      	uxtb	r3, r3
 80022c6:	2b60      	cmp	r3, #96	; 0x60
 80022c8:	d107      	bne.n	80022da <I2C_DMAAbort+0x3a>
 80022ca:	68fb      	ldr	r3, [r7, #12]
 80022cc:	2220      	movs	r2, #32
 80022ce:	f883 2041 	strb.w	r2, [r3, #65]	; 0x41
 80022d2:	68f8      	ldr	r0, [r7, #12]
 80022d4:	f7ff fc05 	bl	8001ae2 <HAL_I2C_AbortCpltCallback>
 80022d8:	e002      	b.n	80022e0 <I2C_DMAAbort+0x40>
 80022da:	68f8      	ldr	r0, [r7, #12]
 80022dc:	f7ff fbf7 	bl	8001ace <HAL_I2C_ErrorCallback>
 80022e0:	bf00      	nop
 80022e2:	3710      	adds	r7, #16
 80022e4:	46bd      	mov	sp, r7
 80022e6:	bd80      	pop	{r7, pc}

080022e8 <I2C_WaitOnFlagUntilTimeout>:
 80022e8:	b580      	push	{r7, lr}
 80022ea:	b084      	sub	sp, #16
 80022ec:	af00      	add	r7, sp, #0
 80022ee:	60f8      	str	r0, [r7, #12]
 80022f0:	60b9      	str	r1, [r7, #8]
 80022f2:	603b      	str	r3, [r7, #0]
 80022f4:	4613      	mov	r3, r2
 80022f6:	71fb      	strb	r3, [r7, #7]
 80022f8:	e022      	b.n	8002340 <I2C_WaitOnFlagUntilTimeout+0x58>
 80022fa:	683b      	ldr	r3, [r7, #0]
 80022fc:	f1b3 3fff 	cmp.w	r3, #4294967295
 8002300:	d01e      	beq.n	8002340 <I2C_WaitOnFlagUntilTimeout+0x58>
 8002302:	f7fe fd9d 	bl	8000e40 <HAL_GetTick>
 8002306:	4602      	mov	r2, r0
 8002308:	69bb      	ldr	r3, [r7, #24]
 800230a:	1ad3      	subs	r3, r2, r3
 800230c:	683a      	ldr	r2, [r7, #0]
 800230e:	429a      	cmp	r2, r3
 8002310:	d302      	bcc.n	8002318 <I2C_WaitOnFlagUntilTimeout+0x30>
 8002312:	683b      	ldr	r3, [r7, #0]
 8002314:	2b00      	cmp	r3, #0
 8002316:	d113      	bne.n	8002340 <I2C_WaitOnFlagUntilTimeout+0x58>
 8002318:	68fb      	ldr	r3, [r7, #12]
 800231a:	6c5b      	ldr	r3, [r3, #68]	; 0x44
 800231c:	f043 0220 	orr.w	r2, r3, #32
 8002320:	68fb      	ldr	r3, [r7, #12]
 8002322:	645a      	str	r2, [r3, #68]	; 0x44
 8002324:	68fb      	ldr	r3, [r7, #12]
 8002326:	2220      	movs	r2, #32
 8002328:	f883 2041 	strb.w	r2, [r3, #65]	; 0x41
 800232c:	68fb      	ldr	r3, [r7, #12]
 800232e:	2200      	movs	r2, #0
 8002330:	f883 2042 	strb.w	r2, [r3, #66]	; 0x42
 8002334:	68fb      	ldr	r3, [r7, #12]
 8002336:	2200      	movs	r2, #0
 8002338:	f883 2040 	strb.w	r2, [r3, #64]	; 0x40
 800233c:	2301      	movs	r3, #1
 800233e:	e00f      	b.n	8002360 <I2C_WaitOnFlagUntilTimeout+0x78>
 8002340:	68fb      	ldr	r3, [r7, #12]
 8002342:	681b      	ldr	r3, [r3, #0]
 8002344:	699a      	ldr	r2, [r3, #24]
 8002346:	68bb      	ldr	r3, [r7, #8]
 8002348:	4013      	ands	r3, r2
 800234a:	68ba      	ldr	r2, [r7, #8]
 800234c:	429a      	cmp	r2, r3
 800234e:	bf0c      	ite	eq
 8002350:	2301      	moveq	r3, #1
 8002352:	2300      	movne	r3, #0
 8002354:	b2db      	uxtb	r3, r3
 8002356:	461a      	mov	r2, r3
 8002358:	79fb      	ldrb	r3, [r7, #7]
 800235a:	429a      	cmp	r2, r3
 800235c:	d0cd      	beq.n	80022fa <I2C_WaitOnFlagUntilTimeout+0x12>
 800235e:	2300      	movs	r3, #0
 8002360:	4618      	mov	r0, r3
 8002362:	3710      	adds	r7, #16
 8002364:	46bd      	mov	sp, r7
 8002366:	bd80      	pop	{r7, pc}

08002368 <I2C_WaitOnTXISFlagUntilTimeout>:
 8002368:	b580      	push	{r7, lr}
 800236a:	b084      	sub	sp, #16
 800236c:	af00      	add	r7, sp, #0
 800236e:	60f8      	str	r0, [r7, #12]
 8002370:	60b9      	str	r1, [r7, #8]
 8002372:	607a      	str	r2, [r7, #4]
 8002374:	e02c      	b.n	80023d0 <I2C_WaitOnTXISFlagUntilTimeout+0x68>
 8002376:	687a      	ldr	r2, [r7, #4]
 8002378:	68b9      	ldr	r1, [r7, #8]
 800237a:	68f8      	ldr	r0, [r7, #12]
 800237c:	f000 f8dc 	bl	8002538 <I2C_IsAcknowledgeFailed>
 8002380:	4603      	mov	r3, r0
 8002382:	2b00      	cmp	r3, #0
 8002384:	d001      	beq.n	800238a <I2C_WaitOnTXISFlagUntilTimeout+0x22>
 8002386:	2301      	movs	r3, #1
 8002388:	e02a      	b.n	80023e0 <I2C_WaitOnTXISFlagUntilTimeout+0x78>
 800238a:	68bb      	ldr	r3, [r7, #8]
 800238c:	f1b3 3fff 	cmp.w	r3, #4294967295
 8002390:	d01e      	beq.n	80023d0 <I2C_WaitOnTXISFlagUntilTimeout+0x68>
 8002392:	f7fe fd55 	bl	8000e40 <HAL_GetTick>
 8002396:	4602      	mov	r2, r0
 8002398:	687b      	ldr	r3, [r7, #4]
 800239a:	1ad3      	subs	r3, r2, r3
 800239c:	68ba      	ldr	r2, [r7, #8]
 800239e:	429a      	cmp	r2, r3
 80023a0:	d302      	bcc.n	80023a8 <I2C_WaitOnTXISFlagUntilTimeout+0x40>
 80023a2:	68bb      	ldr	r3, [r7, #8]
 80023a4:	2b00      	cmp	r3, #0
 80023a6:	d113      	bne.n	80023d0 <I2C_WaitOnTXISFlagUntilTimeout+0x68>
 80023a8:	68fb      	ldr	r3, [r7, #12]
 80023aa:	6c5b      	ldr	r3, [r3, #68]	; 0x44
 80023ac:	f043 0220 	orr.w	r2, r3, #32
 80023b0:	68fb      	ldr	r3, [r7, #12]
 80023b2:	645a      	str	r2, [r3, #68]	; 0x44
 80023b4:	68fb      	ldr	r3, [r7, #12]
 80023b6:	2220      	movs	r2, #32
 80023b8:	f883 2041 	strb.w	r2, [r3, #65]	; 0x41
 80023bc:	68fb      	ldr	r3, [r7, #12]
 80023be:	2200      	movs	r2, #0
 80023c0:	f883 2042 	strb.w	r2, [r3, #66]	; 0x42
 80023c4:	68fb      	ldr	r3, [r7, #12]
 80023c6:	2200      	movs	r2, #0
 80023c8:	f883 2040 	strb.w	r2, [r3, #64]	; 0x40
 80023cc:	2301      	movs	r3, #1
 80023ce:	e007      	b.n	80023e0 <I2C_WaitOnTXISFlagUntilTimeout+0x78>
 80023d0:	68fb      	ldr	r3, [r7, #12]
 80023d2:	681b      	ldr	r3, [r3, #0]
 80023d4:	699b      	ldr	r3, [r3, #24]
 80023d6:	f003 0302 	and.w	r3, r3, #2
 80023da:	2b02      	cmp	r3, #2
 80023dc:	d1cb      	bne.n	8002376 <I2C_WaitOnTXISFlagUntilTimeout+0xe>
 80023de:	2300      	movs	r3, #0
 80023e0:	4618      	mov	r0, r3
 80023e2:	3710      	adds	r7, #16
 80023e4:	46bd      	mov	sp, r7
 80023e6:	bd80      	pop	{r7, pc}

080023e8 <I2C_WaitOnSTOPFlagUntilTimeout>:
 80023e8:	b580      	push	{r7, lr}
 80023ea:	b084      	sub	sp, #16
 80023ec:	af00      	add	r7, sp, #0
 80023ee:	60f8      	str	r0, [r7, #12]
 80023f0:	60b9      	str	r1, [r7, #8]
 80023f2:	607a      	str	r2, [r7, #4]
 80023f4:	e028      	b.n	8002448 <I2C_WaitOnSTOPFlagUntilTimeout+0x60>
 80023f6:	687a      	ldr	r2, [r7, #4]
 80023f8:	68b9      	ldr	r1, [r7, #8]
 80023fa:	68f8      	ldr	r0, [r7, #12]
 80023fc:	f000 f89c 	bl	8002538 <I2C_IsAcknowledgeFailed>
 8002400:	4603      	mov	r3, r0
 8002402:	2b00      	cmp	r3, #0
 8002404:	d001      	beq.n	800240a <I2C_WaitOnSTOPFlagUntilTimeout+0x22>
 8002406:	2301      	movs	r3, #1
 8002408:	e026      	b.n	8002458 <I2C_WaitOnSTOPFlagUntilTimeout+0x70>
 800240a:	f7fe fd19 	bl	8000e40 <HAL_GetTick>
 800240e:	4602      	mov	r2, r0
 8002410:	687b      	ldr	r3, [r7, #4]
 8002412:	1ad3      	subs	r3, r2, r3
 8002414:	68ba      	ldr	r2, [r7, #8]
 8002416:	429a      	cmp	r2, r3
 8002418:	d302      	bcc.n	8002420 <I2C_WaitOnSTOPFlagUntilTimeout+0x38>
 800241a:	68bb      	ldr	r3, [r7, #8]
 800241c:	2b00      	cmp	r3, #0
 800241e:	d113      	bne.n	8002448 <I2C_WaitOnSTOPFlagUntilTimeout+0x60>
 8002420:	68fb      	ldr	r3, [r7, #12]
 8002422:	6c5b      	ldr	r3, [r3, #68]	; 0x44
 8002424:	f043 0220 	orr.w	r2, r3, #32
 8002428:	68fb      	ldr	r3, [r7, #12]
 800242a:	645a      	str	r2, [r3, #68]	; 0x44
 800242c:	68fb      	ldr	r3, [r7, #12]
 800242e:	2220      	movs	r2, #32
 8002430:	f883 2041 	strb.w	r2, [r3, #65]	; 0x41
 8002434:	68fb      	ldr	r3, [r7, #12]
 8002436:	2200      	movs	r2, #0
 8002438:	f883 2042 	strb.w	r2, [r3, #66]	; 0x42
 800243c:	68fb      	ldr	r3, [r7, #12]
 800243e:	2200      	movs	r2, #0
 8002440:	f883 2040 	strb.w	r2, [r3, #64]	; 0x40
 8002444:	2301      	movs	r3, #1
 8002446:	e007      	b.n	8002458 <I2C_WaitOnSTOPFlagUntilTimeout+0x70>
 8002448:	68fb      	ldr	r3, [r7, #12]
 800244a:	681b      	ldr	r3, [r3, #0]
 800244c:	699b      	ldr	r3, [r3, #24]
 800244e:	f003 0320 	and.w	r3, r3, #32
 8002452:	2b20      	cmp	r3, #32
 8002454:	d1cf      	bne.n	80023f6 <I2C_WaitOnSTOPFlagUntilTimeout+0xe>
 8002456:	2300      	movs	r3, #0
 8002458:	4618      	mov	r0, r3
 800245a:	3710      	adds	r7, #16
 800245c:	46bd      	mov	sp, r7
 800245e:	bd80      	pop	{r7, pc}

08002460 <I2C_WaitOnRXNEFlagUntilTimeout>:
 8002460:	b580      	push	{r7, lr}
 8002462:	b084      	sub	sp, #16
 8002464:	af00      	add	r7, sp, #0
 8002466:	60f8      	str	r0, [r7, #12]
 8002468:	60b9      	str	r1, [r7, #8]
 800246a:	607a      	str	r2, [r7, #4]
 800246c:	e055      	b.n	800251a <I2C_WaitOnRXNEFlagUntilTimeout+0xba>
 800246e:	687a      	ldr	r2, [r7, #4]
 8002470:	68b9      	ldr	r1, [r7, #8]
 8002472:	68f8      	ldr	r0, [r7, #12]
 8002474:	f000 f860 	bl	8002538 <I2C_IsAcknowledgeFailed>
 8002478:	4603      	mov	r3, r0
 800247a:	2b00      	cmp	r3, #0
 800247c:	d001      	beq.n	8002482 <I2C_WaitOnRXNEFlagUntilTimeout+0x22>
 800247e:	2301      	movs	r3, #1
 8002480:	e053      	b.n	800252a <I2C_WaitOnRXNEFlagUntilTimeout+0xca>
 8002482:	68fb      	ldr	r3, [r7, #12]
 8002484:	681b      	ldr	r3, [r3, #0]
 8002486:	699b      	ldr	r3, [r3, #24]
 8002488:	f003 0320 	and.w	r3, r3, #32
 800248c:	2b20      	cmp	r3, #32
 800248e:	d129      	bne.n	80024e4 <I2C_WaitOnRXNEFlagUntilTimeout+0x84>
 8002490:	68fb      	ldr	r3, [r7, #12]
 8002492:	681b      	ldr	r3, [r3, #0]
 8002494:	699b      	ldr	r3, [r3, #24]
 8002496:	f003 0304 	and.w	r3, r3, #4
 800249a:	2b04      	cmp	r3, #4
 800249c:	d105      	bne.n	80024aa <I2C_WaitOnRXNEFlagUntilTimeout+0x4a>
 800249e:	68fb      	ldr	r3, [r7, #12]
 80024a0:	8d1b      	ldrh	r3, [r3, #40]	; 0x28
 80024a2:	2b00      	cmp	r3, #0
 80024a4:	d001      	beq.n	80024aa <I2C_WaitOnRXNEFlagUntilTimeout+0x4a>
 80024a6:	2300      	movs	r3, #0
 80024a8:	e03f      	b.n	800252a <I2C_WaitOnRXNEFlagUntilTimeout+0xca>
 80024aa:	68fb      	ldr	r3, [r7, #12]
 80024ac:	681b      	ldr	r3, [r3, #0]
 80024ae:	2220      	movs	r2, #32
 80024b0:	61da      	str	r2, [r3, #28]
 80024b2:	68fb      	ldr	r3, [r7, #12]
 80024b4:	681b      	ldr	r3, [r3, #0]
 80024b6:	6859      	ldr	r1, [r3, #4]
 80024b8:	68fb      	ldr	r3, [r7, #12]
 80024ba:	681a      	ldr	r2, [r3, #0]
 80024bc:	4b1d      	ldr	r3, [pc, #116]	; (8002534 <I2C_WaitOnRXNEFlagUntilTimeout+0xd4>)
 80024be:	400b      	ands	r3, r1
 80024c0:	6053      	str	r3, [r2, #4]
 80024c2:	68fb      	ldr	r3, [r7, #12]
 80024c4:	2200      	movs	r2, #0
 80024c6:	645a      	str	r2, [r3, #68]	; 0x44
 80024c8:	68fb      	ldr	r3, [r7, #12]
 80024ca:	2220      	movs	r2, #32
 80024cc:	f883 2041 	strb.w	r2, [r3, #65]	; 0x41
 80024d0:	68fb      	ldr	r3, [r7, #12]
 80024d2:	2200      	movs	r2, #0
 80024d4:	f883 2042 	strb.w	r2, [r3, #66]	; 0x42
 80024d8:	68fb      	ldr	r3, [r7, #12]
 80024da:	2200      	movs	r2, #0
 80024dc:	f883 2040 	strb.w	r2, [r3, #64]	; 0x40
 80024e0:	2301      	movs	r3, #1
 80024e2:	e022      	b.n	800252a <I2C_WaitOnRXNEFlagUntilTimeout+0xca>
 80024e4:	f7fe fcac 	bl	8000e40 <HAL_GetTick>
 80024e8:	4602      	mov	r2, r0
 80024ea:	687b      	ldr	r3, [r7, #4]
 80024ec:	1ad3      	subs	r3, r2, r3
 80024ee:	68ba      	ldr	r2, [r7, #8]
 80024f0:	429a      	cmp	r2, r3
 80024f2:	d302      	bcc.n	80024fa <I2C_WaitOnRXNEFlagUntilTimeout+0x9a>
 80024f4:	68bb      	ldr	r3, [r7, #8]
 80024f6:	2b00      	cmp	r3, #0
 80024f8:	d10f      	bne.n	800251a <I2C_WaitOnRXNEFlagUntilTimeout+0xba>
 80024fa:	68fb      	ldr	r3, [r7, #12]
 80024fc:	6c5b      	ldr	r3, [r3, #68]	; 0x44
 80024fe:	f043 0220 	orr.w	r2, r3, #32
 8002502:	68fb      	ldr	r3, [r7, #12]
 8002504:	645a      	str	r2, [r3, #68]	; 0x44
 8002506:	68fb      	ldr	r3, [r7, #12]
 8002508:	2220      	movs	r2, #32
 800250a:	f883 2041 	strb.w	r2, [r3, #65]	; 0x41
 800250e:	68fb      	ldr	r3, [r7, #12]
 8002510:	2200      	movs	r2, #0
 8002512:	f883 2040 	strb.w	r2, [r3, #64]	; 0x40
 8002516:	2301      	movs	r3, #1
 8002518:	e007      	b.n	800252a <I2C_WaitOnRXNEFlagUntilTimeout+0xca>
 800251a:	68fb      	ldr	r3, [r7, #12]
 800251c:	681b      	ldr	r3, [r3, #0]
 800251e:	699b      	ldr	r3, [r3, #24]
 8002520:	f003 0304 	and.w	r3, r3, #4
 8002524:	2b04      	cmp	r3, #4
 8002526:	d1a2      	bne.n	800246e <I2C_WaitOnRXNEFlagUntilTimeout+0xe>
 8002528:	2300      	movs	r3, #0
 800252a:	4618      	mov	r0, r3
 800252c:	3710      	adds	r7, #16
 800252e:	46bd      	mov	sp, r7
 8002530:	bd80      	pop	{r7, pc}
 8002532:	bf00      	nop
 8002534:	fe00e800 	.word	0xfe00e800

08002538 <I2C_IsAcknowledgeFailed>:
 8002538:	b580      	push	{r7, lr}
 800253a:	b084      	sub	sp, #16
 800253c:	af00      	add	r7, sp, #0
 800253e:	60f8      	str	r0, [r7, #12]
 8002540:	60b9      	str	r1, [r7, #8]
 8002542:	607a      	str	r2, [r7, #4]
 8002544:	68fb      	ldr	r3, [r7, #12]
 8002546:	681b      	ldr	r3, [r3, #0]
 8002548:	699b      	ldr	r3, [r3, #24]
 800254a:	f003 0310 	and.w	r3, r3, #16
 800254e:	2b10      	cmp	r3, #16
 8002550:	d151      	bne.n	80025f6 <I2C_IsAcknowledgeFailed+0xbe>
 8002552:	e022      	b.n	800259a <I2C_IsAcknowledgeFailed+0x62>
 8002554:	68bb      	ldr	r3, [r7, #8]
 8002556:	f1b3 3fff 	cmp.w	r3, #4294967295
 800255a:	d01e      	beq.n	800259a <I2C_IsAcknowledgeFailed+0x62>
 800255c:	f7fe fc70 	bl	8000e40 <HAL_GetTick>
 8002560:	4602      	mov	r2, r0
 8002562:	687b      	ldr	r3, [r7, #4]
 8002564:	1ad3      	subs	r3, r2, r3
 8002566:	68ba      	ldr	r2, [r7, #8]
 8002568:	429a      	cmp	r2, r3
 800256a:	d302      	bcc.n	8002572 <I2C_IsAcknowledgeFailed+0x3a>
 800256c:	68bb      	ldr	r3, [r7, #8]
 800256e:	2b00      	cmp	r3, #0
 8002570:	d113      	bne.n	800259a <I2C_IsAcknowledgeFailed+0x62>
 8002572:	68fb      	ldr	r3, [r7, #12]
 8002574:	6c5b      	ldr	r3, [r3, #68]	; 0x44
 8002576:	f043 0220 	orr.w	r2, r3, #32
 800257a:	68fb      	ldr	r3, [r7, #12]
 800257c:	645a      	str	r2, [r3, #68]	; 0x44
 800257e:	68fb      	ldr	r3, [r7, #12]
 8002580:	2220      	movs	r2, #32
 8002582:	f883 2041 	strb.w	r2, [r3, #65]	; 0x41
 8002586:	68fb      	ldr	r3, [r7, #12]
 8002588:	2200      	movs	r2, #0
 800258a:	f883 2042 	strb.w	r2, [r3, #66]	; 0x42
 800258e:	68fb      	ldr	r3, [r7, #12]
 8002590:	2200      	movs	r2, #0
 8002592:	f883 2040 	strb.w	r2, [r3, #64]	; 0x40
 8002596:	2301      	movs	r3, #1
 8002598:	e02e      	b.n	80025f8 <I2C_IsAcknowledgeFailed+0xc0>
 800259a:	68fb      	ldr	r3, [r7, #12]
 800259c:	681b      	ldr	r3, [r3, #0]
 800259e:	699b      	ldr	r3, [r3, #24]
 80025a0:	f003 0320 	and.w	r3, r3, #32
 80025a4:	2b20      	cmp	r3, #32
 80025a6:	d1d5      	bne.n	8002554 <I2C_IsAcknowledgeFailed+0x1c>
 80025a8:	68fb      	ldr	r3, [r7, #12]
 80025aa:	681b      	ldr	r3, [r3, #0]
 80025ac:	2210      	movs	r2, #16
 80025ae:	61da      	str	r2, [r3, #28]
 80025b0:	68fb      	ldr	r3, [r7, #12]
 80025b2:	681b      	ldr	r3, [r3, #0]
 80025b4:	2220      	movs	r2, #32
 80025b6:	61da      	str	r2, [r3, #28]
 80025b8:	68f8      	ldr	r0, [r7, #12]
 80025ba:	f7ff fe4d 	bl	8002258 <I2C_Flush_TXDR>
 80025be:	68fb      	ldr	r3, [r7, #12]
 80025c0:	681b      	ldr	r3, [r3, #0]
 80025c2:	6859      	ldr	r1, [r3, #4]
 80025c4:	68fb      	ldr	r3, [r7, #12]
 80025c6:	681a      	ldr	r2, [r3, #0]
 80025c8:	4b0d      	ldr	r3, [pc, #52]	; (8002600 <I2C_IsAcknowledgeFailed+0xc8>)
 80025ca:	400b      	ands	r3, r1
 80025cc:	6053      	str	r3, [r2, #4]
 80025ce:	68fb      	ldr	r3, [r7, #12]
 80025d0:	6c5b      	ldr	r3, [r3, #68]	; 0x44
 80025d2:	f043 0204 	orr.w	r2, r3, #4
 80025d6:	68fb      	ldr	r3, [r7, #12]
 80025d8:	645a      	str	r2, [r3, #68]	; 0x44
 80025da:	68fb      	ldr	r3, [r7, #12]
 80025dc:	2220      	movs	r2, #32
 80025de:	f883 2041 	strb.w	r2, [r3, #65]	; 0x41
 80025e2:	68fb      	ldr	r3, [r7, #12]
 80025e4:	2200      	movs	r2, #0
 80025e6:	f883 2042 	strb.w	r2, [r3, #66]	; 0x42
 80025ea:	68fb      	ldr	r3, [r7, #12]
 80025ec:	2200      	movs	r2, #0
 80025ee:	f883 2040 	strb.w	r2, [r3, #64]	; 0x40
 80025f2:	2301      	movs	r3, #1
 80025f4:	e000      	b.n	80025f8 <I2C_IsAcknowledgeFailed+0xc0>
 80025f6:	2300      	movs	r3, #0
 80025f8:	4618      	mov	r0, r3
 80025fa:	3710      	adds	r7, #16
 80025fc:	46bd      	mov	sp, r7
 80025fe:	bd80      	pop	{r7, pc}
 8002600:	fe00e800 	.word	0xfe00e800

08002604 <I2C_TransferConfig>:
 8002604:	b480      	push	{r7}
 8002606:	b085      	sub	sp, #20
 8002608:	af00      	add	r7, sp, #0
 800260a:	60f8      	str	r0, [r7, #12]
 800260c:	607b      	str	r3, [r7, #4]
 800260e:	460b      	mov	r3, r1
 8002610:	817b      	strh	r3, [r7, #10]
 8002612:	4613      	mov	r3, r2
 8002614:	727b      	strb	r3, [r7, #9]
 8002616:	68fb      	ldr	r3, [r7, #12]
 8002618:	681b      	ldr	r3, [r3, #0]
 800261a:	685a      	ldr	r2, [r3, #4]
 800261c:	69bb      	ldr	r3, [r7, #24]
 800261e:	0d5b      	lsrs	r3, r3, #21
 8002620:	f403 6180 	and.w	r1, r3, #1024	; 0x400
 8002624:	4b0d      	ldr	r3, [pc, #52]	; (800265c <I2C_TransferConfig+0x58>)
 8002626:	430b      	orrs	r3, r1
 8002628:	43db      	mvns	r3, r3
 800262a:	ea02 0103 	and.w	r1, r2, r3
 800262e:	897b      	ldrh	r3, [r7, #10]
 8002630:	f3c3 0209 	ubfx	r2, r3, #0, #10
 8002634:	7a7b      	ldrb	r3, [r7, #9]
 8002636:	041b      	lsls	r3, r3, #16
 8002638:	f403 037f 	and.w	r3, r3, #16711680	; 0xff0000
 800263c:	431a      	orrs	r2, r3
 800263e:	687b      	ldr	r3, [r7, #4]
 8002640:	431a      	orrs	r2, r3
 8002642:	69bb      	ldr	r3, [r7, #24]
 8002644:	431a      	orrs	r2, r3
 8002646:	68fb      	ldr	r3, [r7, #12]
 8002648:	681b      	ldr	r3, [r3, #0]
 800264a:	430a      	orrs	r2, r1
 800264c:	605a      	str	r2, [r3, #4]
 800264e:	bf00      	nop
 8002650:	3714      	adds	r7, #20
 8002652:	46bd      	mov	sp, r7
 8002654:	f85d 7b04 	ldr.w	r7, [sp], #4
 8002658:	4770      	bx	lr
 800265a:	bf00      	nop
 800265c:	03ff63ff 	.word	0x03ff63ff

08002660 <I2C_Disable_IRQ>:
 8002660:	b480      	push	{r7}
 8002662:	b085      	sub	sp, #20
 8002664:	af00      	add	r7, sp, #0
 8002666:	6078      	str	r0, [r7, #4]
 8002668:	460b      	mov	r3, r1
 800266a:	807b      	strh	r3, [r7, #2]
 800266c:	2300      	movs	r3, #0
 800266e:	60fb      	str	r3, [r7, #12]
 8002670:	887b      	ldrh	r3, [r7, #2]
 8002672:	f003 0301 	and.w	r3, r3, #1
 8002676:	2b00      	cmp	r3, #0
 8002678:	d00f      	beq.n	800269a <I2C_Disable_IRQ+0x3a>
 800267a:	68fb      	ldr	r3, [r7, #12]
 800267c:	f043 0342 	orr.w	r3, r3, #66	; 0x42
 8002680:	60fb      	str	r3, [r7, #12]
 8002682:	687b      	ldr	r3, [r7, #4]
 8002684:	f893 3041 	ldrb.w	r3, [r3, #65]	; 0x41
 8002688:	b2db      	uxtb	r3, r3
 800268a:	f003 0328 	and.w	r3, r3, #40	; 0x28
 800268e:	2b28      	cmp	r3, #40	; 0x28
 8002690:	d003      	beq.n	800269a <I2C_Disable_IRQ+0x3a>
 8002692:	68fb      	ldr	r3, [r7, #12]
 8002694:	f043 03b0 	orr.w	r3, r3, #176	; 0xb0
 8002698:	60fb      	str	r3, [r7, #12]
 800269a:	887b      	ldrh	r3, [r7, #2]
 800269c:	f003 0302 	and.w	r3, r3, #2
 80026a0:	2b00      	cmp	r3, #0
 80026a2:	d00f      	beq.n	80026c4 <I2C_Disable_IRQ+0x64>
 80026a4:	68fb      	ldr	r3, [r7, #12]
 80026a6:	f043 0344 	orr.w	r3, r3, #68	; 0x44
 80026aa:	60fb      	str	r3, [r7, #12]
 80026ac:	687b      	ldr	r3, [r7, #4]
 80026ae:	f893 3041 	ldrb.w	r3, [r3, #65]	; 0x41
 80026b2:	b2db      	uxtb	r3, r3
 80026b4:	f003 0328 	and.w	r3, r3, #40	; 0x28
 80026b8:	2b28      	cmp	r3, #40	; 0x28
 80026ba:	d003      	beq.n	80026c4 <I2C_Disable_IRQ+0x64>
 80026bc:	68fb      	ldr	r3, [r7, #12]
 80026be:	f043 03b0 	orr.w	r3, r3, #176	; 0xb0
 80026c2:	60fb      	str	r3, [r7, #12]
 80026c4:	887b      	ldrh	r3, [r7, #2]
 80026c6:	f003 0304 	and.w	r3, r3, #4
 80026ca:	2b00      	cmp	r3, #0
 80026cc:	d003      	beq.n	80026d6 <I2C_Disable_IRQ+0x76>
 80026ce:	68fb      	ldr	r3, [r7, #12]
 80026d0:	f043 03b8 	orr.w	r3, r3, #184	; 0xb8
 80026d4:	60fb      	str	r3, [r7, #12]
 80026d6:	887b      	ldrh	r3, [r7, #2]
 80026d8:	f003 0311 	and.w	r3, r3, #17
 80026dc:	2b11      	cmp	r3, #17
 80026de:	d103      	bne.n	80026e8 <I2C_Disable_IRQ+0x88>
 80026e0:	68fb      	ldr	r3, [r7, #12]
 80026e2:	f043 0390 	orr.w	r3, r3, #144	; 0x90
 80026e6:	60fb      	str	r3, [r7, #12]
 80026e8:	887b      	ldrh	r3, [r7, #2]
 80026ea:	f003 0312 	and.w	r3, r3, #18
 80026ee:	2b12      	cmp	r3, #18
 80026f0:	d103      	bne.n	80026fa <I2C_Disable_IRQ+0x9a>
 80026f2:	68fb      	ldr	r3, [r7, #12]
 80026f4:	f043 0320 	orr.w	r3, r3, #32
 80026f8:	60fb      	str	r3, [r7, #12]
 80026fa:	887b      	ldrh	r3, [r7, #2]
 80026fc:	f003 0312 	and.w	r3, r3, #18
 8002700:	2b12      	cmp	r3, #18
 8002702:	d103      	bne.n	800270c <I2C_Disable_IRQ+0xac>
 8002704:	68fb      	ldr	r3, [r7, #12]
 8002706:	f043 0340 	orr.w	r3, r3, #64	; 0x40
 800270a:	60fb      	str	r3, [r7, #12]
 800270c:	687b      	ldr	r3, [r7, #4]
 800270e:	681b      	ldr	r3, [r3, #0]
 8002710:	6819      	ldr	r1, [r3, #0]
 8002712:	68fb      	ldr	r3, [r7, #12]
 8002714:	43da      	mvns	r2, r3
 8002716:	687b      	ldr	r3, [r7, #4]
 8002718:	681b      	ldr	r3, [r3, #0]
 800271a:	400a      	ands	r2, r1
 800271c:	601a      	str	r2, [r3, #0]
 800271e:	bf00      	nop
 8002720:	3714      	adds	r7, #20
 8002722:	46bd      	mov	sp, r7
 8002724:	f85d 7b04 	ldr.w	r7, [sp], #4
 8002728:	4770      	bx	lr

0800272a <HAL_I2CEx_ConfigAnalogFilter>:
 800272a:	b480      	push	{r7}
 800272c:	b083      	sub	sp, #12
 800272e:	af00      	add	r7, sp, #0
 8002730:	6078      	str	r0, [r7, #4]
 8002732:	6039      	str	r1, [r7, #0]
 8002734:	687b      	ldr	r3, [r7, #4]
 8002736:	f893 3041 	ldrb.w	r3, [r3, #65]	; 0x41
 800273a:	b2db      	uxtb	r3, r3
 800273c:	2b20      	cmp	r3, #32
 800273e:	d138      	bne.n	80027b2 <HAL_I2CEx_ConfigAnalogFilter+0x88>
 8002740:	687b      	ldr	r3, [r7, #4]
 8002742:	f893 3040 	ldrb.w	r3, [r3, #64]	; 0x40
 8002746:	2b01      	cmp	r3, #1
 8002748:	d101      	bne.n	800274e <HAL_I2CEx_ConfigAnalogFilter+0x24>
 800274a:	2302      	movs	r3, #2
 800274c:	e032      	b.n	80027b4 <HAL_I2CEx_ConfigAnalogFilter+0x8a>
 800274e:	687b      	ldr	r3, [r7, #4]
 8002750:	2201      	movs	r2, #1
 8002752:	f883 2040 	strb.w	r2, [r3, #64]	; 0x40
 8002756:	687b      	ldr	r3, [r7, #4]
 8002758:	2224      	movs	r2, #36	; 0x24
 800275a:	f883 2041 	strb.w	r2, [r3, #65]	; 0x41
 800275e:	687b      	ldr	r3, [r7, #4]
 8002760:	681b      	ldr	r3, [r3, #0]
 8002762:	681a      	ldr	r2, [r3, #0]
 8002764:	687b      	ldr	r3, [r7, #4]
 8002766:	681b      	ldr	r3, [r3, #0]
 8002768:	f022 0201 	bic.w	r2, r2, #1
 800276c:	601a      	str	r2, [r3, #0]
 800276e:	687b      	ldr	r3, [r7, #4]
 8002770:	681b      	ldr	r3, [r3, #0]
 8002772:	681a      	ldr	r2, [r3, #0]
 8002774:	687b      	ldr	r3, [r7, #4]
 8002776:	681b      	ldr	r3, [r3, #0]
 8002778:	f422 5280 	bic.w	r2, r2, #4096	; 0x1000
 800277c:	601a      	str	r2, [r3, #0]
 800277e:	687b      	ldr	r3, [r7, #4]
 8002780:	681b      	ldr	r3, [r3, #0]
 8002782:	6819      	ldr	r1, [r3, #0]
 8002784:	687b      	ldr	r3, [r7, #4]
 8002786:	681b      	ldr	r3, [r3, #0]
 8002788:	683a      	ldr	r2, [r7, #0]
 800278a:	430a      	orrs	r2, r1
 800278c:	601a      	str	r2, [r3, #0]
 800278e:	687b      	ldr	r3, [r7, #4]
 8002790:	681b      	ldr	r3, [r3, #0]
 8002792:	681a      	ldr	r2, [r3, #0]
 8002794:	687b      	ldr	r3, [r7, #4]
 8002796:	681b      	ldr	r3, [r3, #0]
 8002798:	f042 0201 	orr.w	r2, r2, #1
 800279c:	601a      	str	r2, [r3, #0]
 800279e:	687b      	ldr	r3, [r7, #4]
 80027a0:	2220      	movs	r2, #32
 80027a2:	f883 2041 	strb.w	r2, [r3, #65]	; 0x41
 80027a6:	687b      	ldr	r3, [r7, #4]
 80027a8:	2200      	movs	r2, #0
 80027aa:	f883 2040 	strb.w	r2, [r3, #64]	; 0x40
 80027ae:	2300      	movs	r3, #0
 80027b0:	e000      	b.n	80027b4 <HAL_I2CEx_ConfigAnalogFilter+0x8a>
 80027b2:	2302      	movs	r3, #2
 80027b4:	4618      	mov	r0, r3
 80027b6:	370c      	adds	r7, #12
 80027b8:	46bd      	mov	sp, r7
 80027ba:	f85d 7b04 	ldr.w	r7, [sp], #4
 80027be:	4770      	bx	lr

080027c0 <HAL_I2CEx_ConfigDigitalFilter>:
 80027c0:	b480      	push	{r7}
 80027c2:	b085      	sub	sp, #20
 80027c4:	af00      	add	r7, sp, #0
 80027c6:	6078      	str	r0, [r7, #4]
 80027c8:	6039      	str	r1, [r7, #0]
 80027ca:	687b      	ldr	r3, [r7, #4]
 80027cc:	f893 3041 	ldrb.w	r3, [r3, #65]	; 0x41
 80027d0:	b2db      	uxtb	r3, r3
 80027d2:	2b20      	cmp	r3, #32
 80027d4:	d139      	bne.n	800284a <HAL_I2CEx_ConfigDigitalFilter+0x8a>
 80027d6:	687b      	ldr	r3, [r7, #4]
 80027d8:	f893 3040 	ldrb.w	r3, [r3, #64]	; 0x40
 80027dc:	2b01      	cmp	r3, #1
 80027de:	d101      	bne.n	80027e4 <HAL_I2CEx_ConfigDigitalFilter+0x24>
 80027e0:	2302      	movs	r3, #2
 80027e2:	e033      	b.n	800284c <HAL_I2CEx_ConfigDigitalFilter+0x8c>
 80027e4:	687b      	ldr	r3, [r7, #4]
 80027e6:	2201      	movs	r2, #1
 80027e8:	f883 2040 	strb.w	r2, [r3, #64]	; 0x40
 80027ec:	687b      	ldr	r3, [r7, #4]
 80027ee:	2224      	movs	r2, #36	; 0x24
 80027f0:	f883 2041 	strb.w	r2, [r3, #65]	; 0x41
 80027f4:	687b      	ldr	r3, [r7, #4]
 80027f6:	681b      	ldr	r3, [r3, #0]
 80027f8:	681a      	ldr	r2, [r3, #0]
 80027fa:	687b      	ldr	r3, [r7, #4]
 80027fc:	681b      	ldr	r3, [r3, #0]
 80027fe:	f022 0201 	bic.w	r2, r2, #1
 8002802:	601a      	str	r2, [r3, #0]
 8002804:	687b      	ldr	r3, [r7, #4]
 8002806:	681b      	ldr	r3, [r3, #0]
 8002808:	681b      	ldr	r3, [r3, #0]
 800280a:	60fb      	str	r3, [r7, #12]
 800280c:	68fb      	ldr	r3, [r7, #12]
 800280e:	f423 6370 	bic.w	r3, r3, #3840	; 0xf00
 8002812:	60fb      	str	r3, [r7, #12]
 8002814:	683b      	ldr	r3, [r7, #0]
 8002816:	021b      	lsls	r3, r3, #8
 8002818:	68fa      	ldr	r2, [r7, #12]
 800281a:	4313      	orrs	r3, r2
 800281c:	60fb      	str	r3, [r7, #12]
 800281e:	687b      	ldr	r3, [r7, #4]
 8002820:	681b      	ldr	r3, [r3, #0]
 8002822:	68fa      	ldr	r2, [r7, #12]
 8002824:	601a      	str	r2, [r3, #0]
 8002826:	687b      	ldr	r3, [r7, #4]
 8002828:	681b      	ldr	r3, [r3, #0]
 800282a:	681a      	ldr	r2, [r3, #0]
 800282c:	687b      	ldr	r3, [r7, #4]
 800282e:	681b      	ldr	r3, [r3, #0]
 8002830:	f042 0201 	orr.w	r2, r2, #1
 8002834:	601a      	str	r2, [r3, #0]
 8002836:	687b      	ldr	r3, [r7, #4]
 8002838:	2220      	movs	r2, #32
 800283a:	f883 2041 	strb.w	r2, [r3, #65]	; 0x41
 800283e:	687b      	ldr	r3, [r7, #4]
 8002840:	2200      	movs	r2, #0
 8002842:	f883 2040 	strb.w	r2, [r3, #64]	; 0x40
 8002846:	2300      	movs	r3, #0
 8002848:	e000      	b.n	800284c <HAL_I2CEx_ConfigDigitalFilter+0x8c>
 800284a:	2302      	movs	r3, #2
 800284c:	4618      	mov	r0, r3
 800284e:	3714      	adds	r7, #20
 8002850:	46bd      	mov	sp, r7
 8002852:	f85d 7b04 	ldr.w	r7, [sp], #4
 8002856:	4770      	bx	lr

08002858 <HAL_PCD_Init>:
 8002858:	b5f0      	push	{r4, r5, r6, r7, lr}
 800285a:	b08f      	sub	sp, #60	; 0x3c
 800285c:	af0a      	add	r7, sp, #40	; 0x28
 800285e:	6078      	str	r0, [r7, #4]
 8002860:	687b      	ldr	r3, [r7, #4]
 8002862:	2b00      	cmp	r3, #0
 8002864:	d101      	bne.n	800286a <HAL_PCD_Init+0x12>
 8002866:	2301      	movs	r3, #1
 8002868:	e10a      	b.n	8002a80 <HAL_PCD_Init+0x228>
 800286a:	687b      	ldr	r3, [r7, #4]
 800286c:	f893 33bd 	ldrb.w	r3, [r3, #957]	; 0x3bd
 8002870:	b2db      	uxtb	r3, r3
 8002872:	2b00      	cmp	r3, #0
 8002874:	d106      	bne.n	8002884 <HAL_PCD_Init+0x2c>
 8002876:	687b      	ldr	r3, [r7, #4]
 8002878:	2200      	movs	r2, #0
 800287a:	f883 23bc 	strb.w	r2, [r3, #956]	; 0x3bc
 800287e:	6878      	ldr	r0, [r7, #4]
 8002880:	f004 fd32 	bl	80072e8 <HAL_PCD_MspInit>
 8002884:	687b      	ldr	r3, [r7, #4]
 8002886:	2203      	movs	r2, #3
 8002888:	f883 23bd 	strb.w	r2, [r3, #957]	; 0x3bd
 800288c:	687b      	ldr	r3, [r7, #4]
 800288e:	681b      	ldr	r3, [r3, #0]
 8002890:	4618      	mov	r0, r3
 8002892:	f003 f913 	bl	8005abc <USB_DisableGlobalInt>
 8002896:	687b      	ldr	r3, [r7, #4]
 8002898:	681b      	ldr	r3, [r3, #0]
 800289a:	603b      	str	r3, [r7, #0]
 800289c:	687e      	ldr	r6, [r7, #4]
 800289e:	466d      	mov	r5, sp
 80028a0:	f106 0410 	add.w	r4, r6, #16
 80028a4:	cc0f      	ldmia	r4!, {r0, r1, r2, r3}
 80028a6:	c50f      	stmia	r5!, {r0, r1, r2, r3}
 80028a8:	cc0f      	ldmia	r4!, {r0, r1, r2, r3}
 80028aa:	c50f      	stmia	r5!, {r0, r1, r2, r3}
 80028ac:	e894 0003 	ldmia.w	r4, {r0, r1}
 80028b0:	e885 0003 	stmia.w	r5, {r0, r1}
 80028b4:	1d33      	adds	r3, r6, #4
 80028b6:	cb0e      	ldmia	r3, {r1, r2, r3}
 80028b8:	6838      	ldr	r0, [r7, #0]
 80028ba:	f003 f8a7 	bl	8005a0c <USB_CoreInit>
 80028be:	4603      	mov	r3, r0
 80028c0:	2b00      	cmp	r3, #0
 80028c2:	d005      	beq.n	80028d0 <HAL_PCD_Init+0x78>
 80028c4:	687b      	ldr	r3, [r7, #4]
 80028c6:	2202      	movs	r2, #2
 80028c8:	f883 23bd 	strb.w	r2, [r3, #957]	; 0x3bd
 80028cc:	2301      	movs	r3, #1
 80028ce:	e0d7      	b.n	8002a80 <HAL_PCD_Init+0x228>
 80028d0:	687b      	ldr	r3, [r7, #4]
 80028d2:	681b      	ldr	r3, [r3, #0]
 80028d4:	2100      	movs	r1, #0
 80028d6:	4618      	mov	r0, r3
 80028d8:	f003 f901 	bl	8005ade <USB_SetCurrentMode>
 80028dc:	2300      	movs	r3, #0
 80028de:	73fb      	strb	r3, [r7, #15]
 80028e0:	e04a      	b.n	8002978 <HAL_PCD_Init+0x120>
 80028e2:	7bfa      	ldrb	r2, [r7, #15]
 80028e4:	6879      	ldr	r1, [r7, #4]
 80028e6:	4613      	mov	r3, r2
 80028e8:	00db      	lsls	r3, r3, #3
 80028ea:	1a9b      	subs	r3, r3, r2
 80028ec:	009b      	lsls	r3, r3, #2
 80028ee:	440b      	add	r3, r1
 80028f0:	333d      	adds	r3, #61	; 0x3d
 80028f2:	2201      	movs	r2, #1
 80028f4:	701a      	strb	r2, [r3, #0]
 80028f6:	7bfa      	ldrb	r2, [r7, #15]
 80028f8:	6879      	ldr	r1, [r7, #4]
 80028fa:	4613      	mov	r3, r2
 80028fc:	00db      	lsls	r3, r3, #3
 80028fe:	1a9b      	subs	r3, r3, r2
 8002900:	009b      	lsls	r3, r3, #2
 8002902:	440b      	add	r3, r1
 8002904:	333c      	adds	r3, #60	; 0x3c
 8002906:	7bfa      	ldrb	r2, [r7, #15]
 8002908:	701a      	strb	r2, [r3, #0]
 800290a:	7bfa      	ldrb	r2, [r7, #15]
 800290c:	7bfb      	ldrb	r3, [r7, #15]
 800290e:	b298      	uxth	r0, r3
 8002910:	6879      	ldr	r1, [r7, #4]
 8002912:	4613      	mov	r3, r2
 8002914:	00db      	lsls	r3, r3, #3
 8002916:	1a9b      	subs	r3, r3, r2
 8002918:	009b      	lsls	r3, r3, #2
 800291a:	440b      	add	r3, r1
 800291c:	3342      	adds	r3, #66	; 0x42
 800291e:	4602      	mov	r2, r0
 8002920:	801a      	strh	r2, [r3, #0]
 8002922:	7bfa      	ldrb	r2, [r7, #15]
 8002924:	6879      	ldr	r1, [r7, #4]
 8002926:	4613      	mov	r3, r2
 8002928:	00db      	lsls	r3, r3, #3
 800292a:	1a9b      	subs	r3, r3, r2
 800292c:	009b      	lsls	r3, r3, #2
 800292e:	440b      	add	r3, r1
 8002930:	333f      	adds	r3, #63	; 0x3f
 8002932:	2200      	movs	r2, #0
 8002934:	701a      	strb	r2, [r3, #0]
 8002936:	7bfa      	ldrb	r2, [r7, #15]
 8002938:	6879      	ldr	r1, [r7, #4]
 800293a:	4613      	mov	r3, r2
 800293c:	00db      	lsls	r3, r3, #3
 800293e:	1a9b      	subs	r3, r3, r2
 8002940:	009b      	lsls	r3, r3, #2
 8002942:	440b      	add	r3, r1
 8002944:	3344      	adds	r3, #68	; 0x44
 8002946:	2200      	movs	r2, #0
 8002948:	601a      	str	r2, [r3, #0]
 800294a:	7bfa      	ldrb	r2, [r7, #15]
 800294c:	6879      	ldr	r1, [r7, #4]
 800294e:	4613      	mov	r3, r2
 8002950:	00db      	lsls	r3, r3, #3
 8002952:	1a9b      	subs	r3, r3, r2
 8002954:	009b      	lsls	r3, r3, #2
 8002956:	440b      	add	r3, r1
 8002958:	3348      	adds	r3, #72	; 0x48
 800295a:	2200      	movs	r2, #0
 800295c:	601a      	str	r2, [r3, #0]
 800295e:	7bfa      	ldrb	r2, [r7, #15]
 8002960:	6879      	ldr	r1, [r7, #4]
 8002962:	4613      	mov	r3, r2
 8002964:	00db      	lsls	r3, r3, #3
 8002966:	1a9b      	subs	r3, r3, r2
 8002968:	009b      	lsls	r3, r3, #2
 800296a:	440b      	add	r3, r1
 800296c:	3350      	adds	r3, #80	; 0x50
 800296e:	2200      	movs	r2, #0
 8002970:	601a      	str	r2, [r3, #0]
 8002972:	7bfb      	ldrb	r3, [r7, #15]
 8002974:	3301      	adds	r3, #1
 8002976:	73fb      	strb	r3, [r7, #15]
 8002978:	7bfa      	ldrb	r2, [r7, #15]
 800297a:	687b      	ldr	r3, [r7, #4]
 800297c:	685b      	ldr	r3, [r3, #4]
 800297e:	429a      	cmp	r2, r3
 8002980:	d3af      	bcc.n	80028e2 <HAL_PCD_Init+0x8a>
 8002982:	2300      	movs	r3, #0
 8002984:	73fb      	strb	r3, [r7, #15]
 8002986:	e044      	b.n	8002a12 <HAL_PCD_Init+0x1ba>
 8002988:	7bfa      	ldrb	r2, [r7, #15]
 800298a:	6879      	ldr	r1, [r7, #4]
 800298c:	4613      	mov	r3, r2
 800298e:	00db      	lsls	r3, r3, #3
 8002990:	1a9b      	subs	r3, r3, r2
 8002992:	009b      	lsls	r3, r3, #2
 8002994:	440b      	add	r3, r1
 8002996:	f203 13fd 	addw	r3, r3, #509	; 0x1fd
 800299a:	2200      	movs	r2, #0
 800299c:	701a      	strb	r2, [r3, #0]
 800299e:	7bfa      	ldrb	r2, [r7, #15]
 80029a0:	6879      	ldr	r1, [r7, #4]
 80029a2:	4613      	mov	r3, r2
 80029a4:	00db      	lsls	r3, r3, #3
 80029a6:	1a9b      	subs	r3, r3, r2
 80029a8:	009b      	lsls	r3, r3, #2
 80029aa:	440b      	add	r3, r1
 80029ac:	f503 73fe 	add.w	r3, r3, #508	; 0x1fc
 80029b0:	7bfa      	ldrb	r2, [r7, #15]
 80029b2:	701a      	strb	r2, [r3, #0]
 80029b4:	7bfa      	ldrb	r2, [r7, #15]
 80029b6:	6879      	ldr	r1, [r7, #4]
 80029b8:	4613      	mov	r3, r2
 80029ba:	00db      	lsls	r3, r3, #3
 80029bc:	1a9b      	subs	r3, r3, r2
 80029be:	009b      	lsls	r3, r3, #2
 80029c0:	440b      	add	r3, r1
 80029c2:	f203 13ff 	addw	r3, r3, #511	; 0x1ff
 80029c6:	2200      	movs	r2, #0
 80029c8:	701a      	strb	r2, [r3, #0]
 80029ca:	7bfa      	ldrb	r2, [r7, #15]
 80029cc:	6879      	ldr	r1, [r7, #4]
 80029ce:	4613      	mov	r3, r2
 80029d0:	00db      	lsls	r3, r3, #3
 80029d2:	1a9b      	subs	r3, r3, r2
 80029d4:	009b      	lsls	r3, r3, #2
 80029d6:	440b      	add	r3, r1
 80029d8:	f503 7301 	add.w	r3, r3, #516	; 0x204
 80029dc:	2200      	movs	r2, #0
 80029de:	601a      	str	r2, [r3, #0]
 80029e0:	7bfa      	ldrb	r2, [r7, #15]
 80029e2:	6879      	ldr	r1, [r7, #4]
 80029e4:	4613      	mov	r3, r2
 80029e6:	00db      	lsls	r3, r3, #3
 80029e8:	1a9b      	subs	r3, r3, r2
 80029ea:	009b      	lsls	r3, r3, #2
 80029ec:	440b      	add	r3, r1
 80029ee:	f503 7302 	add.w	r3, r3, #520	; 0x208
 80029f2:	2200      	movs	r2, #0
 80029f4:	601a      	str	r2, [r3, #0]
 80029f6:	7bfa      	ldrb	r2, [r7, #15]
 80029f8:	6879      	ldr	r1, [r7, #4]
 80029fa:	4613      	mov	r3, r2
 80029fc:	00db      	lsls	r3, r3, #3
 80029fe:	1a9b      	subs	r3, r3, r2
 8002a00:	009b      	lsls	r3, r3, #2
 8002a02:	440b      	add	r3, r1
 8002a04:	f503 7304 	add.w	r3, r3, #528	; 0x210
 8002a08:	2200      	movs	r2, #0
 8002a0a:	601a      	str	r2, [r3, #0]
 8002a0c:	7bfb      	ldrb	r3, [r7, #15]
 8002a0e:	3301      	adds	r3, #1
 8002a10:	73fb      	strb	r3, [r7, #15]
 8002a12:	7bfa      	ldrb	r2, [r7, #15]
 8002a14:	687b      	ldr	r3, [r7, #4]
 8002a16:	685b      	ldr	r3, [r3, #4]
 8002a18:	429a      	cmp	r2, r3
 8002a1a:	d3b5      	bcc.n	8002988 <HAL_PCD_Init+0x130>
 8002a1c:	687b      	ldr	r3, [r7, #4]
 8002a1e:	681b      	ldr	r3, [r3, #0]
 8002a20:	603b      	str	r3, [r7, #0]
 8002a22:	687e      	ldr	r6, [r7, #4]
 8002a24:	466d      	mov	r5, sp
 8002a26:	f106 0410 	add.w	r4, r6, #16
 8002a2a:	cc0f      	ldmia	r4!, {r0, r1, r2, r3}
 8002a2c:	c50f      	stmia	r5!, {r0, r1, r2, r3}
 8002a2e:	cc0f      	ldmia	r4!, {r0, r1, r2, r3}
 8002a30:	c50f      	stmia	r5!, {r0, r1, r2, r3}
 8002a32:	e894 0003 	ldmia.w	r4, {r0, r1}
 8002a36:	e885 0003 	stmia.w	r5, {r0, r1}
 8002a3a:	1d33      	adds	r3, r6, #4
 8002a3c:	cb0e      	ldmia	r3, {r1, r2, r3}
 8002a3e:	6838      	ldr	r0, [r7, #0]
 8002a40:	f003 f878 	bl	8005b34 <USB_DevInit>
 8002a44:	4603      	mov	r3, r0
 8002a46:	2b00      	cmp	r3, #0
 8002a48:	d005      	beq.n	8002a56 <HAL_PCD_Init+0x1fe>
 8002a4a:	687b      	ldr	r3, [r7, #4]
 8002a4c:	2202      	movs	r2, #2
 8002a4e:	f883 23bd 	strb.w	r2, [r3, #957]	; 0x3bd
 8002a52:	2301      	movs	r3, #1
 8002a54:	e014      	b.n	8002a80 <HAL_PCD_Init+0x228>
 8002a56:	687b      	ldr	r3, [r7, #4]
 8002a58:	2200      	movs	r2, #0
 8002a5a:	f883 2038 	strb.w	r2, [r3, #56]	; 0x38
 8002a5e:	687b      	ldr	r3, [r7, #4]
 8002a60:	2201      	movs	r2, #1
 8002a62:	f883 23bd 	strb.w	r2, [r3, #957]	; 0x3bd
 8002a66:	687b      	ldr	r3, [r7, #4]
 8002a68:	6a5b      	ldr	r3, [r3, #36]	; 0x24
 8002a6a:	2b01      	cmp	r3, #1
 8002a6c:	d102      	bne.n	8002a74 <HAL_PCD_Init+0x21c>
 8002a6e:	6878      	ldr	r0, [r7, #4]
 8002a70:	f000 f80a 	bl	8002a88 <HAL_PCDEx_ActivateLPM>
 8002a74:	687b      	ldr	r3, [r7, #4]
 8002a76:	681b      	ldr	r3, [r3, #0]
 8002a78:	4618      	mov	r0, r3
 8002a7a:	f003 fa38 	bl	8005eee <USB_DevDisconnect>
 8002a7e:	2300      	movs	r3, #0
 8002a80:	4618      	mov	r0, r3
 8002a82:	3714      	adds	r7, #20
 8002a84:	46bd      	mov	sp, r7
 8002a86:	bdf0      	pop	{r4, r5, r6, r7, pc}

08002a88 <HAL_PCDEx_ActivateLPM>:
 8002a88:	b480      	push	{r7}
 8002a8a:	b085      	sub	sp, #20
 8002a8c:	af00      	add	r7, sp, #0
 8002a8e:	6078      	str	r0, [r7, #4]
 8002a90:	687b      	ldr	r3, [r7, #4]
 8002a92:	681b      	ldr	r3, [r3, #0]
 8002a94:	60fb      	str	r3, [r7, #12]
 8002a96:	687b      	ldr	r3, [r7, #4]
 8002a98:	2201      	movs	r2, #1
 8002a9a:	f8c3 23fc 	str.w	r2, [r3, #1020]	; 0x3fc
 8002a9e:	687b      	ldr	r3, [r7, #4]
 8002aa0:	2200      	movs	r2, #0
 8002aa2:	f883 23f4 	strb.w	r2, [r3, #1012]	; 0x3f4
 8002aa6:	68fb      	ldr	r3, [r7, #12]
 8002aa8:	699b      	ldr	r3, [r3, #24]
 8002aaa:	f043 6200 	orr.w	r2, r3, #134217728	; 0x8000000
 8002aae:	68fb      	ldr	r3, [r7, #12]
 8002ab0:	619a      	str	r2, [r3, #24]
 8002ab2:	68fb      	ldr	r3, [r7, #12]
 8002ab4:	6d5a      	ldr	r2, [r3, #84]	; 0x54
 8002ab6:	4b05      	ldr	r3, [pc, #20]	; (8002acc <HAL_PCDEx_ActivateLPM+0x44>)
 8002ab8:	4313      	orrs	r3, r2
 8002aba:	68fa      	ldr	r2, [r7, #12]
 8002abc:	6553      	str	r3, [r2, #84]	; 0x54
 8002abe:	2300      	movs	r3, #0
 8002ac0:	4618      	mov	r0, r3
 8002ac2:	3714      	adds	r7, #20
 8002ac4:	46bd      	mov	sp, r7
 8002ac6:	f85d 7b04 	ldr.w	r7, [sp], #4
 8002aca:	4770      	bx	lr
 8002acc:	10000003 	.word	0x10000003

08002ad0 <HAL_PWR_EnableBkUpAccess>:
 8002ad0:	b480      	push	{r7}
 8002ad2:	af00      	add	r7, sp, #0
 8002ad4:	4b05      	ldr	r3, [pc, #20]	; (8002aec <HAL_PWR_EnableBkUpAccess+0x1c>)
 8002ad6:	681b      	ldr	r3, [r3, #0]
 8002ad8:	4a04      	ldr	r2, [pc, #16]	; (8002aec <HAL_PWR_EnableBkUpAccess+0x1c>)
 8002ada:	f443 7380 	orr.w	r3, r3, #256	; 0x100
 8002ade:	6013      	str	r3, [r2, #0]
 8002ae0:	bf00      	nop
 8002ae2:	46bd      	mov	sp, r7
 8002ae4:	f85d 7b04 	ldr.w	r7, [sp], #4
 8002ae8:	4770      	bx	lr
 8002aea:	bf00      	nop
 8002aec:	40007000 	.word	0x40007000

08002af0 <HAL_RCC_OscConfig>:
 8002af0:	b580      	push	{r7, lr}
 8002af2:	b086      	sub	sp, #24
 8002af4:	af00      	add	r7, sp, #0
 8002af6:	6078      	str	r0, [r7, #4]
 8002af8:	2300      	movs	r3, #0
 8002afa:	75fb      	strb	r3, [r7, #23]
 8002afc:	687b      	ldr	r3, [r7, #4]
 8002afe:	2b00      	cmp	r3, #0
 8002b00:	d101      	bne.n	8002b06 <HAL_RCC_OscConfig+0x16>
 8002b02:	2301      	movs	r3, #1
 8002b04:	e25c      	b.n	8002fc0 <HAL_RCC_OscConfig+0x4d0>
 8002b06:	687b      	ldr	r3, [r7, #4]
 8002b08:	681b      	ldr	r3, [r3, #0]
 8002b0a:	f003 0301 	and.w	r3, r3, #1
 8002b0e:	2b00      	cmp	r3, #0
 8002b10:	f000 8087 	beq.w	8002c22 <HAL_RCC_OscConfig+0x132>
 8002b14:	4b96      	ldr	r3, [pc, #600]	; (8002d70 <HAL_RCC_OscConfig+0x280>)
 8002b16:	689b      	ldr	r3, [r3, #8]
 8002b18:	f003 030c 	and.w	r3, r3, #12
 8002b1c:	2b04      	cmp	r3, #4
 8002b1e:	d00c      	beq.n	8002b3a <HAL_RCC_OscConfig+0x4a>
 8002b20:	4b93      	ldr	r3, [pc, #588]	; (8002d70 <HAL_RCC_OscConfig+0x280>)
 8002b22:	689b      	ldr	r3, [r3, #8]
 8002b24:	f003 030c 	and.w	r3, r3, #12
 8002b28:	2b08      	cmp	r3, #8
 8002b2a:	d112      	bne.n	8002b52 <HAL_RCC_OscConfig+0x62>
 8002b2c:	4b90      	ldr	r3, [pc, #576]	; (8002d70 <HAL_RCC_OscConfig+0x280>)
 8002b2e:	685b      	ldr	r3, [r3, #4]
 8002b30:	f403 0380 	and.w	r3, r3, #4194304	; 0x400000
 8002b34:	f5b3 0f80 	cmp.w	r3, #4194304	; 0x400000
 8002b38:	d10b      	bne.n	8002b52 <HAL_RCC_OscConfig+0x62>
 8002b3a:	4b8d      	ldr	r3, [pc, #564]	; (8002d70 <HAL_RCC_OscConfig+0x280>)
 8002b3c:	681b      	ldr	r3, [r3, #0]
 8002b3e:	f403 3300 	and.w	r3, r3, #131072	; 0x20000
 8002b42:	2b00      	cmp	r3, #0
 8002b44:	d06c      	beq.n	8002c20 <HAL_RCC_OscConfig+0x130>
 8002b46:	687b      	ldr	r3, [r7, #4]
 8002b48:	685b      	ldr	r3, [r3, #4]
 8002b4a:	2b00      	cmp	r3, #0
 8002b4c:	d168      	bne.n	8002c20 <HAL_RCC_OscConfig+0x130>
 8002b4e:	2301      	movs	r3, #1
 8002b50:	e236      	b.n	8002fc0 <HAL_RCC_OscConfig+0x4d0>
 8002b52:	687b      	ldr	r3, [r7, #4]
 8002b54:	685b      	ldr	r3, [r3, #4]
 8002b56:	f5b3 3f80 	cmp.w	r3, #65536	; 0x10000
 8002b5a:	d106      	bne.n	8002b6a <HAL_RCC_OscConfig+0x7a>
 8002b5c:	4b84      	ldr	r3, [pc, #528]	; (8002d70 <HAL_RCC_OscConfig+0x280>)
 8002b5e:	681b      	ldr	r3, [r3, #0]
 8002b60:	4a83      	ldr	r2, [pc, #524]	; (8002d70 <HAL_RCC_OscConfig+0x280>)
 8002b62:	f443 3380 	orr.w	r3, r3, #65536	; 0x10000
 8002b66:	6013      	str	r3, [r2, #0]
 8002b68:	e02e      	b.n	8002bc8 <HAL_RCC_OscConfig+0xd8>
 8002b6a:	687b      	ldr	r3, [r7, #4]
 8002b6c:	685b      	ldr	r3, [r3, #4]
 8002b6e:	2b00      	cmp	r3, #0
 8002b70:	d10c      	bne.n	8002b8c <HAL_RCC_OscConfig+0x9c>
 8002b72:	4b7f      	ldr	r3, [pc, #508]	; (8002d70 <HAL_RCC_OscConfig+0x280>)
 8002b74:	681b      	ldr	r3, [r3, #0]
 8002b76:	4a7e      	ldr	r2, [pc, #504]	; (8002d70 <HAL_RCC_OscConfig+0x280>)
 8002b78:	f423 3380 	bic.w	r3, r3, #65536	; 0x10000
 8002b7c:	6013      	str	r3, [r2, #0]
 8002b7e:	4b7c      	ldr	r3, [pc, #496]	; (8002d70 <HAL_RCC_OscConfig+0x280>)
 8002b80:	681b      	ldr	r3, [r3, #0]
 8002b82:	4a7b      	ldr	r2, [pc, #492]	; (8002d70 <HAL_RCC_OscConfig+0x280>)
 8002b84:	f423 2380 	bic.w	r3, r3, #262144	; 0x40000
 8002b88:	6013      	str	r3, [r2, #0]
 8002b8a:	e01d      	b.n	8002bc8 <HAL_RCC_OscConfig+0xd8>
 8002b8c:	687b      	ldr	r3, [r7, #4]
 8002b8e:	685b      	ldr	r3, [r3, #4]
 8002b90:	f5b3 2fa0 	cmp.w	r3, #327680	; 0x50000
 8002b94:	d10c      	bne.n	8002bb0 <HAL_RCC_OscConfig+0xc0>
 8002b96:	4b76      	ldr	r3, [pc, #472]	; (8002d70 <HAL_RCC_OscConfig+0x280>)
 8002b98:	681b      	ldr	r3, [r3, #0]
 8002b9a:	4a75      	ldr	r2, [pc, #468]	; (8002d70 <HAL_RCC_OscConfig+0x280>)
 8002b9c:	f443 2380 	orr.w	r3, r3, #262144	; 0x40000
 8002ba0:	6013      	str	r3, [r2, #0]
 8002ba2:	4b73      	ldr	r3, [pc, #460]	; (8002d70 <HAL_RCC_OscConfig+0x280>)
 8002ba4:	681b      	ldr	r3, [r3, #0]
 8002ba6:	4a72      	ldr	r2, [pc, #456]	; (8002d70 <HAL_RCC_OscConfig+0x280>)
 8002ba8:	f443 3380 	orr.w	r3, r3, #65536	; 0x10000
 8002bac:	6013      	str	r3, [r2, #0]
 8002bae:	e00b      	b.n	8002bc8 <HAL_RCC_OscConfig+0xd8>
 8002bb0:	4b6f      	ldr	r3, [pc, #444]	; (8002d70 <HAL_RCC_OscConfig+0x280>)
 8002bb2:	681b      	ldr	r3, [r3, #0]
 8002bb4:	4a6e      	ldr	r2, [pc, #440]	; (8002d70 <HAL_RCC_OscConfig+0x280>)
 8002bb6:	f423 3380 	bic.w	r3, r3, #65536	; 0x10000
 8002bba:	6013      	str	r3, [r2, #0]
 8002bbc:	4b6c      	ldr	r3, [pc, #432]	; (8002d70 <HAL_RCC_OscConfig+0x280>)
 8002bbe:	681b      	ldr	r3, [r3, #0]
 8002bc0:	4a6b      	ldr	r2, [pc, #428]	; (8002d70 <HAL_RCC_OscConfig+0x280>)
 8002bc2:	f423 2380 	bic.w	r3, r3, #262144	; 0x40000
 8002bc6:	6013      	str	r3, [r2, #0]
 8002bc8:	687b      	ldr	r3, [r7, #4]
 8002bca:	685b      	ldr	r3, [r3, #4]
 8002bcc:	2b00      	cmp	r3, #0
 8002bce:	d013      	beq.n	8002bf8 <HAL_RCC_OscConfig+0x108>
 8002bd0:	f7fe f936 	bl	8000e40 <HAL_GetTick>
 8002bd4:	6138      	str	r0, [r7, #16]
 8002bd6:	e008      	b.n	8002bea <HAL_RCC_OscConfig+0xfa>
 8002bd8:	f7fe f932 	bl	8000e40 <HAL_GetTick>
 8002bdc:	4602      	mov	r2, r0
 8002bde:	693b      	ldr	r3, [r7, #16]
 8002be0:	1ad3      	subs	r3, r2, r3
 8002be2:	2b64      	cmp	r3, #100	; 0x64
 8002be4:	d901      	bls.n	8002bea <HAL_RCC_OscConfig+0xfa>
 8002be6:	2303      	movs	r3, #3
 8002be8:	e1ea      	b.n	8002fc0 <HAL_RCC_OscConfig+0x4d0>
 8002bea:	4b61      	ldr	r3, [pc, #388]	; (8002d70 <HAL_RCC_OscConfig+0x280>)
 8002bec:	681b      	ldr	r3, [r3, #0]
 8002bee:	f403 3300 	and.w	r3, r3, #131072	; 0x20000
 8002bf2:	2b00      	cmp	r3, #0
 8002bf4:	d0f0      	beq.n	8002bd8 <HAL_RCC_OscConfig+0xe8>
 8002bf6:	e014      	b.n	8002c22 <HAL_RCC_OscConfig+0x132>
 8002bf8:	f7fe f922 	bl	8000e40 <HAL_GetTick>
 8002bfc:	6138      	str	r0, [r7, #16]
 8002bfe:	e008      	b.n	8002c12 <HAL_RCC_OscConfig+0x122>
 8002c00:	f7fe f91e 	bl	8000e40 <HAL_GetTick>
 8002c04:	4602      	mov	r2, r0
 8002c06:	693b      	ldr	r3, [r7, #16]
 8002c08:	1ad3      	subs	r3, r2, r3
 8002c0a:	2b64      	cmp	r3, #100	; 0x64
 8002c0c:	d901      	bls.n	8002c12 <HAL_RCC_OscConfig+0x122>
 8002c0e:	2303      	movs	r3, #3
 8002c10:	e1d6      	b.n	8002fc0 <HAL_RCC_OscConfig+0x4d0>
 8002c12:	4b57      	ldr	r3, [pc, #348]	; (8002d70 <HAL_RCC_OscConfig+0x280>)
 8002c14:	681b      	ldr	r3, [r3, #0]
 8002c16:	f403 3300 	and.w	r3, r3, #131072	; 0x20000
 8002c1a:	2b00      	cmp	r3, #0
 8002c1c:	d1f0      	bne.n	8002c00 <HAL_RCC_OscConfig+0x110>
 8002c1e:	e000      	b.n	8002c22 <HAL_RCC_OscConfig+0x132>
 8002c20:	bf00      	nop
 8002c22:	687b      	ldr	r3, [r7, #4]
 8002c24:	681b      	ldr	r3, [r3, #0]
 8002c26:	f003 0302 	and.w	r3, r3, #2
 8002c2a:	2b00      	cmp	r3, #0
 8002c2c:	d069      	beq.n	8002d02 <HAL_RCC_OscConfig+0x212>
 8002c2e:	4b50      	ldr	r3, [pc, #320]	; (8002d70 <HAL_RCC_OscConfig+0x280>)
 8002c30:	689b      	ldr	r3, [r3, #8]
 8002c32:	f003 030c 	and.w	r3, r3, #12
 8002c36:	2b00      	cmp	r3, #0
 8002c38:	d00b      	beq.n	8002c52 <HAL_RCC_OscConfig+0x162>
 8002c3a:	4b4d      	ldr	r3, [pc, #308]	; (8002d70 <HAL_RCC_OscConfig+0x280>)
 8002c3c:	689b      	ldr	r3, [r3, #8]
 8002c3e:	f003 030c 	and.w	r3, r3, #12
 8002c42:	2b08      	cmp	r3, #8
 8002c44:	d11c      	bne.n	8002c80 <HAL_RCC_OscConfig+0x190>
 8002c46:	4b4a      	ldr	r3, [pc, #296]	; (8002d70 <HAL_RCC_OscConfig+0x280>)
 8002c48:	685b      	ldr	r3, [r3, #4]
 8002c4a:	f403 0380 	and.w	r3, r3, #4194304	; 0x400000
 8002c4e:	2b00      	cmp	r3, #0
 8002c50:	d116      	bne.n	8002c80 <HAL_RCC_OscConfig+0x190>
 8002c52:	4b47      	ldr	r3, [pc, #284]	; (8002d70 <HAL_RCC_OscConfig+0x280>)
 8002c54:	681b      	ldr	r3, [r3, #0]
 8002c56:	f003 0302 	and.w	r3, r3, #2
 8002c5a:	2b00      	cmp	r3, #0
 8002c5c:	d005      	beq.n	8002c6a <HAL_RCC_OscConfig+0x17a>
 8002c5e:	687b      	ldr	r3, [r7, #4]
 8002c60:	68db      	ldr	r3, [r3, #12]
 8002c62:	2b01      	cmp	r3, #1
 8002c64:	d001      	beq.n	8002c6a <HAL_RCC_OscConfig+0x17a>
 8002c66:	2301      	movs	r3, #1
 8002c68:	e1aa      	b.n	8002fc0 <HAL_RCC_OscConfig+0x4d0>
 8002c6a:	4b41      	ldr	r3, [pc, #260]	; (8002d70 <HAL_RCC_OscConfig+0x280>)
 8002c6c:	681b      	ldr	r3, [r3, #0]
 8002c6e:	f023 02f8 	bic.w	r2, r3, #248	; 0xf8
 8002c72:	687b      	ldr	r3, [r7, #4]
 8002c74:	691b      	ldr	r3, [r3, #16]
 8002c76:	00db      	lsls	r3, r3, #3
 8002c78:	493d      	ldr	r1, [pc, #244]	; (8002d70 <HAL_RCC_OscConfig+0x280>)
 8002c7a:	4313      	orrs	r3, r2
 8002c7c:	600b      	str	r3, [r1, #0]
 8002c7e:	e040      	b.n	8002d02 <HAL_RCC_OscConfig+0x212>
 8002c80:	687b      	ldr	r3, [r7, #4]
 8002c82:	68db      	ldr	r3, [r3, #12]
 8002c84:	2b00      	cmp	r3, #0
 8002c86:	d023      	beq.n	8002cd0 <HAL_RCC_OscConfig+0x1e0>
 8002c88:	4b39      	ldr	r3, [pc, #228]	; (8002d70 <HAL_RCC_OscConfig+0x280>)
 8002c8a:	681b      	ldr	r3, [r3, #0]
 8002c8c:	4a38      	ldr	r2, [pc, #224]	; (8002d70 <HAL_RCC_OscConfig+0x280>)
 8002c8e:	f043 0301 	orr.w	r3, r3, #1
 8002c92:	6013      	str	r3, [r2, #0]
 8002c94:	f7fe f8d4 	bl	8000e40 <HAL_GetTick>
 8002c98:	6138      	str	r0, [r7, #16]
 8002c9a:	e008      	b.n	8002cae <HAL_RCC_OscConfig+0x1be>
 8002c9c:	f7fe f8d0 	bl	8000e40 <HAL_GetTick>
 8002ca0:	4602      	mov	r2, r0
 8002ca2:	693b      	ldr	r3, [r7, #16]
 8002ca4:	1ad3      	subs	r3, r2, r3
 8002ca6:	2b02      	cmp	r3, #2
 8002ca8:	d901      	bls.n	8002cae <HAL_RCC_OscConfig+0x1be>
 8002caa:	2303      	movs	r3, #3
 8002cac:	e188      	b.n	8002fc0 <HAL_RCC_OscConfig+0x4d0>
 8002cae:	4b30      	ldr	r3, [pc, #192]	; (8002d70 <HAL_RCC_OscConfig+0x280>)
 8002cb0:	681b      	ldr	r3, [r3, #0]
 8002cb2:	f003 0302 	and.w	r3, r3, #2
 8002cb6:	2b00      	cmp	r3, #0
 8002cb8:	d0f0      	beq.n	8002c9c <HAL_RCC_OscConfig+0x1ac>
 8002cba:	4b2d      	ldr	r3, [pc, #180]	; (8002d70 <HAL_RCC_OscConfig+0x280>)
 8002cbc:	681b      	ldr	r3, [r3, #0]
 8002cbe:	f023 02f8 	bic.w	r2, r3, #248	; 0xf8
 8002cc2:	687b      	ldr	r3, [r7, #4]
 8002cc4:	691b      	ldr	r3, [r3, #16]
 8002cc6:	00db      	lsls	r3, r3, #3
 8002cc8:	4929      	ldr	r1, [pc, #164]	; (8002d70 <HAL_RCC_OscConfig+0x280>)
 8002cca:	4313      	orrs	r3, r2
 8002ccc:	600b      	str	r3, [r1, #0]
 8002cce:	e018      	b.n	8002d02 <HAL_RCC_OscConfig+0x212>
 8002cd0:	4b27      	ldr	r3, [pc, #156]	; (8002d70 <HAL_RCC_OscConfig+0x280>)
 8002cd2:	681b      	ldr	r3, [r3, #0]
 8002cd4:	4a26      	ldr	r2, [pc, #152]	; (8002d70 <HAL_RCC_OscConfig+0x280>)
 8002cd6:	f023 0301 	bic.w	r3, r3, #1
 8002cda:	6013      	str	r3, [r2, #0]
 8002cdc:	f7fe f8b0 	bl	8000e40 <HAL_GetTick>
 8002ce0:	6138      	str	r0, [r7, #16]
 8002ce2:	e008      	b.n	8002cf6 <HAL_RCC_OscConfig+0x206>
 8002ce4:	f7fe f8ac 	bl	8000e40 <HAL_GetTick>
 8002ce8:	4602      	mov	r2, r0
 8002cea:	693b      	ldr	r3, [r7, #16]
 8002cec:	1ad3      	subs	r3, r2, r3
 8002cee:	2b02      	cmp	r3, #2
 8002cf0:	d901      	bls.n	8002cf6 <HAL_RCC_OscConfig+0x206>
 8002cf2:	2303      	movs	r3, #3
 8002cf4:	e164      	b.n	8002fc0 <HAL_RCC_OscConfig+0x4d0>
 8002cf6:	4b1e      	ldr	r3, [pc, #120]	; (8002d70 <HAL_RCC_OscConfig+0x280>)
 8002cf8:	681b      	ldr	r3, [r3, #0]
 8002cfa:	f003 0302 	and.w	r3, r3, #2
 8002cfe:	2b00      	cmp	r3, #0
 8002d00:	d1f0      	bne.n	8002ce4 <HAL_RCC_OscConfig+0x1f4>
 8002d02:	687b      	ldr	r3, [r7, #4]
 8002d04:	681b      	ldr	r3, [r3, #0]
 8002d06:	f003 0308 	and.w	r3, r3, #8
 8002d0a:	2b00      	cmp	r3, #0
 8002d0c:	d038      	beq.n	8002d80 <HAL_RCC_OscConfig+0x290>
 8002d0e:	687b      	ldr	r3, [r7, #4]
 8002d10:	695b      	ldr	r3, [r3, #20]
 8002d12:	2b00      	cmp	r3, #0
 8002d14:	d019      	beq.n	8002d4a <HAL_RCC_OscConfig+0x25a>
 8002d16:	4b16      	ldr	r3, [pc, #88]	; (8002d70 <HAL_RCC_OscConfig+0x280>)
 8002d18:	6f5b      	ldr	r3, [r3, #116]	; 0x74
 8002d1a:	4a15      	ldr	r2, [pc, #84]	; (8002d70 <HAL_RCC_OscConfig+0x280>)
 8002d1c:	f043 0301 	orr.w	r3, r3, #1
 8002d20:	6753      	str	r3, [r2, #116]	; 0x74
 8002d22:	f7fe f88d 	bl	8000e40 <HAL_GetTick>
 8002d26:	6138      	str	r0, [r7, #16]
 8002d28:	e008      	b.n	8002d3c <HAL_RCC_OscConfig+0x24c>
 8002d2a:	f7fe f889 	bl	8000e40 <HAL_GetTick>
 8002d2e:	4602      	mov	r2, r0
 8002d30:	693b      	ldr	r3, [r7, #16]
 8002d32:	1ad3      	subs	r3, r2, r3
 8002d34:	2b02      	cmp	r3, #2
 8002d36:	d901      	bls.n	8002d3c <HAL_RCC_OscConfig+0x24c>
 8002d38:	2303      	movs	r3, #3
 8002d3a:	e141      	b.n	8002fc0 <HAL_RCC_OscConfig+0x4d0>
 8002d3c:	4b0c      	ldr	r3, [pc, #48]	; (8002d70 <HAL_RCC_OscConfig+0x280>)
 8002d3e:	6f5b      	ldr	r3, [r3, #116]	; 0x74
 8002d40:	f003 0302 	and.w	r3, r3, #2
 8002d44:	2b00      	cmp	r3, #0
 8002d46:	d0f0      	beq.n	8002d2a <HAL_RCC_OscConfig+0x23a>
 8002d48:	e01a      	b.n	8002d80 <HAL_RCC_OscConfig+0x290>
 8002d4a:	4b09      	ldr	r3, [pc, #36]	; (8002d70 <HAL_RCC_OscConfig+0x280>)
 8002d4c:	6f5b      	ldr	r3, [r3, #116]	; 0x74
 8002d4e:	4a08      	ldr	r2, [pc, #32]	; (8002d70 <HAL_RCC_OscConfig+0x280>)
 8002d50:	f023 0301 	bic.w	r3, r3, #1
 8002d54:	6753      	str	r3, [r2, #116]	; 0x74
 8002d56:	f7fe f873 	bl	8000e40 <HAL_GetTick>
 8002d5a:	6138      	str	r0, [r7, #16]
 8002d5c:	e00a      	b.n	8002d74 <HAL_RCC_OscConfig+0x284>
 8002d5e:	f7fe f86f 	bl	8000e40 <HAL_GetTick>
 8002d62:	4602      	mov	r2, r0
 8002d64:	693b      	ldr	r3, [r7, #16]
 8002d66:	1ad3      	subs	r3, r2, r3
 8002d68:	2b02      	cmp	r3, #2
 8002d6a:	d903      	bls.n	8002d74 <HAL_RCC_OscConfig+0x284>
 8002d6c:	2303      	movs	r3, #3
 8002d6e:	e127      	b.n	8002fc0 <HAL_RCC_OscConfig+0x4d0>
 8002d70:	40023800 	.word	0x40023800
 8002d74:	4b94      	ldr	r3, [pc, #592]	; (8002fc8 <HAL_RCC_OscConfig+0x4d8>)
 8002d76:	6f5b      	ldr	r3, [r3, #116]	; 0x74
 8002d78:	f003 0302 	and.w	r3, r3, #2
 8002d7c:	2b00      	cmp	r3, #0
 8002d7e:	d1ee      	bne.n	8002d5e <HAL_RCC_OscConfig+0x26e>
 8002d80:	687b      	ldr	r3, [r7, #4]
 8002d82:	681b      	ldr	r3, [r3, #0]
 8002d84:	f003 0304 	and.w	r3, r3, #4
 8002d88:	2b00      	cmp	r3, #0
 8002d8a:	f000 80a4 	beq.w	8002ed6 <HAL_RCC_OscConfig+0x3e6>
 8002d8e:	4b8e      	ldr	r3, [pc, #568]	; (8002fc8 <HAL_RCC_OscConfig+0x4d8>)
 8002d90:	6c1b      	ldr	r3, [r3, #64]	; 0x40
 8002d92:	f003 5380 	and.w	r3, r3, #268435456	; 0x10000000
 8002d96:	2b00      	cmp	r3, #0
 8002d98:	d10d      	bne.n	8002db6 <HAL_RCC_OscConfig+0x2c6>
 8002d9a:	4b8b      	ldr	r3, [pc, #556]	; (8002fc8 <HAL_RCC_OscConfig+0x4d8>)
 8002d9c:	6c1b      	ldr	r3, [r3, #64]	; 0x40
 8002d9e:	4a8a      	ldr	r2, [pc, #552]	; (8002fc8 <HAL_RCC_OscConfig+0x4d8>)
 8002da0:	f043 5380 	orr.w	r3, r3, #268435456	; 0x10000000
 8002da4:	6413      	str	r3, [r2, #64]	; 0x40
 8002da6:	4b88      	ldr	r3, [pc, #544]	; (8002fc8 <HAL_RCC_OscConfig+0x4d8>)
 8002da8:	6c1b      	ldr	r3, [r3, #64]	; 0x40
 8002daa:	f003 5380 	and.w	r3, r3, #268435456	; 0x10000000
 8002dae:	60fb      	str	r3, [r7, #12]
 8002db0:	68fb      	ldr	r3, [r7, #12]
 8002db2:	2301      	movs	r3, #1
 8002db4:	75fb      	strb	r3, [r7, #23]
 8002db6:	4b85      	ldr	r3, [pc, #532]	; (8002fcc <HAL_RCC_OscConfig+0x4dc>)
 8002db8:	681b      	ldr	r3, [r3, #0]
 8002dba:	f403 7380 	and.w	r3, r3, #256	; 0x100
 8002dbe:	2b00      	cmp	r3, #0
 8002dc0:	d118      	bne.n	8002df4 <HAL_RCC_OscConfig+0x304>
 8002dc2:	4b82      	ldr	r3, [pc, #520]	; (8002fcc <HAL_RCC_OscConfig+0x4dc>)
 8002dc4:	681b      	ldr	r3, [r3, #0]
 8002dc6:	4a81      	ldr	r2, [pc, #516]	; (8002fcc <HAL_RCC_OscConfig+0x4dc>)
 8002dc8:	f443 7380 	orr.w	r3, r3, #256	; 0x100
 8002dcc:	6013      	str	r3, [r2, #0]
 8002dce:	f7fe f837 	bl	8000e40 <HAL_GetTick>
 8002dd2:	6138      	str	r0, [r7, #16]
 8002dd4:	e008      	b.n	8002de8 <HAL_RCC_OscConfig+0x2f8>
 8002dd6:	f7fe f833 	bl	8000e40 <HAL_GetTick>
 8002dda:	4602      	mov	r2, r0
 8002ddc:	693b      	ldr	r3, [r7, #16]
 8002dde:	1ad3      	subs	r3, r2, r3
 8002de0:	2b64      	cmp	r3, #100	; 0x64
 8002de2:	d901      	bls.n	8002de8 <HAL_RCC_OscConfig+0x2f8>
 8002de4:	2303      	movs	r3, #3
 8002de6:	e0eb      	b.n	8002fc0 <HAL_RCC_OscConfig+0x4d0>
 8002de8:	4b78      	ldr	r3, [pc, #480]	; (8002fcc <HAL_RCC_OscConfig+0x4dc>)
 8002dea:	681b      	ldr	r3, [r3, #0]
 8002dec:	f403 7380 	and.w	r3, r3, #256	; 0x100
 8002df0:	2b00      	cmp	r3, #0
 8002df2:	d0f0      	beq.n	8002dd6 <HAL_RCC_OscConfig+0x2e6>
 8002df4:	687b      	ldr	r3, [r7, #4]
 8002df6:	689b      	ldr	r3, [r3, #8]
 8002df8:	2b01      	cmp	r3, #1
 8002dfa:	d106      	bne.n	8002e0a <HAL_RCC_OscConfig+0x31a>
 8002dfc:	4b72      	ldr	r3, [pc, #456]	; (8002fc8 <HAL_RCC_OscConfig+0x4d8>)
 8002dfe:	6f1b      	ldr	r3, [r3, #112]	; 0x70
 8002e00:	4a71      	ldr	r2, [pc, #452]	; (8002fc8 <HAL_RCC_OscConfig+0x4d8>)
 8002e02:	f043 0301 	orr.w	r3, r3, #1
 8002e06:	6713      	str	r3, [r2, #112]	; 0x70
 8002e08:	e02d      	b.n	8002e66 <HAL_RCC_OscConfig+0x376>
 8002e0a:	687b      	ldr	r3, [r7, #4]
 8002e0c:	689b      	ldr	r3, [r3, #8]
 8002e0e:	2b00      	cmp	r3, #0
 8002e10:	d10c      	bne.n	8002e2c <HAL_RCC_OscConfig+0x33c>
 8002e12:	4b6d      	ldr	r3, [pc, #436]	; (8002fc8 <HAL_RCC_OscConfig+0x4d8>)
 8002e14:	6f1b      	ldr	r3, [r3, #112]	; 0x70
 8002e16:	4a6c      	ldr	r2, [pc, #432]	; (8002fc8 <HAL_RCC_OscConfig+0x4d8>)
 8002e18:	f023 0301 	bic.w	r3, r3, #1
 8002e1c:	6713      	str	r3, [r2, #112]	; 0x70
 8002e1e:	4b6a      	ldr	r3, [pc, #424]	; (8002fc8 <HAL_RCC_OscConfig+0x4d8>)
 8002e20:	6f1b      	ldr	r3, [r3, #112]	; 0x70
 8002e22:	4a69      	ldr	r2, [pc, #420]	; (8002fc8 <HAL_RCC_OscConfig+0x4d8>)
 8002e24:	f023 0304 	bic.w	r3, r3, #4
 8002e28:	6713      	str	r3, [r2, #112]	; 0x70
 8002e2a:	e01c      	b.n	8002e66 <HAL_RCC_OscConfig+0x376>
 8002e2c:	687b      	ldr	r3, [r7, #4]
 8002e2e:	689b      	ldr	r3, [r3, #8]
 8002e30:	2b05      	cmp	r3, #5
 8002e32:	d10c      	bne.n	8002e4e <HAL_RCC_OscConfig+0x35e>
 8002e34:	4b64      	ldr	r3, [pc, #400]	; (8002fc8 <HAL_RCC_OscConfig+0x4d8>)
 8002e36:	6f1b      	ldr	r3, [r3, #112]	; 0x70
 8002e38:	4a63      	ldr	r2, [pc, #396]	; (8002fc8 <HAL_RCC_OscConfig+0x4d8>)
 8002e3a:	f043 0304 	orr.w	r3, r3, #4
 8002e3e:	6713      	str	r3, [r2, #112]	; 0x70
 8002e40:	4b61      	ldr	r3, [pc, #388]	; (8002fc8 <HAL_RCC_OscConfig+0x4d8>)
 8002e42:	6f1b      	ldr	r3, [r3, #112]	; 0x70
 8002e44:	4a60      	ldr	r2, [pc, #384]	; (8002fc8 <HAL_RCC_OscConfig+0x4d8>)
 8002e46:	f043 0301 	orr.w	r3, r3, #1
 8002e4a:	6713      	str	r3, [r2, #112]	; 0x70
 8002e4c:	e00b      	b.n	8002e66 <HAL_RCC_OscConfig+0x376>
 8002e4e:	4b5e      	ldr	r3, [pc, #376]	; (8002fc8 <HAL_RCC_OscConfig+0x4d8>)
 8002e50:	6f1b      	ldr	r3, [r3, #112]	; 0x70
 8002e52:	4a5d      	ldr	r2, [pc, #372]	; (8002fc8 <HAL_RCC_OscConfig+0x4d8>)
 8002e54:	f023 0301 	bic.w	r3, r3, #1
 8002e58:	6713      	str	r3, [r2, #112]	; 0x70
 8002e5a:	4b5b      	ldr	r3, [pc, #364]	; (8002fc8 <HAL_RCC_OscConfig+0x4d8>)
 8002e5c:	6f1b      	ldr	r3, [r3, #112]	; 0x70
 8002e5e:	4a5a      	ldr	r2, [pc, #360]	; (8002fc8 <HAL_RCC_OscConfig+0x4d8>)
 8002e60:	f023 0304 	bic.w	r3, r3, #4
 8002e64:	6713      	str	r3, [r2, #112]	; 0x70
 8002e66:	687b      	ldr	r3, [r7, #4]
 8002e68:	689b      	ldr	r3, [r3, #8]
 8002e6a:	2b00      	cmp	r3, #0
 8002e6c:	d015      	beq.n	8002e9a <HAL_RCC_OscConfig+0x3aa>
 8002e6e:	f7fd ffe7 	bl	8000e40 <HAL_GetTick>
 8002e72:	6138      	str	r0, [r7, #16]
 8002e74:	e00a      	b.n	8002e8c <HAL_RCC_OscConfig+0x39c>
 8002e76:	f7fd ffe3 	bl	8000e40 <HAL_GetTick>
 8002e7a:	4602      	mov	r2, r0
 8002e7c:	693b      	ldr	r3, [r7, #16]
 8002e7e:	1ad3      	subs	r3, r2, r3
 8002e80:	f241 3288 	movw	r2, #5000	; 0x1388
 8002e84:	4293      	cmp	r3, r2
 8002e86:	d901      	bls.n	8002e8c <HAL_RCC_OscConfig+0x39c>
 8002e88:	2303      	movs	r3, #3
 8002e8a:	e099      	b.n	8002fc0 <HAL_RCC_OscConfig+0x4d0>
 8002e8c:	4b4e      	ldr	r3, [pc, #312]	; (8002fc8 <HAL_RCC_OscConfig+0x4d8>)
 8002e8e:	6f1b      	ldr	r3, [r3, #112]	; 0x70
 8002e90:	f003 0302 	and.w	r3, r3, #2
 8002e94:	2b00      	cmp	r3, #0
 8002e96:	d0ee      	beq.n	8002e76 <HAL_RCC_OscConfig+0x386>
 8002e98:	e014      	b.n	8002ec4 <HAL_RCC_OscConfig+0x3d4>
 8002e9a:	f7fd ffd1 	bl	8000e40 <HAL_GetTick>
 8002e9e:	6138      	str	r0, [r7, #16]
 8002ea0:	e00a      	b.n	8002eb8 <HAL_RCC_OscConfig+0x3c8>
 8002ea2:	f7fd ffcd 	bl	8000e40 <HAL_GetTick>
 8002ea6:	4602      	mov	r2, r0
 8002ea8:	693b      	ldr	r3, [r7, #16]
 8002eaa:	1ad3      	subs	r3, r2, r3
 8002eac:	f241 3288 	movw	r2, #5000	; 0x1388
 8002eb0:	4293      	cmp	r3, r2
 8002eb2:	d901      	bls.n	8002eb8 <HAL_RCC_OscConfig+0x3c8>
 8002eb4:	2303      	movs	r3, #3
 8002eb6:	e083      	b.n	8002fc0 <HAL_RCC_OscConfig+0x4d0>
 8002eb8:	4b43      	ldr	r3, [pc, #268]	; (8002fc8 <HAL_RCC_OscConfig+0x4d8>)
 8002eba:	6f1b      	ldr	r3, [r3, #112]	; 0x70
 8002ebc:	f003 0302 	and.w	r3, r3, #2
 8002ec0:	2b00      	cmp	r3, #0
 8002ec2:	d1ee      	bne.n	8002ea2 <HAL_RCC_OscConfig+0x3b2>
 8002ec4:	7dfb      	ldrb	r3, [r7, #23]
 8002ec6:	2b01      	cmp	r3, #1
 8002ec8:	d105      	bne.n	8002ed6 <HAL_RCC_OscConfig+0x3e6>
 8002eca:	4b3f      	ldr	r3, [pc, #252]	; (8002fc8 <HAL_RCC_OscConfig+0x4d8>)
 8002ecc:	6c1b      	ldr	r3, [r3, #64]	; 0x40
 8002ece:	4a3e      	ldr	r2, [pc, #248]	; (8002fc8 <HAL_RCC_OscConfig+0x4d8>)
 8002ed0:	f023 5380 	bic.w	r3, r3, #268435456	; 0x10000000
 8002ed4:	6413      	str	r3, [r2, #64]	; 0x40
 8002ed6:	687b      	ldr	r3, [r7, #4]
 8002ed8:	699b      	ldr	r3, [r3, #24]
 8002eda:	2b00      	cmp	r3, #0
 8002edc:	d06f      	beq.n	8002fbe <HAL_RCC_OscConfig+0x4ce>
 8002ede:	4b3a      	ldr	r3, [pc, #232]	; (8002fc8 <HAL_RCC_OscConfig+0x4d8>)
 8002ee0:	689b      	ldr	r3, [r3, #8]
 8002ee2:	f003 030c 	and.w	r3, r3, #12
 8002ee6:	2b08      	cmp	r3, #8
 8002ee8:	d067      	beq.n	8002fba <HAL_RCC_OscConfig+0x4ca>
 8002eea:	687b      	ldr	r3, [r7, #4]
 8002eec:	699b      	ldr	r3, [r3, #24]
 8002eee:	2b02      	cmp	r3, #2
 8002ef0:	d149      	bne.n	8002f86 <HAL_RCC_OscConfig+0x496>
 8002ef2:	4b35      	ldr	r3, [pc, #212]	; (8002fc8 <HAL_RCC_OscConfig+0x4d8>)
 8002ef4:	681b      	ldr	r3, [r3, #0]
 8002ef6:	4a34      	ldr	r2, [pc, #208]	; (8002fc8 <HAL_RCC_OscConfig+0x4d8>)
 8002ef8:	f023 7380 	bic.w	r3, r3, #16777216	; 0x1000000
 8002efc:	6013      	str	r3, [r2, #0]
 8002efe:	f7fd ff9f 	bl	8000e40 <HAL_GetTick>
 8002f02:	6138      	str	r0, [r7, #16]
 8002f04:	e008      	b.n	8002f18 <HAL_RCC_OscConfig+0x428>
 8002f06:	f7fd ff9b 	bl	8000e40 <HAL_GetTick>
 8002f0a:	4602      	mov	r2, r0
 8002f0c:	693b      	ldr	r3, [r7, #16]
 8002f0e:	1ad3      	subs	r3, r2, r3
 8002f10:	2b02      	cmp	r3, #2
 8002f12:	d901      	bls.n	8002f18 <HAL_RCC_OscConfig+0x428>
 8002f14:	2303      	movs	r3, #3
 8002f16:	e053      	b.n	8002fc0 <HAL_RCC_OscConfig+0x4d0>
 8002f18:	4b2b      	ldr	r3, [pc, #172]	; (8002fc8 <HAL_RCC_OscConfig+0x4d8>)
 8002f1a:	681b      	ldr	r3, [r3, #0]
 8002f1c:	f003 7300 	and.w	r3, r3, #33554432	; 0x2000000
 8002f20:	2b00      	cmp	r3, #0
 8002f22:	d1f0      	bne.n	8002f06 <HAL_RCC_OscConfig+0x416>
 8002f24:	687b      	ldr	r3, [r7, #4]
 8002f26:	69da      	ldr	r2, [r3, #28]
 8002f28:	687b      	ldr	r3, [r7, #4]
 8002f2a:	6a1b      	ldr	r3, [r3, #32]
 8002f2c:	431a      	orrs	r2, r3
 8002f2e:	687b      	ldr	r3, [r7, #4]
 8002f30:	6a5b      	ldr	r3, [r3, #36]	; 0x24
 8002f32:	019b      	lsls	r3, r3, #6
 8002f34:	431a      	orrs	r2, r3
 8002f36:	687b      	ldr	r3, [r7, #4]
 8002f38:	6a9b      	ldr	r3, [r3, #40]	; 0x28
 8002f3a:	085b      	lsrs	r3, r3, #1
 8002f3c:	3b01      	subs	r3, #1
 8002f3e:	041b      	lsls	r3, r3, #16
 8002f40:	431a      	orrs	r2, r3
 8002f42:	687b      	ldr	r3, [r7, #4]
 8002f44:	6adb      	ldr	r3, [r3, #44]	; 0x2c
 8002f46:	061b      	lsls	r3, r3, #24
 8002f48:	4313      	orrs	r3, r2
 8002f4a:	4a1f      	ldr	r2, [pc, #124]	; (8002fc8 <HAL_RCC_OscConfig+0x4d8>)
 8002f4c:	f043 5300 	orr.w	r3, r3, #536870912	; 0x20000000
 8002f50:	6053      	str	r3, [r2, #4]
 8002f52:	4b1d      	ldr	r3, [pc, #116]	; (8002fc8 <HAL_RCC_OscConfig+0x4d8>)
 8002f54:	681b      	ldr	r3, [r3, #0]
 8002f56:	4a1c      	ldr	r2, [pc, #112]	; (8002fc8 <HAL_RCC_OscConfig+0x4d8>)
 8002f58:	f043 7380 	orr.w	r3, r3, #16777216	; 0x1000000
 8002f5c:	6013      	str	r3, [r2, #0]
 8002f5e:	f7fd ff6f 	bl	8000e40 <HAL_GetTick>
 8002f62:	6138      	str	r0, [r7, #16]
 8002f64:	e008      	b.n	8002f78 <HAL_RCC_OscConfig+0x488>
 8002f66:	f7fd ff6b 	bl	8000e40 <HAL_GetTick>
 8002f6a:	4602      	mov	r2, r0
 8002f6c:	693b      	ldr	r3, [r7, #16]
 8002f6e:	1ad3      	subs	r3, r2, r3
 8002f70:	2b02      	cmp	r3, #2
 8002f72:	d901      	bls.n	8002f78 <HAL_RCC_OscConfig+0x488>
 8002f74:	2303      	movs	r3, #3
 8002f76:	e023      	b.n	8002fc0 <HAL_RCC_OscConfig+0x4d0>
 8002f78:	4b13      	ldr	r3, [pc, #76]	; (8002fc8 <HAL_RCC_OscConfig+0x4d8>)
 8002f7a:	681b      	ldr	r3, [r3, #0]
 8002f7c:	f003 7300 	and.w	r3, r3, #33554432	; 0x2000000
 8002f80:	2b00      	cmp	r3, #0
 8002f82:	d0f0      	beq.n	8002f66 <HAL_RCC_OscConfig+0x476>
 8002f84:	e01b      	b.n	8002fbe <HAL_RCC_OscConfig+0x4ce>
 8002f86:	4b10      	ldr	r3, [pc, #64]	; (8002fc8 <HAL_RCC_OscConfig+0x4d8>)
 8002f88:	681b      	ldr	r3, [r3, #0]
 8002f8a:	4a0f      	ldr	r2, [pc, #60]	; (8002fc8 <HAL_RCC_OscConfig+0x4d8>)
 8002f8c:	f023 7380 	bic.w	r3, r3, #16777216	; 0x1000000
 8002f90:	6013      	str	r3, [r2, #0]
 8002f92:	f7fd ff55 	bl	8000e40 <HAL_GetTick>
 8002f96:	6138      	str	r0, [r7, #16]
 8002f98:	e008      	b.n	8002fac <HAL_RCC_OscConfig+0x4bc>
 8002f9a:	f7fd ff51 	bl	8000e40 <HAL_GetTick>
 8002f9e:	4602      	mov	r2, r0
 8002fa0:	693b      	ldr	r3, [r7, #16]
 8002fa2:	1ad3      	subs	r3, r2, r3
 8002fa4:	2b02      	cmp	r3, #2
 8002fa6:	d901      	bls.n	8002fac <HAL_RCC_OscConfig+0x4bc>
 8002fa8:	2303      	movs	r3, #3
 8002faa:	e009      	b.n	8002fc0 <HAL_RCC_OscConfig+0x4d0>
 8002fac:	4b06      	ldr	r3, [pc, #24]	; (8002fc8 <HAL_RCC_OscConfig+0x4d8>)
 8002fae:	681b      	ldr	r3, [r3, #0]
 8002fb0:	f003 7300 	and.w	r3, r3, #33554432	; 0x2000000
 8002fb4:	2b00      	cmp	r3, #0
 8002fb6:	d1f0      	bne.n	8002f9a <HAL_RCC_OscConfig+0x4aa>
 8002fb8:	e001      	b.n	8002fbe <HAL_RCC_OscConfig+0x4ce>
 8002fba:	2301      	movs	r3, #1
 8002fbc:	e000      	b.n	8002fc0 <HAL_RCC_OscConfig+0x4d0>
 8002fbe:	2300      	movs	r3, #0
 8002fc0:	4618      	mov	r0, r3
 8002fc2:	3718      	adds	r7, #24
 8002fc4:	46bd      	mov	sp, r7
 8002fc6:	bd80      	pop	{r7, pc}
 8002fc8:	40023800 	.word	0x40023800
 8002fcc:	40007000 	.word	0x40007000

08002fd0 <HAL_RCC_ClockConfig>:
 8002fd0:	b580      	push	{r7, lr}
 8002fd2:	b084      	sub	sp, #16
 8002fd4:	af00      	add	r7, sp, #0
 8002fd6:	6078      	str	r0, [r7, #4]
 8002fd8:	6039      	str	r1, [r7, #0]
 8002fda:	2300      	movs	r3, #0
 8002fdc:	60fb      	str	r3, [r7, #12]
 8002fde:	687b      	ldr	r3, [r7, #4]
 8002fe0:	2b00      	cmp	r3, #0
 8002fe2:	d101      	bne.n	8002fe8 <HAL_RCC_ClockConfig+0x18>
 8002fe4:	2301      	movs	r3, #1
 8002fe6:	e0ce      	b.n	8003186 <HAL_RCC_ClockConfig+0x1b6>
 8002fe8:	4b69      	ldr	r3, [pc, #420]	; (8003190 <HAL_RCC_ClockConfig+0x1c0>)
 8002fea:	681b      	ldr	r3, [r3, #0]
 8002fec:	f003 030f 	and.w	r3, r3, #15
 8002ff0:	683a      	ldr	r2, [r7, #0]
 8002ff2:	429a      	cmp	r2, r3
 8002ff4:	d910      	bls.n	8003018 <HAL_RCC_ClockConfig+0x48>
 8002ff6:	4b66      	ldr	r3, [pc, #408]	; (8003190 <HAL_RCC_ClockConfig+0x1c0>)
 8002ff8:	681b      	ldr	r3, [r3, #0]
 8002ffa:	f023 020f 	bic.w	r2, r3, #15
 8002ffe:	4964      	ldr	r1, [pc, #400]	; (8003190 <HAL_RCC_ClockConfig+0x1c0>)
 8003000:	683b      	ldr	r3, [r7, #0]
 8003002:	4313      	orrs	r3, r2
 8003004:	600b      	str	r3, [r1, #0]
 8003006:	4b62      	ldr	r3, [pc, #392]	; (8003190 <HAL_RCC_ClockConfig+0x1c0>)
 8003008:	681b      	ldr	r3, [r3, #0]
 800300a:	f003 030f 	and.w	r3, r3, #15
 800300e:	683a      	ldr	r2, [r7, #0]
 8003010:	429a      	cmp	r2, r3
 8003012:	d001      	beq.n	8003018 <HAL_RCC_ClockConfig+0x48>
 8003014:	2301      	movs	r3, #1
 8003016:	e0b6      	b.n	8003186 <HAL_RCC_ClockConfig+0x1b6>
 8003018:	687b      	ldr	r3, [r7, #4]
 800301a:	681b      	ldr	r3, [r3, #0]
 800301c:	f003 0302 	and.w	r3, r3, #2
 8003020:	2b00      	cmp	r3, #0
 8003022:	d020      	beq.n	8003066 <HAL_RCC_ClockConfig+0x96>
 8003024:	687b      	ldr	r3, [r7, #4]
 8003026:	681b      	ldr	r3, [r3, #0]
 8003028:	f003 0304 	and.w	r3, r3, #4
 800302c:	2b00      	cmp	r3, #0
 800302e:	d005      	beq.n	800303c <HAL_RCC_ClockConfig+0x6c>
 8003030:	4b58      	ldr	r3, [pc, #352]	; (8003194 <HAL_RCC_ClockConfig+0x1c4>)
 8003032:	689b      	ldr	r3, [r3, #8]
 8003034:	4a57      	ldr	r2, [pc, #348]	; (8003194 <HAL_RCC_ClockConfig+0x1c4>)
 8003036:	f443 53e0 	orr.w	r3, r3, #7168	; 0x1c00
 800303a:	6093      	str	r3, [r2, #8]
 800303c:	687b      	ldr	r3, [r7, #4]
 800303e:	681b      	ldr	r3, [r3, #0]
 8003040:	f003 0308 	and.w	r3, r3, #8
 8003044:	2b00      	cmp	r3, #0
 8003046:	d005      	beq.n	8003054 <HAL_RCC_ClockConfig+0x84>
 8003048:	4b52      	ldr	r3, [pc, #328]	; (8003194 <HAL_RCC_ClockConfig+0x1c4>)
 800304a:	689b      	ldr	r3, [r3, #8]
 800304c:	4a51      	ldr	r2, [pc, #324]	; (8003194 <HAL_RCC_ClockConfig+0x1c4>)
 800304e:	f443 4360 	orr.w	r3, r3, #57344	; 0xe000
 8003052:	6093      	str	r3, [r2, #8]
 8003054:	4b4f      	ldr	r3, [pc, #316]	; (8003194 <HAL_RCC_ClockConfig+0x1c4>)
 8003056:	689b      	ldr	r3, [r3, #8]
 8003058:	f023 02f0 	bic.w	r2, r3, #240	; 0xf0
 800305c:	687b      	ldr	r3, [r7, #4]
 800305e:	689b      	ldr	r3, [r3, #8]
 8003060:	494c      	ldr	r1, [pc, #304]	; (8003194 <HAL_RCC_ClockConfig+0x1c4>)
 8003062:	4313      	orrs	r3, r2
 8003064:	608b      	str	r3, [r1, #8]
 8003066:	687b      	ldr	r3, [r7, #4]
 8003068:	681b      	ldr	r3, [r3, #0]
 800306a:	f003 0301 	and.w	r3, r3, #1
 800306e:	2b00      	cmp	r3, #0
 8003070:	d040      	beq.n	80030f4 <HAL_RCC_ClockConfig+0x124>
 8003072:	687b      	ldr	r3, [r7, #4]
 8003074:	685b      	ldr	r3, [r3, #4]
 8003076:	2b01      	cmp	r3, #1
 8003078:	d107      	bne.n	800308a <HAL_RCC_ClockConfig+0xba>
 800307a:	4b46      	ldr	r3, [pc, #280]	; (8003194 <HAL_RCC_ClockConfig+0x1c4>)
 800307c:	681b      	ldr	r3, [r3, #0]
 800307e:	f403 3300 	and.w	r3, r3, #131072	; 0x20000
 8003082:	2b00      	cmp	r3, #0
 8003084:	d115      	bne.n	80030b2 <HAL_RCC_ClockConfig+0xe2>
 8003086:	2301      	movs	r3, #1
 8003088:	e07d      	b.n	8003186 <HAL_RCC_ClockConfig+0x1b6>
 800308a:	687b      	ldr	r3, [r7, #4]
 800308c:	685b      	ldr	r3, [r3, #4]
 800308e:	2b02      	cmp	r3, #2
 8003090:	d107      	bne.n	80030a2 <HAL_RCC_ClockConfig+0xd2>
 8003092:	4b40      	ldr	r3, [pc, #256]	; (8003194 <HAL_RCC_ClockConfig+0x1c4>)
 8003094:	681b      	ldr	r3, [r3, #0]
 8003096:	f003 7300 	and.w	r3, r3, #33554432	; 0x2000000
 800309a:	2b00      	cmp	r3, #0
 800309c:	d109      	bne.n	80030b2 <HAL_RCC_ClockConfig+0xe2>
 800309e:	2301      	movs	r3, #1
 80030a0:	e071      	b.n	8003186 <HAL_RCC_ClockConfig+0x1b6>
 80030a2:	4b3c      	ldr	r3, [pc, #240]	; (8003194 <HAL_RCC_ClockConfig+0x1c4>)
 80030a4:	681b      	ldr	r3, [r3, #0]
 80030a6:	f003 0302 	and.w	r3, r3, #2
 80030aa:	2b00      	cmp	r3, #0
 80030ac:	d101      	bne.n	80030b2 <HAL_RCC_ClockConfig+0xe2>
 80030ae:	2301      	movs	r3, #1
 80030b0:	e069      	b.n	8003186 <HAL_RCC_ClockConfig+0x1b6>
 80030b2:	4b38      	ldr	r3, [pc, #224]	; (8003194 <HAL_RCC_ClockConfig+0x1c4>)
 80030b4:	689b      	ldr	r3, [r3, #8]
 80030b6:	f023 0203 	bic.w	r2, r3, #3
 80030ba:	687b      	ldr	r3, [r7, #4]
 80030bc:	685b      	ldr	r3, [r3, #4]
 80030be:	4935      	ldr	r1, [pc, #212]	; (8003194 <HAL_RCC_ClockConfig+0x1c4>)
 80030c0:	4313      	orrs	r3, r2
 80030c2:	608b      	str	r3, [r1, #8]
 80030c4:	f7fd febc 	bl	8000e40 <HAL_GetTick>
 80030c8:	60f8      	str	r0, [r7, #12]
 80030ca:	e00a      	b.n	80030e2 <HAL_RCC_ClockConfig+0x112>
 80030cc:	f7fd feb8 	bl	8000e40 <HAL_GetTick>
 80030d0:	4602      	mov	r2, r0
 80030d2:	68fb      	ldr	r3, [r7, #12]
 80030d4:	1ad3      	subs	r3, r2, r3
 80030d6:	f241 3288 	movw	r2, #5000	; 0x1388
 80030da:	4293      	cmp	r3, r2
 80030dc:	d901      	bls.n	80030e2 <HAL_RCC_ClockConfig+0x112>
 80030de:	2303      	movs	r3, #3
 80030e0:	e051      	b.n	8003186 <HAL_RCC_ClockConfig+0x1b6>
 80030e2:	4b2c      	ldr	r3, [pc, #176]	; (8003194 <HAL_RCC_ClockConfig+0x1c4>)
 80030e4:	689b      	ldr	r3, [r3, #8]
 80030e6:	f003 020c 	and.w	r2, r3, #12
 80030ea:	687b      	ldr	r3, [r7, #4]
 80030ec:	685b      	ldr	r3, [r3, #4]
 80030ee:	009b      	lsls	r3, r3, #2
 80030f0:	429a      	cmp	r2, r3
 80030f2:	d1eb      	bne.n	80030cc <HAL_RCC_ClockConfig+0xfc>
 80030f4:	4b26      	ldr	r3, [pc, #152]	; (8003190 <HAL_RCC_ClockConfig+0x1c0>)
 80030f6:	681b      	ldr	r3, [r3, #0]
 80030f8:	f003 030f 	and.w	r3, r3, #15
 80030fc:	683a      	ldr	r2, [r7, #0]
 80030fe:	429a      	cmp	r2, r3
 8003100:	d210      	bcs.n	8003124 <HAL_RCC_ClockConfig+0x154>
 8003102:	4b23      	ldr	r3, [pc, #140]	; (8003190 <HAL_RCC_ClockConfig+0x1c0>)
 8003104:	681b      	ldr	r3, [r3, #0]
 8003106:	f023 020f 	bic.w	r2, r3, #15
 800310a:	4921      	ldr	r1, [pc, #132]	; (8003190 <HAL_RCC_ClockConfig+0x1c0>)
 800310c:	683b      	ldr	r3, [r7, #0]
 800310e:	4313      	orrs	r3, r2
 8003110:	600b      	str	r3, [r1, #0]
 8003112:	4b1f      	ldr	r3, [pc, #124]	; (8003190 <HAL_RCC_ClockConfig+0x1c0>)
 8003114:	681b      	ldr	r3, [r3, #0]
 8003116:	f003 030f 	and.w	r3, r3, #15
 800311a:	683a      	ldr	r2, [r7, #0]
 800311c:	429a      	cmp	r2, r3
 800311e:	d001      	beq.n	8003124 <HAL_RCC_ClockConfig+0x154>
 8003120:	2301      	movs	r3, #1
 8003122:	e030      	b.n	8003186 <HAL_RCC_ClockConfig+0x1b6>
 8003124:	687b      	ldr	r3, [r7, #4]
 8003126:	681b      	ldr	r3, [r3, #0]
 8003128:	f003 0304 	and.w	r3, r3, #4
 800312c:	2b00      	cmp	r3, #0
 800312e:	d008      	beq.n	8003142 <HAL_RCC_ClockConfig+0x172>
 8003130:	4b18      	ldr	r3, [pc, #96]	; (8003194 <HAL_RCC_ClockConfig+0x1c4>)
 8003132:	689b      	ldr	r3, [r3, #8]
 8003134:	f423 52e0 	bic.w	r2, r3, #7168	; 0x1c00
 8003138:	687b      	ldr	r3, [r7, #4]
 800313a:	68db      	ldr	r3, [r3, #12]
 800313c:	4915      	ldr	r1, [pc, #84]	; (8003194 <HAL_RCC_ClockConfig+0x1c4>)
 800313e:	4313      	orrs	r3, r2
 8003140:	608b      	str	r3, [r1, #8]
 8003142:	687b      	ldr	r3, [r7, #4]
 8003144:	681b      	ldr	r3, [r3, #0]
 8003146:	f003 0308 	and.w	r3, r3, #8
 800314a:	2b00      	cmp	r3, #0
 800314c:	d009      	beq.n	8003162 <HAL_RCC_ClockConfig+0x192>
 800314e:	4b11      	ldr	r3, [pc, #68]	; (8003194 <HAL_RCC_ClockConfig+0x1c4>)
 8003150:	689b      	ldr	r3, [r3, #8]
 8003152:	f423 4260 	bic.w	r2, r3, #57344	; 0xe000
 8003156:	687b      	ldr	r3, [r7, #4]
 8003158:	691b      	ldr	r3, [r3, #16]
 800315a:	00db      	lsls	r3, r3, #3
 800315c:	490d      	ldr	r1, [pc, #52]	; (8003194 <HAL_RCC_ClockConfig+0x1c4>)
 800315e:	4313      	orrs	r3, r2
 8003160:	608b      	str	r3, [r1, #8]
 8003162:	f000 f81d 	bl	80031a0 <HAL_RCC_GetSysClockFreq>
 8003166:	4601      	mov	r1, r0
 8003168:	4b0a      	ldr	r3, [pc, #40]	; (8003194 <HAL_RCC_ClockConfig+0x1c4>)
 800316a:	689b      	ldr	r3, [r3, #8]
 800316c:	091b      	lsrs	r3, r3, #4
 800316e:	f003 030f 	and.w	r3, r3, #15
 8003172:	4a09      	ldr	r2, [pc, #36]	; (8003198 <HAL_RCC_ClockConfig+0x1c8>)
 8003174:	5cd3      	ldrb	r3, [r2, r3]
 8003176:	fa21 f303 	lsr.w	r3, r1, r3
 800317a:	4a08      	ldr	r2, [pc, #32]	; (800319c <HAL_RCC_ClockConfig+0x1cc>)
 800317c:	6013      	str	r3, [r2, #0]
 800317e:	2000      	movs	r0, #0
 8003180:	f7fd fe1a 	bl	8000db8 <HAL_InitTick>
 8003184:	2300      	movs	r3, #0
 8003186:	4618      	mov	r0, r3
 8003188:	3710      	adds	r7, #16
 800318a:	46bd      	mov	sp, r7
 800318c:	bd80      	pop	{r7, pc}
 800318e:	bf00      	nop
 8003190:	40023c00 	.word	0x40023c00
 8003194:	40023800 	.word	0x40023800
 8003198:	08007e30 	.word	0x08007e30
 800319c:	2000000c 	.word	0x2000000c

080031a0 <HAL_RCC_GetSysClockFreq>:
 80031a0:	b5f0      	push	{r4, r5, r6, r7, lr}
 80031a2:	b085      	sub	sp, #20
 80031a4:	af00      	add	r7, sp, #0
 80031a6:	2300      	movs	r3, #0
 80031a8:	607b      	str	r3, [r7, #4]
 80031aa:	2300      	movs	r3, #0
 80031ac:	60fb      	str	r3, [r7, #12]
 80031ae:	2300      	movs	r3, #0
 80031b0:	603b      	str	r3, [r7, #0]
 80031b2:	2300      	movs	r3, #0
 80031b4:	60bb      	str	r3, [r7, #8]
 80031b6:	4b63      	ldr	r3, [pc, #396]	; (8003344 <HAL_RCC_GetSysClockFreq+0x1a4>)
 80031b8:	689b      	ldr	r3, [r3, #8]
 80031ba:	f003 030c 	and.w	r3, r3, #12
 80031be:	2b04      	cmp	r3, #4
 80031c0:	d007      	beq.n	80031d2 <HAL_RCC_GetSysClockFreq+0x32>
 80031c2:	2b08      	cmp	r3, #8
 80031c4:	d008      	beq.n	80031d8 <HAL_RCC_GetSysClockFreq+0x38>
 80031c6:	2b00      	cmp	r3, #0
 80031c8:	f040 80b4 	bne.w	8003334 <HAL_RCC_GetSysClockFreq+0x194>
 80031cc:	4b5e      	ldr	r3, [pc, #376]	; (8003348 <HAL_RCC_GetSysClockFreq+0x1a8>)
 80031ce:	60bb      	str	r3, [r7, #8]
 80031d0:	e0b3      	b.n	800333a <HAL_RCC_GetSysClockFreq+0x19a>
 80031d2:	4b5e      	ldr	r3, [pc, #376]	; (800334c <HAL_RCC_GetSysClockFreq+0x1ac>)
 80031d4:	60bb      	str	r3, [r7, #8]
 80031d6:	e0b0      	b.n	800333a <HAL_RCC_GetSysClockFreq+0x19a>
 80031d8:	4b5a      	ldr	r3, [pc, #360]	; (8003344 <HAL_RCC_GetSysClockFreq+0x1a4>)
 80031da:	685b      	ldr	r3, [r3, #4]
 80031dc:	f003 033f 	and.w	r3, r3, #63	; 0x3f
 80031e0:	607b      	str	r3, [r7, #4]
 80031e2:	4b58      	ldr	r3, [pc, #352]	; (8003344 <HAL_RCC_GetSysClockFreq+0x1a4>)
 80031e4:	685b      	ldr	r3, [r3, #4]
 80031e6:	f403 0380 	and.w	r3, r3, #4194304	; 0x400000
 80031ea:	2b00      	cmp	r3, #0
 80031ec:	d04a      	beq.n	8003284 <HAL_RCC_GetSysClockFreq+0xe4>
 80031ee:	4b55      	ldr	r3, [pc, #340]	; (8003344 <HAL_RCC_GetSysClockFreq+0x1a4>)
 80031f0:	685b      	ldr	r3, [r3, #4]
 80031f2:	099b      	lsrs	r3, r3, #6
 80031f4:	f04f 0400 	mov.w	r4, #0
 80031f8:	f240 11ff 	movw	r1, #511	; 0x1ff
 80031fc:	f04f 0200 	mov.w	r2, #0
 8003200:	ea03 0501 	and.w	r5, r3, r1
 8003204:	ea04 0602 	and.w	r6, r4, r2
 8003208:	4629      	mov	r1, r5
 800320a:	4632      	mov	r2, r6
 800320c:	f04f 0300 	mov.w	r3, #0
 8003210:	f04f 0400 	mov.w	r4, #0
 8003214:	0154      	lsls	r4, r2, #5
 8003216:	ea44 64d1 	orr.w	r4, r4, r1, lsr #27
 800321a:	014b      	lsls	r3, r1, #5
 800321c:	4619      	mov	r1, r3
 800321e:	4622      	mov	r2, r4
 8003220:	1b49      	subs	r1, r1, r5
 8003222:	eb62 0206 	sbc.w	r2, r2, r6
 8003226:	f04f 0300 	mov.w	r3, #0
 800322a:	f04f 0400 	mov.w	r4, #0
 800322e:	0194      	lsls	r4, r2, #6
 8003230:	ea44 6491 	orr.w	r4, r4, r1, lsr #26
 8003234:	018b      	lsls	r3, r1, #6
 8003236:	1a5b      	subs	r3, r3, r1
 8003238:	eb64 0402 	sbc.w	r4, r4, r2
 800323c:	f04f 0100 	mov.w	r1, #0
 8003240:	f04f 0200 	mov.w	r2, #0
 8003244:	00e2      	lsls	r2, r4, #3
 8003246:	ea42 7253 	orr.w	r2, r2, r3, lsr #29
 800324a:	00d9      	lsls	r1, r3, #3
 800324c:	460b      	mov	r3, r1
 800324e:	4614      	mov	r4, r2
 8003250:	195b      	adds	r3, r3, r5
 8003252:	eb44 0406 	adc.w	r4, r4, r6
 8003256:	f04f 0100 	mov.w	r1, #0
 800325a:	f04f 0200 	mov.w	r2, #0
 800325e:	0262      	lsls	r2, r4, #9
 8003260:	ea42 52d3 	orr.w	r2, r2, r3, lsr #23
 8003264:	0259      	lsls	r1, r3, #9
 8003266:	460b      	mov	r3, r1
 8003268:	4614      	mov	r4, r2
 800326a:	4618      	mov	r0, r3
 800326c:	4621      	mov	r1, r4
 800326e:	687b      	ldr	r3, [r7, #4]
 8003270:	f04f 0400 	mov.w	r4, #0
 8003274:	461a      	mov	r2, r3
 8003276:	4623      	mov	r3, r4
 8003278:	f7fd fc10 	bl	8000a9c <__aeabi_uldivmod>
 800327c:	4603      	mov	r3, r0
 800327e:	460c      	mov	r4, r1
 8003280:	60fb      	str	r3, [r7, #12]
 8003282:	e049      	b.n	8003318 <HAL_RCC_GetSysClockFreq+0x178>
 8003284:	4b2f      	ldr	r3, [pc, #188]	; (8003344 <HAL_RCC_GetSysClockFreq+0x1a4>)
 8003286:	685b      	ldr	r3, [r3, #4]
 8003288:	099b      	lsrs	r3, r3, #6
 800328a:	f04f 0400 	mov.w	r4, #0
 800328e:	f240 11ff 	movw	r1, #511	; 0x1ff
 8003292:	f04f 0200 	mov.w	r2, #0
 8003296:	ea03 0501 	and.w	r5, r3, r1
 800329a:	ea04 0602 	and.w	r6, r4, r2
 800329e:	4629      	mov	r1, r5
 80032a0:	4632      	mov	r2, r6
 80032a2:	f04f 0300 	mov.w	r3, #0
 80032a6:	f04f 0400 	mov.w	r4, #0
 80032aa:	0154      	lsls	r4, r2, #5
 80032ac:	ea44 64d1 	orr.w	r4, r4, r1, lsr #27
 80032b0:	014b      	lsls	r3, r1, #5
 80032b2:	4619      	mov	r1, r3
 80032b4:	4622      	mov	r2, r4
 80032b6:	1b49      	subs	r1, r1, r5
 80032b8:	eb62 0206 	sbc.w	r2, r2, r6
 80032bc:	f04f 0300 	mov.w	r3, #0
 80032c0:	f04f 0400 	mov.w	r4, #0
 80032c4:	0194      	lsls	r4, r2, #6
 80032c6:	ea44 6491 	orr.w	r4, r4, r1, lsr #26
 80032ca:	018b      	lsls	r3, r1, #6
 80032cc:	1a5b      	subs	r3, r3, r1
 80032ce:	eb64 0402 	sbc.w	r4, r4, r2
 80032d2:	f04f 0100 	mov.w	r1, #0
 80032d6:	f04f 0200 	mov.w	r2, #0
 80032da:	00e2      	lsls	r2, r4, #3
 80032dc:	ea42 7253 	orr.w	r2, r2, r3, lsr #29
 80032e0:	00d9      	lsls	r1, r3, #3
 80032e2:	460b      	mov	r3, r1
 80032e4:	4614      	mov	r4, r2
 80032e6:	195b      	adds	r3, r3, r5
 80032e8:	eb44 0406 	adc.w	r4, r4, r6
 80032ec:	f04f 0100 	mov.w	r1, #0
 80032f0:	f04f 0200 	mov.w	r2, #0
 80032f4:	02a2      	lsls	r2, r4, #10
 80032f6:	ea42 5293 	orr.w	r2, r2, r3, lsr #22
 80032fa:	0299      	lsls	r1, r3, #10
 80032fc:	460b      	mov	r3, r1
 80032fe:	4614      	mov	r4, r2
 8003300:	4618      	mov	r0, r3
 8003302:	4621      	mov	r1, r4
 8003304:	687b      	ldr	r3, [r7, #4]
 8003306:	f04f 0400 	mov.w	r4, #0
 800330a:	461a      	mov	r2, r3
 800330c:	4623      	mov	r3, r4
 800330e:	f7fd fbc5 	bl	8000a9c <__aeabi_uldivmod>
 8003312:	4603      	mov	r3, r0
 8003314:	460c      	mov	r4, r1
 8003316:	60fb      	str	r3, [r7, #12]
 8003318:	4b0a      	ldr	r3, [pc, #40]	; (8003344 <HAL_RCC_GetSysClockFreq+0x1a4>)
 800331a:	685b      	ldr	r3, [r3, #4]
 800331c:	0c1b      	lsrs	r3, r3, #16
 800331e:	f003 0303 	and.w	r3, r3, #3
 8003322:	3301      	adds	r3, #1
 8003324:	005b      	lsls	r3, r3, #1
 8003326:	603b      	str	r3, [r7, #0]
 8003328:	68fa      	ldr	r2, [r7, #12]
 800332a:	683b      	ldr	r3, [r7, #0]
 800332c:	fbb2 f3f3 	udiv	r3, r2, r3
 8003330:	60bb      	str	r3, [r7, #8]
 8003332:	e002      	b.n	800333a <HAL_RCC_GetSysClockFreq+0x19a>
 8003334:	4b04      	ldr	r3, [pc, #16]	; (8003348 <HAL_RCC_GetSysClockFreq+0x1a8>)
 8003336:	60bb      	str	r3, [r7, #8]
 8003338:	bf00      	nop
 800333a:	68bb      	ldr	r3, [r7, #8]
 800333c:	4618      	mov	r0, r3
 800333e:	3714      	adds	r7, #20
 8003340:	46bd      	mov	sp, r7
 8003342:	bdf0      	pop	{r4, r5, r6, r7, pc}
 8003344:	40023800 	.word	0x40023800
 8003348:	00f42400 	.word	0x00f42400
 800334c:	007a1200 	.word	0x007a1200

08003350 <HAL_RCC_GetHCLKFreq>:
 8003350:	b480      	push	{r7}
 8003352:	af00      	add	r7, sp, #0
 8003354:	4b03      	ldr	r3, [pc, #12]	; (8003364 <HAL_RCC_GetHCLKFreq+0x14>)
 8003356:	681b      	ldr	r3, [r3, #0]
 8003358:	4618      	mov	r0, r3
 800335a:	46bd      	mov	sp, r7
 800335c:	f85d 7b04 	ldr.w	r7, [sp], #4
 8003360:	4770      	bx	lr
 8003362:	bf00      	nop
 8003364:	2000000c 	.word	0x2000000c

08003368 <HAL_RCC_GetPCLK1Freq>:
 8003368:	b580      	push	{r7, lr}
 800336a:	af00      	add	r7, sp, #0
 800336c:	f7ff fff0 	bl	8003350 <HAL_RCC_GetHCLKFreq>
 8003370:	4601      	mov	r1, r0
 8003372:	4b05      	ldr	r3, [pc, #20]	; (8003388 <HAL_RCC_GetPCLK1Freq+0x20>)
 8003374:	689b      	ldr	r3, [r3, #8]
 8003376:	0a9b      	lsrs	r3, r3, #10
 8003378:	f003 0307 	and.w	r3, r3, #7
 800337c:	4a03      	ldr	r2, [pc, #12]	; (800338c <HAL_RCC_GetPCLK1Freq+0x24>)
 800337e:	5cd3      	ldrb	r3, [r2, r3]
 8003380:	fa21 f303 	lsr.w	r3, r1, r3
 8003384:	4618      	mov	r0, r3
 8003386:	bd80      	pop	{r7, pc}
 8003388:	40023800 	.word	0x40023800
 800338c:	08007e40 	.word	0x08007e40

08003390 <HAL_RCC_GetPCLK2Freq>:
 8003390:	b580      	push	{r7, lr}
 8003392:	af00      	add	r7, sp, #0
 8003394:	f7ff ffdc 	bl	8003350 <HAL_RCC_GetHCLKFreq>
 8003398:	4601      	mov	r1, r0
 800339a:	4b05      	ldr	r3, [pc, #20]	; (80033b0 <HAL_RCC_GetPCLK2Freq+0x20>)
 800339c:	689b      	ldr	r3, [r3, #8]
 800339e:	0b5b      	lsrs	r3, r3, #13
 80033a0:	f003 0307 	and.w	r3, r3, #7
 80033a4:	4a03      	ldr	r2, [pc, #12]	; (80033b4 <HAL_RCC_GetPCLK2Freq+0x24>)
 80033a6:	5cd3      	ldrb	r3, [r2, r3]
 80033a8:	fa21 f303 	lsr.w	r3, r1, r3
 80033ac:	4618      	mov	r0, r3
 80033ae:	bd80      	pop	{r7, pc}
 80033b0:	40023800 	.word	0x40023800
 80033b4:	08007e40 	.word	0x08007e40

080033b8 <HAL_RCCEx_PeriphCLKConfig>:
 80033b8:	b580      	push	{r7, lr}
 80033ba:	b088      	sub	sp, #32
 80033bc:	af00      	add	r7, sp, #0
 80033be:	6078      	str	r0, [r7, #4]
 80033c0:	2300      	movs	r3, #0
 80033c2:	617b      	str	r3, [r7, #20]
 80033c4:	2300      	movs	r3, #0
 80033c6:	613b      	str	r3, [r7, #16]
 80033c8:	2300      	movs	r3, #0
 80033ca:	60fb      	str	r3, [r7, #12]
 80033cc:	2300      	movs	r3, #0
 80033ce:	61fb      	str	r3, [r7, #28]
 80033d0:	2300      	movs	r3, #0
 80033d2:	61bb      	str	r3, [r7, #24]
 80033d4:	687b      	ldr	r3, [r7, #4]
 80033d6:	681b      	ldr	r3, [r3, #0]
 80033d8:	f003 0301 	and.w	r3, r3, #1
 80033dc:	2b00      	cmp	r3, #0
 80033de:	d012      	beq.n	8003406 <HAL_RCCEx_PeriphCLKConfig+0x4e>
 80033e0:	4b69      	ldr	r3, [pc, #420]	; (8003588 <HAL_RCCEx_PeriphCLKConfig+0x1d0>)
 80033e2:	689b      	ldr	r3, [r3, #8]
 80033e4:	4a68      	ldr	r2, [pc, #416]	; (8003588 <HAL_RCCEx_PeriphCLKConfig+0x1d0>)
 80033e6:	f423 0300 	bic.w	r3, r3, #8388608	; 0x800000
 80033ea:	6093      	str	r3, [r2, #8]
 80033ec:	4b66      	ldr	r3, [pc, #408]	; (8003588 <HAL_RCCEx_PeriphCLKConfig+0x1d0>)
 80033ee:	689a      	ldr	r2, [r3, #8]
 80033f0:	687b      	ldr	r3, [r7, #4]
 80033f2:	6b5b      	ldr	r3, [r3, #52]	; 0x34
 80033f4:	4964      	ldr	r1, [pc, #400]	; (8003588 <HAL_RCCEx_PeriphCLKConfig+0x1d0>)
 80033f6:	4313      	orrs	r3, r2
 80033f8:	608b      	str	r3, [r1, #8]
 80033fa:	687b      	ldr	r3, [r7, #4]
 80033fc:	6b5b      	ldr	r3, [r3, #52]	; 0x34
 80033fe:	2b00      	cmp	r3, #0
 8003400:	d101      	bne.n	8003406 <HAL_RCCEx_PeriphCLKConfig+0x4e>
 8003402:	2301      	movs	r3, #1
 8003404:	61fb      	str	r3, [r7, #28]
 8003406:	687b      	ldr	r3, [r7, #4]
 8003408:	681b      	ldr	r3, [r3, #0]
 800340a:	f403 2300 	and.w	r3, r3, #524288	; 0x80000
 800340e:	2b00      	cmp	r3, #0
 8003410:	d017      	beq.n	8003442 <HAL_RCCEx_PeriphCLKConfig+0x8a>
 8003412:	4b5d      	ldr	r3, [pc, #372]	; (8003588 <HAL_RCCEx_PeriphCLKConfig+0x1d0>)
 8003414:	f8d3 308c 	ldr.w	r3, [r3, #140]	; 0x8c
 8003418:	f423 1240 	bic.w	r2, r3, #3145728	; 0x300000
 800341c:	687b      	ldr	r3, [r7, #4]
 800341e:	6bdb      	ldr	r3, [r3, #60]	; 0x3c
 8003420:	4959      	ldr	r1, [pc, #356]	; (8003588 <HAL_RCCEx_PeriphCLKConfig+0x1d0>)
 8003422:	4313      	orrs	r3, r2
 8003424:	f8c1 308c 	str.w	r3, [r1, #140]	; 0x8c
 8003428:	687b      	ldr	r3, [r7, #4]
 800342a:	6bdb      	ldr	r3, [r3, #60]	; 0x3c
 800342c:	f5b3 1f80 	cmp.w	r3, #1048576	; 0x100000
 8003430:	d101      	bne.n	8003436 <HAL_RCCEx_PeriphCLKConfig+0x7e>
 8003432:	2301      	movs	r3, #1
 8003434:	61fb      	str	r3, [r7, #28]
 8003436:	687b      	ldr	r3, [r7, #4]
 8003438:	6bdb      	ldr	r3, [r3, #60]	; 0x3c
 800343a:	2b00      	cmp	r3, #0
 800343c:	d101      	bne.n	8003442 <HAL_RCCEx_PeriphCLKConfig+0x8a>
 800343e:	2301      	movs	r3, #1
 8003440:	61bb      	str	r3, [r7, #24]
 8003442:	687b      	ldr	r3, [r7, #4]
 8003444:	681b      	ldr	r3, [r3, #0]
 8003446:	f403 1380 	and.w	r3, r3, #1048576	; 0x100000
 800344a:	2b00      	cmp	r3, #0
 800344c:	d017      	beq.n	800347e <HAL_RCCEx_PeriphCLKConfig+0xc6>
 800344e:	4b4e      	ldr	r3, [pc, #312]	; (8003588 <HAL_RCCEx_PeriphCLKConfig+0x1d0>)
 8003450:	f8d3 308c 	ldr.w	r3, [r3, #140]	; 0x8c
 8003454:	f423 0240 	bic.w	r2, r3, #12582912	; 0xc00000
 8003458:	687b      	ldr	r3, [r7, #4]
 800345a:	6c1b      	ldr	r3, [r3, #64]	; 0x40
 800345c:	494a      	ldr	r1, [pc, #296]	; (8003588 <HAL_RCCEx_PeriphCLKConfig+0x1d0>)
 800345e:	4313      	orrs	r3, r2
 8003460:	f8c1 308c 	str.w	r3, [r1, #140]	; 0x8c
 8003464:	687b      	ldr	r3, [r7, #4]
 8003466:	6c1b      	ldr	r3, [r3, #64]	; 0x40
 8003468:	f5b3 0f80 	cmp.w	r3, #4194304	; 0x400000
 800346c:	d101      	bne.n	8003472 <HAL_RCCEx_PeriphCLKConfig+0xba>
 800346e:	2301      	movs	r3, #1
 8003470:	61fb      	str	r3, [r7, #28]
 8003472:	687b      	ldr	r3, [r7, #4]
 8003474:	6c1b      	ldr	r3, [r3, #64]	; 0x40
 8003476:	2b00      	cmp	r3, #0
 8003478:	d101      	bne.n	800347e <HAL_RCCEx_PeriphCLKConfig+0xc6>
 800347a:	2301      	movs	r3, #1
 800347c:	61bb      	str	r3, [r7, #24]
 800347e:	687b      	ldr	r3, [r7, #4]
 8003480:	681b      	ldr	r3, [r3, #0]
 8003482:	f003 7380 	and.w	r3, r3, #16777216	; 0x1000000
 8003486:	2b00      	cmp	r3, #0
 8003488:	d001      	beq.n	800348e <HAL_RCCEx_PeriphCLKConfig+0xd6>
 800348a:	2301      	movs	r3, #1
 800348c:	61fb      	str	r3, [r7, #28]
 800348e:	687b      	ldr	r3, [r7, #4]
 8003490:	681b      	ldr	r3, [r3, #0]
 8003492:	f003 0320 	and.w	r3, r3, #32
 8003496:	2b00      	cmp	r3, #0
 8003498:	f000 808b 	beq.w	80035b2 <HAL_RCCEx_PeriphCLKConfig+0x1fa>
 800349c:	4b3a      	ldr	r3, [pc, #232]	; (8003588 <HAL_RCCEx_PeriphCLKConfig+0x1d0>)
 800349e:	6c1b      	ldr	r3, [r3, #64]	; 0x40
 80034a0:	4a39      	ldr	r2, [pc, #228]	; (8003588 <HAL_RCCEx_PeriphCLKConfig+0x1d0>)
 80034a2:	f043 5380 	orr.w	r3, r3, #268435456	; 0x10000000
 80034a6:	6413      	str	r3, [r2, #64]	; 0x40
 80034a8:	4b37      	ldr	r3, [pc, #220]	; (8003588 <HAL_RCCEx_PeriphCLKConfig+0x1d0>)
 80034aa:	6c1b      	ldr	r3, [r3, #64]	; 0x40
 80034ac:	f003 5380 	and.w	r3, r3, #268435456	; 0x10000000
 80034b0:	60bb      	str	r3, [r7, #8]
 80034b2:	68bb      	ldr	r3, [r7, #8]
 80034b4:	4b35      	ldr	r3, [pc, #212]	; (800358c <HAL_RCCEx_PeriphCLKConfig+0x1d4>)
 80034b6:	681b      	ldr	r3, [r3, #0]
 80034b8:	4a34      	ldr	r2, [pc, #208]	; (800358c <HAL_RCCEx_PeriphCLKConfig+0x1d4>)
 80034ba:	f443 7380 	orr.w	r3, r3, #256	; 0x100
 80034be:	6013      	str	r3, [r2, #0]
 80034c0:	f7fd fcbe 	bl	8000e40 <HAL_GetTick>
 80034c4:	6178      	str	r0, [r7, #20]
 80034c6:	e008      	b.n	80034da <HAL_RCCEx_PeriphCLKConfig+0x122>
 80034c8:	f7fd fcba 	bl	8000e40 <HAL_GetTick>
 80034cc:	4602      	mov	r2, r0
 80034ce:	697b      	ldr	r3, [r7, #20]
 80034d0:	1ad3      	subs	r3, r2, r3
 80034d2:	2b64      	cmp	r3, #100	; 0x64
 80034d4:	d901      	bls.n	80034da <HAL_RCCEx_PeriphCLKConfig+0x122>
 80034d6:	2303      	movs	r3, #3
 80034d8:	e355      	b.n	8003b86 <HAL_RCCEx_PeriphCLKConfig+0x7ce>
 80034da:	4b2c      	ldr	r3, [pc, #176]	; (800358c <HAL_RCCEx_PeriphCLKConfig+0x1d4>)
 80034dc:	681b      	ldr	r3, [r3, #0]
 80034de:	f403 7380 	and.w	r3, r3, #256	; 0x100
 80034e2:	2b00      	cmp	r3, #0
 80034e4:	d0f0      	beq.n	80034c8 <HAL_RCCEx_PeriphCLKConfig+0x110>
 80034e6:	4b28      	ldr	r3, [pc, #160]	; (8003588 <HAL_RCCEx_PeriphCLKConfig+0x1d0>)
 80034e8:	6f1b      	ldr	r3, [r3, #112]	; 0x70
 80034ea:	f403 7340 	and.w	r3, r3, #768	; 0x300
 80034ee:	613b      	str	r3, [r7, #16]
 80034f0:	693b      	ldr	r3, [r7, #16]
 80034f2:	2b00      	cmp	r3, #0
 80034f4:	d035      	beq.n	8003562 <HAL_RCCEx_PeriphCLKConfig+0x1aa>
 80034f6:	687b      	ldr	r3, [r7, #4]
 80034f8:	6b1b      	ldr	r3, [r3, #48]	; 0x30
 80034fa:	f403 7340 	and.w	r3, r3, #768	; 0x300
 80034fe:	693a      	ldr	r2, [r7, #16]
 8003500:	429a      	cmp	r2, r3
 8003502:	d02e      	beq.n	8003562 <HAL_RCCEx_PeriphCLKConfig+0x1aa>
 8003504:	4b20      	ldr	r3, [pc, #128]	; (8003588 <HAL_RCCEx_PeriphCLKConfig+0x1d0>)
 8003506:	6f1b      	ldr	r3, [r3, #112]	; 0x70
 8003508:	f423 7340 	bic.w	r3, r3, #768	; 0x300
 800350c:	613b      	str	r3, [r7, #16]
 800350e:	4b1e      	ldr	r3, [pc, #120]	; (8003588 <HAL_RCCEx_PeriphCLKConfig+0x1d0>)
 8003510:	6f1b      	ldr	r3, [r3, #112]	; 0x70
 8003512:	4a1d      	ldr	r2, [pc, #116]	; (8003588 <HAL_RCCEx_PeriphCLKConfig+0x1d0>)
 8003514:	f443 3380 	orr.w	r3, r3, #65536	; 0x10000
 8003518:	6713      	str	r3, [r2, #112]	; 0x70
 800351a:	4b1b      	ldr	r3, [pc, #108]	; (8003588 <HAL_RCCEx_PeriphCLKConfig+0x1d0>)
 800351c:	6f1b      	ldr	r3, [r3, #112]	; 0x70
 800351e:	4a1a      	ldr	r2, [pc, #104]	; (8003588 <HAL_RCCEx_PeriphCLKConfig+0x1d0>)
 8003520:	f423 3380 	bic.w	r3, r3, #65536	; 0x10000
 8003524:	6713      	str	r3, [r2, #112]	; 0x70
 8003526:	4a18      	ldr	r2, [pc, #96]	; (8003588 <HAL_RCCEx_PeriphCLKConfig+0x1d0>)
 8003528:	693b      	ldr	r3, [r7, #16]
 800352a:	6713      	str	r3, [r2, #112]	; 0x70
 800352c:	4b16      	ldr	r3, [pc, #88]	; (8003588 <HAL_RCCEx_PeriphCLKConfig+0x1d0>)
 800352e:	6f1b      	ldr	r3, [r3, #112]	; 0x70
 8003530:	f003 0301 	and.w	r3, r3, #1
 8003534:	2b01      	cmp	r3, #1
 8003536:	d114      	bne.n	8003562 <HAL_RCCEx_PeriphCLKConfig+0x1aa>
 8003538:	f7fd fc82 	bl	8000e40 <HAL_GetTick>
 800353c:	6178      	str	r0, [r7, #20]
 800353e:	e00a      	b.n	8003556 <HAL_RCCEx_PeriphCLKConfig+0x19e>
 8003540:	f7fd fc7e 	bl	8000e40 <HAL_GetTick>
 8003544:	4602      	mov	r2, r0
 8003546:	697b      	ldr	r3, [r7, #20]
 8003548:	1ad3      	subs	r3, r2, r3
 800354a:	f241 3288 	movw	r2, #5000	; 0x1388
 800354e:	4293      	cmp	r3, r2
 8003550:	d901      	bls.n	8003556 <HAL_RCCEx_PeriphCLKConfig+0x19e>
 8003552:	2303      	movs	r3, #3
 8003554:	e317      	b.n	8003b86 <HAL_RCCEx_PeriphCLKConfig+0x7ce>
 8003556:	4b0c      	ldr	r3, [pc, #48]	; (8003588 <HAL_RCCEx_PeriphCLKConfig+0x1d0>)
 8003558:	6f1b      	ldr	r3, [r3, #112]	; 0x70
 800355a:	f003 0302 	and.w	r3, r3, #2
 800355e:	2b00      	cmp	r3, #0
 8003560:	d0ee      	beq.n	8003540 <HAL_RCCEx_PeriphCLKConfig+0x188>
 8003562:	687b      	ldr	r3, [r7, #4]
 8003564:	6b1b      	ldr	r3, [r3, #48]	; 0x30
 8003566:	f403 7340 	and.w	r3, r3, #768	; 0x300
 800356a:	f5b3 7f40 	cmp.w	r3, #768	; 0x300
 800356e:	d111      	bne.n	8003594 <HAL_RCCEx_PeriphCLKConfig+0x1dc>
 8003570:	4b05      	ldr	r3, [pc, #20]	; (8003588 <HAL_RCCEx_PeriphCLKConfig+0x1d0>)
 8003572:	689b      	ldr	r3, [r3, #8]
 8003574:	f423 12f8 	bic.w	r2, r3, #2031616	; 0x1f0000
 8003578:	687b      	ldr	r3, [r7, #4]
 800357a:	6b19      	ldr	r1, [r3, #48]	; 0x30
 800357c:	4b04      	ldr	r3, [pc, #16]	; (8003590 <HAL_RCCEx_PeriphCLKConfig+0x1d8>)
 800357e:	400b      	ands	r3, r1
 8003580:	4901      	ldr	r1, [pc, #4]	; (8003588 <HAL_RCCEx_PeriphCLKConfig+0x1d0>)
 8003582:	4313      	orrs	r3, r2
 8003584:	608b      	str	r3, [r1, #8]
 8003586:	e00b      	b.n	80035a0 <HAL_RCCEx_PeriphCLKConfig+0x1e8>
 8003588:	40023800 	.word	0x40023800
 800358c:	40007000 	.word	0x40007000
 8003590:	0ffffcff 	.word	0x0ffffcff
 8003594:	4bb0      	ldr	r3, [pc, #704]	; (8003858 <HAL_RCCEx_PeriphCLKConfig+0x4a0>)
 8003596:	689b      	ldr	r3, [r3, #8]
 8003598:	4aaf      	ldr	r2, [pc, #700]	; (8003858 <HAL_RCCEx_PeriphCLKConfig+0x4a0>)
 800359a:	f423 13f8 	bic.w	r3, r3, #2031616	; 0x1f0000
 800359e:	6093      	str	r3, [r2, #8]
 80035a0:	4bad      	ldr	r3, [pc, #692]	; (8003858 <HAL_RCCEx_PeriphCLKConfig+0x4a0>)
 80035a2:	6f1a      	ldr	r2, [r3, #112]	; 0x70
 80035a4:	687b      	ldr	r3, [r7, #4]
 80035a6:	6b1b      	ldr	r3, [r3, #48]	; 0x30
 80035a8:	f3c3 030b 	ubfx	r3, r3, #0, #12
 80035ac:	49aa      	ldr	r1, [pc, #680]	; (8003858 <HAL_RCCEx_PeriphCLKConfig+0x4a0>)
 80035ae:	4313      	orrs	r3, r2
 80035b0:	670b      	str	r3, [r1, #112]	; 0x70
 80035b2:	687b      	ldr	r3, [r7, #4]
 80035b4:	681b      	ldr	r3, [r3, #0]
 80035b6:	f003 0310 	and.w	r3, r3, #16
 80035ba:	2b00      	cmp	r3, #0
 80035bc:	d010      	beq.n	80035e0 <HAL_RCCEx_PeriphCLKConfig+0x228>
 80035be:	4ba6      	ldr	r3, [pc, #664]	; (8003858 <HAL_RCCEx_PeriphCLKConfig+0x4a0>)
 80035c0:	f8d3 308c 	ldr.w	r3, [r3, #140]	; 0x8c
 80035c4:	4aa4      	ldr	r2, [pc, #656]	; (8003858 <HAL_RCCEx_PeriphCLKConfig+0x4a0>)
 80035c6:	f023 7380 	bic.w	r3, r3, #16777216	; 0x1000000
 80035ca:	f8c2 308c 	str.w	r3, [r2, #140]	; 0x8c
 80035ce:	4ba2      	ldr	r3, [pc, #648]	; (8003858 <HAL_RCCEx_PeriphCLKConfig+0x4a0>)
 80035d0:	f8d3 208c 	ldr.w	r2, [r3, #140]	; 0x8c
 80035d4:	687b      	ldr	r3, [r7, #4]
 80035d6:	6b9b      	ldr	r3, [r3, #56]	; 0x38
 80035d8:	499f      	ldr	r1, [pc, #636]	; (8003858 <HAL_RCCEx_PeriphCLKConfig+0x4a0>)
 80035da:	4313      	orrs	r3, r2
 80035dc:	f8c1 308c 	str.w	r3, [r1, #140]	; 0x8c
 80035e0:	687b      	ldr	r3, [r7, #4]
 80035e2:	681b      	ldr	r3, [r3, #0]
 80035e4:	f403 4380 	and.w	r3, r3, #16384	; 0x4000
 80035e8:	2b00      	cmp	r3, #0
 80035ea:	d00a      	beq.n	8003602 <HAL_RCCEx_PeriphCLKConfig+0x24a>
 80035ec:	4b9a      	ldr	r3, [pc, #616]	; (8003858 <HAL_RCCEx_PeriphCLKConfig+0x4a0>)
 80035ee:	f8d3 3090 	ldr.w	r3, [r3, #144]	; 0x90
 80035f2:	f423 3240 	bic.w	r2, r3, #196608	; 0x30000
 80035f6:	687b      	ldr	r3, [r7, #4]
 80035f8:	6e5b      	ldr	r3, [r3, #100]	; 0x64
 80035fa:	4997      	ldr	r1, [pc, #604]	; (8003858 <HAL_RCCEx_PeriphCLKConfig+0x4a0>)
 80035fc:	4313      	orrs	r3, r2
 80035fe:	f8c1 3090 	str.w	r3, [r1, #144]	; 0x90
 8003602:	687b      	ldr	r3, [r7, #4]
 8003604:	681b      	ldr	r3, [r3, #0]
 8003606:	f403 4300 	and.w	r3, r3, #32768	; 0x8000
 800360a:	2b00      	cmp	r3, #0
 800360c:	d00a      	beq.n	8003624 <HAL_RCCEx_PeriphCLKConfig+0x26c>
 800360e:	4b92      	ldr	r3, [pc, #584]	; (8003858 <HAL_RCCEx_PeriphCLKConfig+0x4a0>)
 8003610:	f8d3 3090 	ldr.w	r3, [r3, #144]	; 0x90
 8003614:	f423 2240 	bic.w	r2, r3, #786432	; 0xc0000
 8003618:	687b      	ldr	r3, [r7, #4]
 800361a:	6e9b      	ldr	r3, [r3, #104]	; 0x68
 800361c:	498e      	ldr	r1, [pc, #568]	; (8003858 <HAL_RCCEx_PeriphCLKConfig+0x4a0>)
 800361e:	4313      	orrs	r3, r2
 8003620:	f8c1 3090 	str.w	r3, [r1, #144]	; 0x90
 8003624:	687b      	ldr	r3, [r7, #4]
 8003626:	681b      	ldr	r3, [r3, #0]
 8003628:	f403 3380 	and.w	r3, r3, #65536	; 0x10000
 800362c:	2b00      	cmp	r3, #0
 800362e:	d00a      	beq.n	8003646 <HAL_RCCEx_PeriphCLKConfig+0x28e>
 8003630:	4b89      	ldr	r3, [pc, #548]	; (8003858 <HAL_RCCEx_PeriphCLKConfig+0x4a0>)
 8003632:	f8d3 3090 	ldr.w	r3, [r3, #144]	; 0x90
 8003636:	f423 1240 	bic.w	r2, r3, #3145728	; 0x300000
 800363a:	687b      	ldr	r3, [r7, #4]
 800363c:	6edb      	ldr	r3, [r3, #108]	; 0x6c
 800363e:	4986      	ldr	r1, [pc, #536]	; (8003858 <HAL_RCCEx_PeriphCLKConfig+0x4a0>)
 8003640:	4313      	orrs	r3, r2
 8003642:	f8c1 3090 	str.w	r3, [r1, #144]	; 0x90
 8003646:	687b      	ldr	r3, [r7, #4]
 8003648:	681b      	ldr	r3, [r3, #0]
 800364a:	f403 3300 	and.w	r3, r3, #131072	; 0x20000
 800364e:	2b00      	cmp	r3, #0
 8003650:	d00a      	beq.n	8003668 <HAL_RCCEx_PeriphCLKConfig+0x2b0>
 8003652:	4b81      	ldr	r3, [pc, #516]	; (8003858 <HAL_RCCEx_PeriphCLKConfig+0x4a0>)
 8003654:	f8d3 3090 	ldr.w	r3, [r3, #144]	; 0x90
 8003658:	f423 0240 	bic.w	r2, r3, #12582912	; 0xc00000
 800365c:	687b      	ldr	r3, [r7, #4]
 800365e:	6f1b      	ldr	r3, [r3, #112]	; 0x70
 8003660:	497d      	ldr	r1, [pc, #500]	; (8003858 <HAL_RCCEx_PeriphCLKConfig+0x4a0>)
 8003662:	4313      	orrs	r3, r2
 8003664:	f8c1 3090 	str.w	r3, [r1, #144]	; 0x90
 8003668:	687b      	ldr	r3, [r7, #4]
 800366a:	681b      	ldr	r3, [r3, #0]
 800366c:	f003 0340 	and.w	r3, r3, #64	; 0x40
 8003670:	2b00      	cmp	r3, #0
 8003672:	d00a      	beq.n	800368a <HAL_RCCEx_PeriphCLKConfig+0x2d2>
 8003674:	4b78      	ldr	r3, [pc, #480]	; (8003858 <HAL_RCCEx_PeriphCLKConfig+0x4a0>)
 8003676:	f8d3 3090 	ldr.w	r3, [r3, #144]	; 0x90
 800367a:	f023 0203 	bic.w	r2, r3, #3
 800367e:	687b      	ldr	r3, [r7, #4]
 8003680:	6c5b      	ldr	r3, [r3, #68]	; 0x44
 8003682:	4975      	ldr	r1, [pc, #468]	; (8003858 <HAL_RCCEx_PeriphCLKConfig+0x4a0>)
 8003684:	4313      	orrs	r3, r2
 8003686:	f8c1 3090 	str.w	r3, [r1, #144]	; 0x90
 800368a:	687b      	ldr	r3, [r7, #4]
 800368c:	681b      	ldr	r3, [r3, #0]
 800368e:	f003 0380 	and.w	r3, r3, #128	; 0x80
 8003692:	2b00      	cmp	r3, #0
 8003694:	d00a      	beq.n	80036ac <HAL_RCCEx_PeriphCLKConfig+0x2f4>
 8003696:	4b70      	ldr	r3, [pc, #448]	; (8003858 <HAL_RCCEx_PeriphCLKConfig+0x4a0>)
 8003698:	f8d3 3090 	ldr.w	r3, [r3, #144]	; 0x90
 800369c:	f023 020c 	bic.w	r2, r3, #12
 80036a0:	687b      	ldr	r3, [r7, #4]
 80036a2:	6c9b      	ldr	r3, [r3, #72]	; 0x48
 80036a4:	496c      	ldr	r1, [pc, #432]	; (8003858 <HAL_RCCEx_PeriphCLKConfig+0x4a0>)
 80036a6:	4313      	orrs	r3, r2
 80036a8:	f8c1 3090 	str.w	r3, [r1, #144]	; 0x90
 80036ac:	687b      	ldr	r3, [r7, #4]
 80036ae:	681b      	ldr	r3, [r3, #0]
 80036b0:	f403 7380 	and.w	r3, r3, #256	; 0x100
 80036b4:	2b00      	cmp	r3, #0
 80036b6:	d00a      	beq.n	80036ce <HAL_RCCEx_PeriphCLKConfig+0x316>
 80036b8:	4b67      	ldr	r3, [pc, #412]	; (8003858 <HAL_RCCEx_PeriphCLKConfig+0x4a0>)
 80036ba:	f8d3 3090 	ldr.w	r3, [r3, #144]	; 0x90
 80036be:	f023 0230 	bic.w	r2, r3, #48	; 0x30
 80036c2:	687b      	ldr	r3, [r7, #4]
 80036c4:	6cdb      	ldr	r3, [r3, #76]	; 0x4c
 80036c6:	4964      	ldr	r1, [pc, #400]	; (8003858 <HAL_RCCEx_PeriphCLKConfig+0x4a0>)
 80036c8:	4313      	orrs	r3, r2
 80036ca:	f8c1 3090 	str.w	r3, [r1, #144]	; 0x90
 80036ce:	687b      	ldr	r3, [r7, #4]
 80036d0:	681b      	ldr	r3, [r3, #0]
 80036d2:	f403 7300 	and.w	r3, r3, #512	; 0x200
 80036d6:	2b00      	cmp	r3, #0
 80036d8:	d00a      	beq.n	80036f0 <HAL_RCCEx_PeriphCLKConfig+0x338>
 80036da:	4b5f      	ldr	r3, [pc, #380]	; (8003858 <HAL_RCCEx_PeriphCLKConfig+0x4a0>)
 80036dc:	f8d3 3090 	ldr.w	r3, [r3, #144]	; 0x90
 80036e0:	f023 02c0 	bic.w	r2, r3, #192	; 0xc0
 80036e4:	687b      	ldr	r3, [r7, #4]
 80036e6:	6d1b      	ldr	r3, [r3, #80]	; 0x50
 80036e8:	495b      	ldr	r1, [pc, #364]	; (8003858 <HAL_RCCEx_PeriphCLKConfig+0x4a0>)
 80036ea:	4313      	orrs	r3, r2
 80036ec:	f8c1 3090 	str.w	r3, [r1, #144]	; 0x90
 80036f0:	687b      	ldr	r3, [r7, #4]
 80036f2:	681b      	ldr	r3, [r3, #0]
 80036f4:	f403 6380 	and.w	r3, r3, #1024	; 0x400
 80036f8:	2b00      	cmp	r3, #0
 80036fa:	d00a      	beq.n	8003712 <HAL_RCCEx_PeriphCLKConfig+0x35a>
 80036fc:	4b56      	ldr	r3, [pc, #344]	; (8003858 <HAL_RCCEx_PeriphCLKConfig+0x4a0>)
 80036fe:	f8d3 3090 	ldr.w	r3, [r3, #144]	; 0x90
 8003702:	f423 7240 	bic.w	r2, r3, #768	; 0x300
 8003706:	687b      	ldr	r3, [r7, #4]
 8003708:	6d5b      	ldr	r3, [r3, #84]	; 0x54
 800370a:	4953      	ldr	r1, [pc, #332]	; (8003858 <HAL_RCCEx_PeriphCLKConfig+0x4a0>)
 800370c:	4313      	orrs	r3, r2
 800370e:	f8c1 3090 	str.w	r3, [r1, #144]	; 0x90
 8003712:	687b      	ldr	r3, [r7, #4]
 8003714:	681b      	ldr	r3, [r3, #0]
 8003716:	f403 6300 	and.w	r3, r3, #2048	; 0x800
 800371a:	2b00      	cmp	r3, #0
 800371c:	d00a      	beq.n	8003734 <HAL_RCCEx_PeriphCLKConfig+0x37c>
 800371e:	4b4e      	ldr	r3, [pc, #312]	; (8003858 <HAL_RCCEx_PeriphCLKConfig+0x4a0>)
 8003720:	f8d3 3090 	ldr.w	r3, [r3, #144]	; 0x90
 8003724:	f423 6240 	bic.w	r2, r3, #3072	; 0xc00
 8003728:	687b      	ldr	r3, [r7, #4]
 800372a:	6d9b      	ldr	r3, [r3, #88]	; 0x58
 800372c:	494a      	ldr	r1, [pc, #296]	; (8003858 <HAL_RCCEx_PeriphCLKConfig+0x4a0>)
 800372e:	4313      	orrs	r3, r2
 8003730:	f8c1 3090 	str.w	r3, [r1, #144]	; 0x90
 8003734:	687b      	ldr	r3, [r7, #4]
 8003736:	681b      	ldr	r3, [r3, #0]
 8003738:	f403 5380 	and.w	r3, r3, #4096	; 0x1000
 800373c:	2b00      	cmp	r3, #0
 800373e:	d00a      	beq.n	8003756 <HAL_RCCEx_PeriphCLKConfig+0x39e>
 8003740:	4b45      	ldr	r3, [pc, #276]	; (8003858 <HAL_RCCEx_PeriphCLKConfig+0x4a0>)
 8003742:	f8d3 3090 	ldr.w	r3, [r3, #144]	; 0x90
 8003746:	f423 5240 	bic.w	r2, r3, #12288	; 0x3000
 800374a:	687b      	ldr	r3, [r7, #4]
 800374c:	6ddb      	ldr	r3, [r3, #92]	; 0x5c
 800374e:	4942      	ldr	r1, [pc, #264]	; (8003858 <HAL_RCCEx_PeriphCLKConfig+0x4a0>)
 8003750:	4313      	orrs	r3, r2
 8003752:	f8c1 3090 	str.w	r3, [r1, #144]	; 0x90
 8003756:	687b      	ldr	r3, [r7, #4]
 8003758:	681b      	ldr	r3, [r3, #0]
 800375a:	f403 5300 	and.w	r3, r3, #8192	; 0x2000
 800375e:	2b00      	cmp	r3, #0
 8003760:	d00a      	beq.n	8003778 <HAL_RCCEx_PeriphCLKConfig+0x3c0>
 8003762:	4b3d      	ldr	r3, [pc, #244]	; (8003858 <HAL_RCCEx_PeriphCLKConfig+0x4a0>)
 8003764:	f8d3 3090 	ldr.w	r3, [r3, #144]	; 0x90
 8003768:	f423 4240 	bic.w	r2, r3, #49152	; 0xc000
 800376c:	687b      	ldr	r3, [r7, #4]
 800376e:	6e1b      	ldr	r3, [r3, #96]	; 0x60
 8003770:	4939      	ldr	r1, [pc, #228]	; (8003858 <HAL_RCCEx_PeriphCLKConfig+0x4a0>)
 8003772:	4313      	orrs	r3, r2
 8003774:	f8c1 3090 	str.w	r3, [r1, #144]	; 0x90
 8003778:	687b      	ldr	r3, [r7, #4]
 800377a:	681b      	ldr	r3, [r3, #0]
 800377c:	f403 0380 	and.w	r3, r3, #4194304	; 0x400000
 8003780:	2b00      	cmp	r3, #0
 8003782:	d00a      	beq.n	800379a <HAL_RCCEx_PeriphCLKConfig+0x3e2>
 8003784:	4b34      	ldr	r3, [pc, #208]	; (8003858 <HAL_RCCEx_PeriphCLKConfig+0x4a0>)
 8003786:	f8d3 3090 	ldr.w	r3, [r3, #144]	; 0x90
 800378a:	f023 6280 	bic.w	r2, r3, #67108864	; 0x4000000
 800378e:	687b      	ldr	r3, [r7, #4]
 8003790:	6f9b      	ldr	r3, [r3, #120]	; 0x78
 8003792:	4931      	ldr	r1, [pc, #196]	; (8003858 <HAL_RCCEx_PeriphCLKConfig+0x4a0>)
 8003794:	4313      	orrs	r3, r2
 8003796:	f8c1 3090 	str.w	r3, [r1, #144]	; 0x90
 800379a:	687b      	ldr	r3, [r7, #4]
 800379c:	681b      	ldr	r3, [r3, #0]
 800379e:	f403 1300 	and.w	r3, r3, #2097152	; 0x200000
 80037a2:	2b00      	cmp	r3, #0
 80037a4:	d011      	beq.n	80037ca <HAL_RCCEx_PeriphCLKConfig+0x412>
 80037a6:	4b2c      	ldr	r3, [pc, #176]	; (8003858 <HAL_RCCEx_PeriphCLKConfig+0x4a0>)
 80037a8:	f8d3 3090 	ldr.w	r3, [r3, #144]	; 0x90
 80037ac:	f023 6200 	bic.w	r2, r3, #134217728	; 0x8000000
 80037b0:	687b      	ldr	r3, [r7, #4]
 80037b2:	6fdb      	ldr	r3, [r3, #124]	; 0x7c
 80037b4:	4928      	ldr	r1, [pc, #160]	; (8003858 <HAL_RCCEx_PeriphCLKConfig+0x4a0>)
 80037b6:	4313      	orrs	r3, r2
 80037b8:	f8c1 3090 	str.w	r3, [r1, #144]	; 0x90
 80037bc:	687b      	ldr	r3, [r7, #4]
 80037be:	6fdb      	ldr	r3, [r3, #124]	; 0x7c
 80037c0:	f1b3 6f00 	cmp.w	r3, #134217728	; 0x8000000
 80037c4:	d101      	bne.n	80037ca <HAL_RCCEx_PeriphCLKConfig+0x412>
 80037c6:	2301      	movs	r3, #1
 80037c8:	61bb      	str	r3, [r7, #24]
 80037ca:	687b      	ldr	r3, [r7, #4]
 80037cc:	681b      	ldr	r3, [r3, #0]
 80037ce:	f003 0308 	and.w	r3, r3, #8
 80037d2:	2b00      	cmp	r3, #0
 80037d4:	d001      	beq.n	80037da <HAL_RCCEx_PeriphCLKConfig+0x422>
 80037d6:	2301      	movs	r3, #1
 80037d8:	61bb      	str	r3, [r7, #24]
 80037da:	687b      	ldr	r3, [r7, #4]
 80037dc:	681b      	ldr	r3, [r3, #0]
 80037de:	f403 2380 	and.w	r3, r3, #262144	; 0x40000
 80037e2:	2b00      	cmp	r3, #0
 80037e4:	d00a      	beq.n	80037fc <HAL_RCCEx_PeriphCLKConfig+0x444>
 80037e6:	4b1c      	ldr	r3, [pc, #112]	; (8003858 <HAL_RCCEx_PeriphCLKConfig+0x4a0>)
 80037e8:	f8d3 3090 	ldr.w	r3, [r3, #144]	; 0x90
 80037ec:	f023 7240 	bic.w	r2, r3, #50331648	; 0x3000000
 80037f0:	687b      	ldr	r3, [r7, #4]
 80037f2:	6f5b      	ldr	r3, [r3, #116]	; 0x74
 80037f4:	4918      	ldr	r1, [pc, #96]	; (8003858 <HAL_RCCEx_PeriphCLKConfig+0x4a0>)
 80037f6:	4313      	orrs	r3, r2
 80037f8:	f8c1 3090 	str.w	r3, [r1, #144]	; 0x90
 80037fc:	687b      	ldr	r3, [r7, #4]
 80037fe:	681b      	ldr	r3, [r3, #0]
 8003800:	f403 0300 	and.w	r3, r3, #8388608	; 0x800000
 8003804:	2b00      	cmp	r3, #0
 8003806:	d00b      	beq.n	8003820 <HAL_RCCEx_PeriphCLKConfig+0x468>
 8003808:	4b13      	ldr	r3, [pc, #76]	; (8003858 <HAL_RCCEx_PeriphCLKConfig+0x4a0>)
 800380a:	f8d3 3090 	ldr.w	r3, [r3, #144]	; 0x90
 800380e:	f023 5280 	bic.w	r2, r3, #268435456	; 0x10000000
 8003812:	687b      	ldr	r3, [r7, #4]
 8003814:	f8d3 3080 	ldr.w	r3, [r3, #128]	; 0x80
 8003818:	490f      	ldr	r1, [pc, #60]	; (8003858 <HAL_RCCEx_PeriphCLKConfig+0x4a0>)
 800381a:	4313      	orrs	r3, r2
 800381c:	f8c1 3090 	str.w	r3, [r1, #144]	; 0x90
 8003820:	69fb      	ldr	r3, [r7, #28]
 8003822:	2b01      	cmp	r3, #1
 8003824:	d005      	beq.n	8003832 <HAL_RCCEx_PeriphCLKConfig+0x47a>
 8003826:	687b      	ldr	r3, [r7, #4]
 8003828:	681b      	ldr	r3, [r3, #0]
 800382a:	f1b3 7f00 	cmp.w	r3, #33554432	; 0x2000000
 800382e:	f040 80d8 	bne.w	80039e2 <HAL_RCCEx_PeriphCLKConfig+0x62a>
 8003832:	4b09      	ldr	r3, [pc, #36]	; (8003858 <HAL_RCCEx_PeriphCLKConfig+0x4a0>)
 8003834:	681b      	ldr	r3, [r3, #0]
 8003836:	4a08      	ldr	r2, [pc, #32]	; (8003858 <HAL_RCCEx_PeriphCLKConfig+0x4a0>)
 8003838:	f023 6380 	bic.w	r3, r3, #67108864	; 0x4000000
 800383c:	6013      	str	r3, [r2, #0]
 800383e:	f7fd faff 	bl	8000e40 <HAL_GetTick>
 8003842:	6178      	str	r0, [r7, #20]
 8003844:	e00a      	b.n	800385c <HAL_RCCEx_PeriphCLKConfig+0x4a4>
 8003846:	f7fd fafb 	bl	8000e40 <HAL_GetTick>
 800384a:	4602      	mov	r2, r0
 800384c:	697b      	ldr	r3, [r7, #20]
 800384e:	1ad3      	subs	r3, r2, r3
 8003850:	2b64      	cmp	r3, #100	; 0x64
 8003852:	d903      	bls.n	800385c <HAL_RCCEx_PeriphCLKConfig+0x4a4>
 8003854:	2303      	movs	r3, #3
 8003856:	e196      	b.n	8003b86 <HAL_RCCEx_PeriphCLKConfig+0x7ce>
 8003858:	40023800 	.word	0x40023800
 800385c:	4b6c      	ldr	r3, [pc, #432]	; (8003a10 <HAL_RCCEx_PeriphCLKConfig+0x658>)
 800385e:	681b      	ldr	r3, [r3, #0]
 8003860:	f003 6300 	and.w	r3, r3, #134217728	; 0x8000000
 8003864:	2b00      	cmp	r3, #0
 8003866:	d1ee      	bne.n	8003846 <HAL_RCCEx_PeriphCLKConfig+0x48e>
 8003868:	687b      	ldr	r3, [r7, #4]
 800386a:	681b      	ldr	r3, [r3, #0]
 800386c:	f003 0301 	and.w	r3, r3, #1
 8003870:	2b00      	cmp	r3, #0
 8003872:	d021      	beq.n	80038b8 <HAL_RCCEx_PeriphCLKConfig+0x500>
 8003874:	687b      	ldr	r3, [r7, #4]
 8003876:	6b5b      	ldr	r3, [r3, #52]	; 0x34
 8003878:	2b00      	cmp	r3, #0
 800387a:	d11d      	bne.n	80038b8 <HAL_RCCEx_PeriphCLKConfig+0x500>
 800387c:	4b64      	ldr	r3, [pc, #400]	; (8003a10 <HAL_RCCEx_PeriphCLKConfig+0x658>)
 800387e:	f8d3 3084 	ldr.w	r3, [r3, #132]	; 0x84
 8003882:	0c1b      	lsrs	r3, r3, #16
 8003884:	f003 0303 	and.w	r3, r3, #3
 8003888:	613b      	str	r3, [r7, #16]
 800388a:	4b61      	ldr	r3, [pc, #388]	; (8003a10 <HAL_RCCEx_PeriphCLKConfig+0x658>)
 800388c:	f8d3 3084 	ldr.w	r3, [r3, #132]	; 0x84
 8003890:	0e1b      	lsrs	r3, r3, #24
 8003892:	f003 030f 	and.w	r3, r3, #15
 8003896:	60fb      	str	r3, [r7, #12]
 8003898:	687b      	ldr	r3, [r7, #4]
 800389a:	685b      	ldr	r3, [r3, #4]
 800389c:	019a      	lsls	r2, r3, #6
 800389e:	693b      	ldr	r3, [r7, #16]
 80038a0:	041b      	lsls	r3, r3, #16
 80038a2:	431a      	orrs	r2, r3
 80038a4:	68fb      	ldr	r3, [r7, #12]
 80038a6:	061b      	lsls	r3, r3, #24
 80038a8:	431a      	orrs	r2, r3
 80038aa:	687b      	ldr	r3, [r7, #4]
 80038ac:	689b      	ldr	r3, [r3, #8]
 80038ae:	071b      	lsls	r3, r3, #28
 80038b0:	4957      	ldr	r1, [pc, #348]	; (8003a10 <HAL_RCCEx_PeriphCLKConfig+0x658>)
 80038b2:	4313      	orrs	r3, r2
 80038b4:	f8c1 3084 	str.w	r3, [r1, #132]	; 0x84
 80038b8:	687b      	ldr	r3, [r7, #4]
 80038ba:	681b      	ldr	r3, [r3, #0]
 80038bc:	f403 2300 	and.w	r3, r3, #524288	; 0x80000
 80038c0:	2b00      	cmp	r3, #0
 80038c2:	d004      	beq.n	80038ce <HAL_RCCEx_PeriphCLKConfig+0x516>
 80038c4:	687b      	ldr	r3, [r7, #4]
 80038c6:	6bdb      	ldr	r3, [r3, #60]	; 0x3c
 80038c8:	f5b3 1f80 	cmp.w	r3, #1048576	; 0x100000
 80038cc:	d00a      	beq.n	80038e4 <HAL_RCCEx_PeriphCLKConfig+0x52c>
 80038ce:	687b      	ldr	r3, [r7, #4]
 80038d0:	681b      	ldr	r3, [r3, #0]
 80038d2:	f403 1380 	and.w	r3, r3, #1048576	; 0x100000
 80038d6:	2b00      	cmp	r3, #0
 80038d8:	d02e      	beq.n	8003938 <HAL_RCCEx_PeriphCLKConfig+0x580>
 80038da:	687b      	ldr	r3, [r7, #4]
 80038dc:	6c1b      	ldr	r3, [r3, #64]	; 0x40
 80038de:	f5b3 0f80 	cmp.w	r3, #4194304	; 0x400000
 80038e2:	d129      	bne.n	8003938 <HAL_RCCEx_PeriphCLKConfig+0x580>
 80038e4:	4b4a      	ldr	r3, [pc, #296]	; (8003a10 <HAL_RCCEx_PeriphCLKConfig+0x658>)
 80038e6:	f8d3 3084 	ldr.w	r3, [r3, #132]	; 0x84
 80038ea:	0c1b      	lsrs	r3, r3, #16
 80038ec:	f003 0303 	and.w	r3, r3, #3
 80038f0:	613b      	str	r3, [r7, #16]
 80038f2:	4b47      	ldr	r3, [pc, #284]	; (8003a10 <HAL_RCCEx_PeriphCLKConfig+0x658>)
 80038f4:	f8d3 3084 	ldr.w	r3, [r3, #132]	; 0x84
 80038f8:	0f1b      	lsrs	r3, r3, #28
 80038fa:	f003 0307 	and.w	r3, r3, #7
 80038fe:	60fb      	str	r3, [r7, #12]
 8003900:	687b      	ldr	r3, [r7, #4]
 8003902:	685b      	ldr	r3, [r3, #4]
 8003904:	019a      	lsls	r2, r3, #6
 8003906:	693b      	ldr	r3, [r7, #16]
 8003908:	041b      	lsls	r3, r3, #16
 800390a:	431a      	orrs	r2, r3
 800390c:	687b      	ldr	r3, [r7, #4]
 800390e:	68db      	ldr	r3, [r3, #12]
 8003910:	061b      	lsls	r3, r3, #24
 8003912:	431a      	orrs	r2, r3
 8003914:	68fb      	ldr	r3, [r7, #12]
 8003916:	071b      	lsls	r3, r3, #28
 8003918:	493d      	ldr	r1, [pc, #244]	; (8003a10 <HAL_RCCEx_PeriphCLKConfig+0x658>)
 800391a:	4313      	orrs	r3, r2
 800391c:	f8c1 3084 	str.w	r3, [r1, #132]	; 0x84
 8003920:	4b3b      	ldr	r3, [pc, #236]	; (8003a10 <HAL_RCCEx_PeriphCLKConfig+0x658>)
 8003922:	f8d3 308c 	ldr.w	r3, [r3, #140]	; 0x8c
 8003926:	f023 021f 	bic.w	r2, r3, #31
 800392a:	687b      	ldr	r3, [r7, #4]
 800392c:	6a5b      	ldr	r3, [r3, #36]	; 0x24
 800392e:	3b01      	subs	r3, #1
 8003930:	4937      	ldr	r1, [pc, #220]	; (8003a10 <HAL_RCCEx_PeriphCLKConfig+0x658>)
 8003932:	4313      	orrs	r3, r2
 8003934:	f8c1 308c 	str.w	r3, [r1, #140]	; 0x8c
 8003938:	687b      	ldr	r3, [r7, #4]
 800393a:	681b      	ldr	r3, [r3, #0]
 800393c:	f003 7380 	and.w	r3, r3, #16777216	; 0x1000000
 8003940:	2b00      	cmp	r3, #0
 8003942:	d01d      	beq.n	8003980 <HAL_RCCEx_PeriphCLKConfig+0x5c8>
 8003944:	4b32      	ldr	r3, [pc, #200]	; (8003a10 <HAL_RCCEx_PeriphCLKConfig+0x658>)
 8003946:	f8d3 3084 	ldr.w	r3, [r3, #132]	; 0x84
 800394a:	0e1b      	lsrs	r3, r3, #24
 800394c:	f003 030f 	and.w	r3, r3, #15
 8003950:	613b      	str	r3, [r7, #16]
 8003952:	4b2f      	ldr	r3, [pc, #188]	; (8003a10 <HAL_RCCEx_PeriphCLKConfig+0x658>)
 8003954:	f8d3 3084 	ldr.w	r3, [r3, #132]	; 0x84
 8003958:	0f1b      	lsrs	r3, r3, #28
 800395a:	f003 0307 	and.w	r3, r3, #7
 800395e:	60fb      	str	r3, [r7, #12]
 8003960:	687b      	ldr	r3, [r7, #4]
 8003962:	685b      	ldr	r3, [r3, #4]
 8003964:	019a      	lsls	r2, r3, #6
 8003966:	687b      	ldr	r3, [r7, #4]
 8003968:	691b      	ldr	r3, [r3, #16]
 800396a:	041b      	lsls	r3, r3, #16
 800396c:	431a      	orrs	r2, r3
 800396e:	693b      	ldr	r3, [r7, #16]
 8003970:	061b      	lsls	r3, r3, #24
 8003972:	431a      	orrs	r2, r3
 8003974:	68fb      	ldr	r3, [r7, #12]
 8003976:	071b      	lsls	r3, r3, #28
 8003978:	4925      	ldr	r1, [pc, #148]	; (8003a10 <HAL_RCCEx_PeriphCLKConfig+0x658>)
 800397a:	4313      	orrs	r3, r2
 800397c:	f8c1 3084 	str.w	r3, [r1, #132]	; 0x84
 8003980:	687b      	ldr	r3, [r7, #4]
 8003982:	681b      	ldr	r3, [r3, #0]
 8003984:	f003 7300 	and.w	r3, r3, #33554432	; 0x2000000
 8003988:	2b00      	cmp	r3, #0
 800398a:	d011      	beq.n	80039b0 <HAL_RCCEx_PeriphCLKConfig+0x5f8>
 800398c:	687b      	ldr	r3, [r7, #4]
 800398e:	685b      	ldr	r3, [r3, #4]
 8003990:	019a      	lsls	r2, r3, #6
 8003992:	687b      	ldr	r3, [r7, #4]
 8003994:	691b      	ldr	r3, [r3, #16]
 8003996:	041b      	lsls	r3, r3, #16
 8003998:	431a      	orrs	r2, r3
 800399a:	687b      	ldr	r3, [r7, #4]
 800399c:	68db      	ldr	r3, [r3, #12]
 800399e:	061b      	lsls	r3, r3, #24
 80039a0:	431a      	orrs	r2, r3
 80039a2:	687b      	ldr	r3, [r7, #4]
 80039a4:	689b      	ldr	r3, [r3, #8]
 80039a6:	071b      	lsls	r3, r3, #28
 80039a8:	4919      	ldr	r1, [pc, #100]	; (8003a10 <HAL_RCCEx_PeriphCLKConfig+0x658>)
 80039aa:	4313      	orrs	r3, r2
 80039ac:	f8c1 3084 	str.w	r3, [r1, #132]	; 0x84
 80039b0:	4b17      	ldr	r3, [pc, #92]	; (8003a10 <HAL_RCCEx_PeriphCLKConfig+0x658>)
 80039b2:	681b      	ldr	r3, [r3, #0]
 80039b4:	4a16      	ldr	r2, [pc, #88]	; (8003a10 <HAL_RCCEx_PeriphCLKConfig+0x658>)
 80039b6:	f043 6380 	orr.w	r3, r3, #67108864	; 0x4000000
 80039ba:	6013      	str	r3, [r2, #0]
 80039bc:	f7fd fa40 	bl	8000e40 <HAL_GetTick>
 80039c0:	6178      	str	r0, [r7, #20]
 80039c2:	e008      	b.n	80039d6 <HAL_RCCEx_PeriphCLKConfig+0x61e>
 80039c4:	f7fd fa3c 	bl	8000e40 <HAL_GetTick>
 80039c8:	4602      	mov	r2, r0
 80039ca:	697b      	ldr	r3, [r7, #20]
 80039cc:	1ad3      	subs	r3, r2, r3
 80039ce:	2b64      	cmp	r3, #100	; 0x64
 80039d0:	d901      	bls.n	80039d6 <HAL_RCCEx_PeriphCLKConfig+0x61e>
 80039d2:	2303      	movs	r3, #3
 80039d4:	e0d7      	b.n	8003b86 <HAL_RCCEx_PeriphCLKConfig+0x7ce>
 80039d6:	4b0e      	ldr	r3, [pc, #56]	; (8003a10 <HAL_RCCEx_PeriphCLKConfig+0x658>)
 80039d8:	681b      	ldr	r3, [r3, #0]
 80039da:	f003 6300 	and.w	r3, r3, #134217728	; 0x8000000
 80039de:	2b00      	cmp	r3, #0
 80039e0:	d0f0      	beq.n	80039c4 <HAL_RCCEx_PeriphCLKConfig+0x60c>
 80039e2:	69bb      	ldr	r3, [r7, #24]
 80039e4:	2b01      	cmp	r3, #1
 80039e6:	f040 80cd 	bne.w	8003b84 <HAL_RCCEx_PeriphCLKConfig+0x7cc>
 80039ea:	4b09      	ldr	r3, [pc, #36]	; (8003a10 <HAL_RCCEx_PeriphCLKConfig+0x658>)
 80039ec:	681b      	ldr	r3, [r3, #0]
 80039ee:	4a08      	ldr	r2, [pc, #32]	; (8003a10 <HAL_RCCEx_PeriphCLKConfig+0x658>)
 80039f0:	f023 5380 	bic.w	r3, r3, #268435456	; 0x10000000
 80039f4:	6013      	str	r3, [r2, #0]
 80039f6:	f7fd fa23 	bl	8000e40 <HAL_GetTick>
 80039fa:	6178      	str	r0, [r7, #20]
 80039fc:	e00a      	b.n	8003a14 <HAL_RCCEx_PeriphCLKConfig+0x65c>
 80039fe:	f7fd fa1f 	bl	8000e40 <HAL_GetTick>
 8003a02:	4602      	mov	r2, r0
 8003a04:	697b      	ldr	r3, [r7, #20]
 8003a06:	1ad3      	subs	r3, r2, r3
 8003a08:	2b64      	cmp	r3, #100	; 0x64
 8003a0a:	d903      	bls.n	8003a14 <HAL_RCCEx_PeriphCLKConfig+0x65c>
 8003a0c:	2303      	movs	r3, #3
 8003a0e:	e0ba      	b.n	8003b86 <HAL_RCCEx_PeriphCLKConfig+0x7ce>
 8003a10:	40023800 	.word	0x40023800
 8003a14:	4b5e      	ldr	r3, [pc, #376]	; (8003b90 <HAL_RCCEx_PeriphCLKConfig+0x7d8>)
 8003a16:	681b      	ldr	r3, [r3, #0]
 8003a18:	f003 5300 	and.w	r3, r3, #536870912	; 0x20000000
 8003a1c:	f1b3 5f00 	cmp.w	r3, #536870912	; 0x20000000
 8003a20:	d0ed      	beq.n	80039fe <HAL_RCCEx_PeriphCLKConfig+0x646>
 8003a22:	687b      	ldr	r3, [r7, #4]
 8003a24:	681b      	ldr	r3, [r3, #0]
 8003a26:	f403 2300 	and.w	r3, r3, #524288	; 0x80000
 8003a2a:	2b00      	cmp	r3, #0
 8003a2c:	d003      	beq.n	8003a36 <HAL_RCCEx_PeriphCLKConfig+0x67e>
 8003a2e:	687b      	ldr	r3, [r7, #4]
 8003a30:	6bdb      	ldr	r3, [r3, #60]	; 0x3c
 8003a32:	2b00      	cmp	r3, #0
 8003a34:	d009      	beq.n	8003a4a <HAL_RCCEx_PeriphCLKConfig+0x692>
 8003a36:	687b      	ldr	r3, [r7, #4]
 8003a38:	681b      	ldr	r3, [r3, #0]
 8003a3a:	f403 1380 	and.w	r3, r3, #1048576	; 0x100000
 8003a3e:	2b00      	cmp	r3, #0
 8003a40:	d02e      	beq.n	8003aa0 <HAL_RCCEx_PeriphCLKConfig+0x6e8>
 8003a42:	687b      	ldr	r3, [r7, #4]
 8003a44:	6c1b      	ldr	r3, [r3, #64]	; 0x40
 8003a46:	2b00      	cmp	r3, #0
 8003a48:	d12a      	bne.n	8003aa0 <HAL_RCCEx_PeriphCLKConfig+0x6e8>
 8003a4a:	4b51      	ldr	r3, [pc, #324]	; (8003b90 <HAL_RCCEx_PeriphCLKConfig+0x7d8>)
 8003a4c:	f8d3 3088 	ldr.w	r3, [r3, #136]	; 0x88
 8003a50:	0c1b      	lsrs	r3, r3, #16
 8003a52:	f003 0303 	and.w	r3, r3, #3
 8003a56:	613b      	str	r3, [r7, #16]
 8003a58:	4b4d      	ldr	r3, [pc, #308]	; (8003b90 <HAL_RCCEx_PeriphCLKConfig+0x7d8>)
 8003a5a:	f8d3 3088 	ldr.w	r3, [r3, #136]	; 0x88
 8003a5e:	0f1b      	lsrs	r3, r3, #28
 8003a60:	f003 0307 	and.w	r3, r3, #7
 8003a64:	60fb      	str	r3, [r7, #12]
 8003a66:	687b      	ldr	r3, [r7, #4]
 8003a68:	695b      	ldr	r3, [r3, #20]
 8003a6a:	019a      	lsls	r2, r3, #6
 8003a6c:	693b      	ldr	r3, [r7, #16]
 8003a6e:	041b      	lsls	r3, r3, #16
 8003a70:	431a      	orrs	r2, r3
 8003a72:	687b      	ldr	r3, [r7, #4]
 8003a74:	699b      	ldr	r3, [r3, #24]
 8003a76:	061b      	lsls	r3, r3, #24
 8003a78:	431a      	orrs	r2, r3
 8003a7a:	68fb      	ldr	r3, [r7, #12]
 8003a7c:	071b      	lsls	r3, r3, #28
 8003a7e:	4944      	ldr	r1, [pc, #272]	; (8003b90 <HAL_RCCEx_PeriphCLKConfig+0x7d8>)
 8003a80:	4313      	orrs	r3, r2
 8003a82:	f8c1 3088 	str.w	r3, [r1, #136]	; 0x88
 8003a86:	4b42      	ldr	r3, [pc, #264]	; (8003b90 <HAL_RCCEx_PeriphCLKConfig+0x7d8>)
 8003a88:	f8d3 308c 	ldr.w	r3, [r3, #140]	; 0x8c
 8003a8c:	f423 52f8 	bic.w	r2, r3, #7936	; 0x1f00
 8003a90:	687b      	ldr	r3, [r7, #4]
 8003a92:	6a9b      	ldr	r3, [r3, #40]	; 0x28
 8003a94:	3b01      	subs	r3, #1
 8003a96:	021b      	lsls	r3, r3, #8
 8003a98:	493d      	ldr	r1, [pc, #244]	; (8003b90 <HAL_RCCEx_PeriphCLKConfig+0x7d8>)
 8003a9a:	4313      	orrs	r3, r2
 8003a9c:	f8c1 308c 	str.w	r3, [r1, #140]	; 0x8c
 8003aa0:	687b      	ldr	r3, [r7, #4]
 8003aa2:	681b      	ldr	r3, [r3, #0]
 8003aa4:	f403 1300 	and.w	r3, r3, #2097152	; 0x200000
 8003aa8:	2b00      	cmp	r3, #0
 8003aaa:	d022      	beq.n	8003af2 <HAL_RCCEx_PeriphCLKConfig+0x73a>
 8003aac:	687b      	ldr	r3, [r7, #4]
 8003aae:	6fdb      	ldr	r3, [r3, #124]	; 0x7c
 8003ab0:	f1b3 6f00 	cmp.w	r3, #134217728	; 0x8000000
 8003ab4:	d11d      	bne.n	8003af2 <HAL_RCCEx_PeriphCLKConfig+0x73a>
 8003ab6:	4b36      	ldr	r3, [pc, #216]	; (8003b90 <HAL_RCCEx_PeriphCLKConfig+0x7d8>)
 8003ab8:	f8d3 3088 	ldr.w	r3, [r3, #136]	; 0x88
 8003abc:	0e1b      	lsrs	r3, r3, #24
 8003abe:	f003 030f 	and.w	r3, r3, #15
 8003ac2:	613b      	str	r3, [r7, #16]
 8003ac4:	4b32      	ldr	r3, [pc, #200]	; (8003b90 <HAL_RCCEx_PeriphCLKConfig+0x7d8>)
 8003ac6:	f8d3 3088 	ldr.w	r3, [r3, #136]	; 0x88
 8003aca:	0f1b      	lsrs	r3, r3, #28
 8003acc:	f003 0307 	and.w	r3, r3, #7
 8003ad0:	60fb      	str	r3, [r7, #12]
 8003ad2:	687b      	ldr	r3, [r7, #4]
 8003ad4:	695b      	ldr	r3, [r3, #20]
 8003ad6:	019a      	lsls	r2, r3, #6
 8003ad8:	687b      	ldr	r3, [r7, #4]
 8003ada:	6a1b      	ldr	r3, [r3, #32]
 8003adc:	041b      	lsls	r3, r3, #16
 8003ade:	431a      	orrs	r2, r3
 8003ae0:	693b      	ldr	r3, [r7, #16]
 8003ae2:	061b      	lsls	r3, r3, #24
 8003ae4:	431a      	orrs	r2, r3
 8003ae6:	68fb      	ldr	r3, [r7, #12]
 8003ae8:	071b      	lsls	r3, r3, #28
 8003aea:	4929      	ldr	r1, [pc, #164]	; (8003b90 <HAL_RCCEx_PeriphCLKConfig+0x7d8>)
 8003aec:	4313      	orrs	r3, r2
 8003aee:	f8c1 3088 	str.w	r3, [r1, #136]	; 0x88
 8003af2:	687b      	ldr	r3, [r7, #4]
 8003af4:	681b      	ldr	r3, [r3, #0]
 8003af6:	f003 0308 	and.w	r3, r3, #8
 8003afa:	2b00      	cmp	r3, #0
 8003afc:	d028      	beq.n	8003b50 <HAL_RCCEx_PeriphCLKConfig+0x798>
 8003afe:	4b24      	ldr	r3, [pc, #144]	; (8003b90 <HAL_RCCEx_PeriphCLKConfig+0x7d8>)
 8003b00:	f8d3 3088 	ldr.w	r3, [r3, #136]	; 0x88
 8003b04:	0e1b      	lsrs	r3, r3, #24
 8003b06:	f003 030f 	and.w	r3, r3, #15
 8003b0a:	613b      	str	r3, [r7, #16]
 8003b0c:	4b20      	ldr	r3, [pc, #128]	; (8003b90 <HAL_RCCEx_PeriphCLKConfig+0x7d8>)
 8003b0e:	f8d3 3088 	ldr.w	r3, [r3, #136]	; 0x88
 8003b12:	0c1b      	lsrs	r3, r3, #16
 8003b14:	f003 0303 	and.w	r3, r3, #3
 8003b18:	60fb      	str	r3, [r7, #12]
 8003b1a:	687b      	ldr	r3, [r7, #4]
 8003b1c:	695b      	ldr	r3, [r3, #20]
 8003b1e:	019a      	lsls	r2, r3, #6
 8003b20:	68fb      	ldr	r3, [r7, #12]
 8003b22:	041b      	lsls	r3, r3, #16
 8003b24:	431a      	orrs	r2, r3
 8003b26:	693b      	ldr	r3, [r7, #16]
 8003b28:	061b      	lsls	r3, r3, #24
 8003b2a:	431a      	orrs	r2, r3
 8003b2c:	687b      	ldr	r3, [r7, #4]
 8003b2e:	69db      	ldr	r3, [r3, #28]
 8003b30:	071b      	lsls	r3, r3, #28
 8003b32:	4917      	ldr	r1, [pc, #92]	; (8003b90 <HAL_RCCEx_PeriphCLKConfig+0x7d8>)
 8003b34:	4313      	orrs	r3, r2
 8003b36:	f8c1 3088 	str.w	r3, [r1, #136]	; 0x88
 8003b3a:	4b15      	ldr	r3, [pc, #84]	; (8003b90 <HAL_RCCEx_PeriphCLKConfig+0x7d8>)
 8003b3c:	f8d3 308c 	ldr.w	r3, [r3, #140]	; 0x8c
 8003b40:	f423 3240 	bic.w	r2, r3, #196608	; 0x30000
 8003b44:	687b      	ldr	r3, [r7, #4]
 8003b46:	6adb      	ldr	r3, [r3, #44]	; 0x2c
 8003b48:	4911      	ldr	r1, [pc, #68]	; (8003b90 <HAL_RCCEx_PeriphCLKConfig+0x7d8>)
 8003b4a:	4313      	orrs	r3, r2
 8003b4c:	f8c1 308c 	str.w	r3, [r1, #140]	; 0x8c
 8003b50:	4b0f      	ldr	r3, [pc, #60]	; (8003b90 <HAL_RCCEx_PeriphCLKConfig+0x7d8>)
 8003b52:	681b      	ldr	r3, [r3, #0]
 8003b54:	4a0e      	ldr	r2, [pc, #56]	; (8003b90 <HAL_RCCEx_PeriphCLKConfig+0x7d8>)
 8003b56:	f043 5380 	orr.w	r3, r3, #268435456	; 0x10000000
 8003b5a:	6013      	str	r3, [r2, #0]
 8003b5c:	f7fd f970 	bl	8000e40 <HAL_GetTick>
 8003b60:	6178      	str	r0, [r7, #20]
 8003b62:	e008      	b.n	8003b76 <HAL_RCCEx_PeriphCLKConfig+0x7be>
 8003b64:	f7fd f96c 	bl	8000e40 <HAL_GetTick>
 8003b68:	4602      	mov	r2, r0
 8003b6a:	697b      	ldr	r3, [r7, #20]
 8003b6c:	1ad3      	subs	r3, r2, r3
 8003b6e:	2b64      	cmp	r3, #100	; 0x64
 8003b70:	d901      	bls.n	8003b76 <HAL_RCCEx_PeriphCLKConfig+0x7be>
 8003b72:	2303      	movs	r3, #3
 8003b74:	e007      	b.n	8003b86 <HAL_RCCEx_PeriphCLKConfig+0x7ce>
 8003b76:	4b06      	ldr	r3, [pc, #24]	; (8003b90 <HAL_RCCEx_PeriphCLKConfig+0x7d8>)
 8003b78:	681b      	ldr	r3, [r3, #0]
 8003b7a:	f003 5300 	and.w	r3, r3, #536870912	; 0x20000000
 8003b7e:	f1b3 5f00 	cmp.w	r3, #536870912	; 0x20000000
 8003b82:	d1ef      	bne.n	8003b64 <HAL_RCCEx_PeriphCLKConfig+0x7ac>
 8003b84:	2300      	movs	r3, #0
 8003b86:	4618      	mov	r0, r3
 8003b88:	3720      	adds	r7, #32
 8003b8a:	46bd      	mov	sp, r7
 8003b8c:	bd80      	pop	{r7, pc}
 8003b8e:	bf00      	nop
 8003b90:	40023800 	.word	0x40023800

08003b94 <HAL_TIM_Base_Init>:
 8003b94:	b580      	push	{r7, lr}
 8003b96:	b082      	sub	sp, #8
 8003b98:	af00      	add	r7, sp, #0
 8003b9a:	6078      	str	r0, [r7, #4]
 8003b9c:	687b      	ldr	r3, [r7, #4]
 8003b9e:	2b00      	cmp	r3, #0
 8003ba0:	d101      	bne.n	8003ba6 <HAL_TIM_Base_Init+0x12>
 8003ba2:	2301      	movs	r3, #1
 8003ba4:	e01d      	b.n	8003be2 <HAL_TIM_Base_Init+0x4e>
 8003ba6:	687b      	ldr	r3, [r7, #4]
 8003ba8:	f893 303d 	ldrb.w	r3, [r3, #61]	; 0x3d
 8003bac:	b2db      	uxtb	r3, r3
 8003bae:	2b00      	cmp	r3, #0
 8003bb0:	d106      	bne.n	8003bc0 <HAL_TIM_Base_Init+0x2c>
 8003bb2:	687b      	ldr	r3, [r7, #4]
 8003bb4:	2200      	movs	r2, #0
 8003bb6:	f883 203c 	strb.w	r2, [r3, #60]	; 0x3c
 8003bba:	6878      	ldr	r0, [r7, #4]
 8003bbc:	f003 fa2e 	bl	800701c <HAL_TIM_Base_MspInit>
 8003bc0:	687b      	ldr	r3, [r7, #4]
 8003bc2:	2202      	movs	r2, #2
 8003bc4:	f883 203d 	strb.w	r2, [r3, #61]	; 0x3d
 8003bc8:	687b      	ldr	r3, [r7, #4]
 8003bca:	681a      	ldr	r2, [r3, #0]
 8003bcc:	687b      	ldr	r3, [r7, #4]
 8003bce:	3304      	adds	r3, #4
 8003bd0:	4619      	mov	r1, r3
 8003bd2:	4610      	mov	r0, r2
 8003bd4:	f000 fa4a 	bl	800406c <TIM_Base_SetConfig>
 8003bd8:	687b      	ldr	r3, [r7, #4]
 8003bda:	2201      	movs	r2, #1
 8003bdc:	f883 203d 	strb.w	r2, [r3, #61]	; 0x3d
 8003be0:	2300      	movs	r3, #0
 8003be2:	4618      	mov	r0, r3
 8003be4:	3708      	adds	r7, #8
 8003be6:	46bd      	mov	sp, r7
 8003be8:	bd80      	pop	{r7, pc}

08003bea <HAL_TIM_PWM_Init>:
 8003bea:	b580      	push	{r7, lr}
 8003bec:	b082      	sub	sp, #8
 8003bee:	af00      	add	r7, sp, #0
 8003bf0:	6078      	str	r0, [r7, #4]
 8003bf2:	687b      	ldr	r3, [r7, #4]
 8003bf4:	2b00      	cmp	r3, #0
 8003bf6:	d101      	bne.n	8003bfc <HAL_TIM_PWM_Init+0x12>
 8003bf8:	2301      	movs	r3, #1
 8003bfa:	e01d      	b.n	8003c38 <HAL_TIM_PWM_Init+0x4e>
 8003bfc:	687b      	ldr	r3, [r7, #4]
 8003bfe:	f893 303d 	ldrb.w	r3, [r3, #61]	; 0x3d
 8003c02:	b2db      	uxtb	r3, r3
 8003c04:	2b00      	cmp	r3, #0
 8003c06:	d106      	bne.n	8003c16 <HAL_TIM_PWM_Init+0x2c>
 8003c08:	687b      	ldr	r3, [r7, #4]
 8003c0a:	2200      	movs	r2, #0
 8003c0c:	f883 203c 	strb.w	r2, [r3, #60]	; 0x3c
 8003c10:	6878      	ldr	r0, [r7, #4]
 8003c12:	f003 fa23 	bl	800705c <HAL_TIM_PWM_MspInit>
 8003c16:	687b      	ldr	r3, [r7, #4]
 8003c18:	2202      	movs	r2, #2
 8003c1a:	f883 203d 	strb.w	r2, [r3, #61]	; 0x3d
 8003c1e:	687b      	ldr	r3, [r7, #4]
 8003c20:	681a      	ldr	r2, [r3, #0]
 8003c22:	687b      	ldr	r3, [r7, #4]
 8003c24:	3304      	adds	r3, #4
 8003c26:	4619      	mov	r1, r3
 8003c28:	4610      	mov	r0, r2
 8003c2a:	f000 fa1f 	bl	800406c <TIM_Base_SetConfig>
 8003c2e:	687b      	ldr	r3, [r7, #4]
 8003c30:	2201      	movs	r2, #1
 8003c32:	f883 203d 	strb.w	r2, [r3, #61]	; 0x3d
 8003c36:	2300      	movs	r3, #0
 8003c38:	4618      	mov	r0, r3
 8003c3a:	3708      	adds	r7, #8
 8003c3c:	46bd      	mov	sp, r7
 8003c3e:	bd80      	pop	{r7, pc}

08003c40 <HAL_TIM_PWM_Start>:
 8003c40:	b580      	push	{r7, lr}
 8003c42:	b084      	sub	sp, #16
 8003c44:	af00      	add	r7, sp, #0
 8003c46:	6078      	str	r0, [r7, #4]
 8003c48:	6039      	str	r1, [r7, #0]
 8003c4a:	687b      	ldr	r3, [r7, #4]
 8003c4c:	681b      	ldr	r3, [r3, #0]
 8003c4e:	2201      	movs	r2, #1
 8003c50:	6839      	ldr	r1, [r7, #0]
 8003c52:	4618      	mov	r0, r3
 8003c54:	f000 fda2 	bl	800479c <TIM_CCxChannelCmd>
 8003c58:	687b      	ldr	r3, [r7, #4]
 8003c5a:	681b      	ldr	r3, [r3, #0]
 8003c5c:	4a17      	ldr	r2, [pc, #92]	; (8003cbc <HAL_TIM_PWM_Start+0x7c>)
 8003c5e:	4293      	cmp	r3, r2
 8003c60:	d004      	beq.n	8003c6c <HAL_TIM_PWM_Start+0x2c>
 8003c62:	687b      	ldr	r3, [r7, #4]
 8003c64:	681b      	ldr	r3, [r3, #0]
 8003c66:	4a16      	ldr	r2, [pc, #88]	; (8003cc0 <HAL_TIM_PWM_Start+0x80>)
 8003c68:	4293      	cmp	r3, r2
 8003c6a:	d101      	bne.n	8003c70 <HAL_TIM_PWM_Start+0x30>
 8003c6c:	2301      	movs	r3, #1
 8003c6e:	e000      	b.n	8003c72 <HAL_TIM_PWM_Start+0x32>
 8003c70:	2300      	movs	r3, #0
 8003c72:	2b00      	cmp	r3, #0
 8003c74:	d007      	beq.n	8003c86 <HAL_TIM_PWM_Start+0x46>
 8003c76:	687b      	ldr	r3, [r7, #4]
 8003c78:	681b      	ldr	r3, [r3, #0]
 8003c7a:	6c5a      	ldr	r2, [r3, #68]	; 0x44
 8003c7c:	687b      	ldr	r3, [r7, #4]
 8003c7e:	681b      	ldr	r3, [r3, #0]
 8003c80:	f442 4200 	orr.w	r2, r2, #32768	; 0x8000
 8003c84:	645a      	str	r2, [r3, #68]	; 0x44
 8003c86:	687b      	ldr	r3, [r7, #4]
 8003c88:	681b      	ldr	r3, [r3, #0]
 8003c8a:	689a      	ldr	r2, [r3, #8]
 8003c8c:	4b0d      	ldr	r3, [pc, #52]	; (8003cc4 <HAL_TIM_PWM_Start+0x84>)
 8003c8e:	4013      	ands	r3, r2
 8003c90:	60fb      	str	r3, [r7, #12]
 8003c92:	68fb      	ldr	r3, [r7, #12]
 8003c94:	2b06      	cmp	r3, #6
 8003c96:	d00b      	beq.n	8003cb0 <HAL_TIM_PWM_Start+0x70>
 8003c98:	68fb      	ldr	r3, [r7, #12]
 8003c9a:	f5b3 3f80 	cmp.w	r3, #65536	; 0x10000
 8003c9e:	d007      	beq.n	8003cb0 <HAL_TIM_PWM_Start+0x70>
 8003ca0:	687b      	ldr	r3, [r7, #4]
 8003ca2:	681b      	ldr	r3, [r3, #0]
 8003ca4:	681a      	ldr	r2, [r3, #0]
 8003ca6:	687b      	ldr	r3, [r7, #4]
 8003ca8:	681b      	ldr	r3, [r3, #0]
 8003caa:	f042 0201 	orr.w	r2, r2, #1
 8003cae:	601a      	str	r2, [r3, #0]
 8003cb0:	2300      	movs	r3, #0
 8003cb2:	4618      	mov	r0, r3
 8003cb4:	3710      	adds	r7, #16
 8003cb6:	46bd      	mov	sp, r7
 8003cb8:	bd80      	pop	{r7, pc}
 8003cba:	bf00      	nop
 8003cbc:	40010000 	.word	0x40010000
 8003cc0:	40010400 	.word	0x40010400
 8003cc4:	00010007 	.word	0x00010007

08003cc8 <HAL_TIM_PWM_ConfigChannel>:
 8003cc8:	b580      	push	{r7, lr}
 8003cca:	b084      	sub	sp, #16
 8003ccc:	af00      	add	r7, sp, #0
 8003cce:	60f8      	str	r0, [r7, #12]
 8003cd0:	60b9      	str	r1, [r7, #8]
 8003cd2:	607a      	str	r2, [r7, #4]
 8003cd4:	68fb      	ldr	r3, [r7, #12]
 8003cd6:	f893 303c 	ldrb.w	r3, [r3, #60]	; 0x3c
 8003cda:	2b01      	cmp	r3, #1
 8003cdc:	d101      	bne.n	8003ce2 <HAL_TIM_PWM_ConfigChannel+0x1a>
 8003cde:	2302      	movs	r3, #2
 8003ce0:	e105      	b.n	8003eee <HAL_TIM_PWM_ConfigChannel+0x226>
 8003ce2:	68fb      	ldr	r3, [r7, #12]
 8003ce4:	2201      	movs	r2, #1
 8003ce6:	f883 203c 	strb.w	r2, [r3, #60]	; 0x3c
 8003cea:	68fb      	ldr	r3, [r7, #12]
 8003cec:	2202      	movs	r2, #2
 8003cee:	f883 203d 	strb.w	r2, [r3, #61]	; 0x3d
 8003cf2:	687b      	ldr	r3, [r7, #4]
 8003cf4:	2b14      	cmp	r3, #20
 8003cf6:	f200 80f0 	bhi.w	8003eda <HAL_TIM_PWM_ConfigChannel+0x212>
 8003cfa:	a201      	add	r2, pc, #4	; (adr r2, 8003d00 <HAL_TIM_PWM_ConfigChannel+0x38>)
 8003cfc:	f852 f023 	ldr.w	pc, [r2, r3, lsl #2]
 8003d00:	08003d55 	.word	0x08003d55
 8003d04:	08003edb 	.word	0x08003edb
 8003d08:	08003edb 	.word	0x08003edb
 8003d0c:	08003edb 	.word	0x08003edb
 8003d10:	08003d95 	.word	0x08003d95
 8003d14:	08003edb 	.word	0x08003edb
 8003d18:	08003edb 	.word	0x08003edb
 8003d1c:	08003edb 	.word	0x08003edb
 8003d20:	08003dd7 	.word	0x08003dd7
 8003d24:	08003edb 	.word	0x08003edb
 8003d28:	08003edb 	.word	0x08003edb
 8003d2c:	08003edb 	.word	0x08003edb
 8003d30:	08003e17 	.word	0x08003e17
 8003d34:	08003edb 	.word	0x08003edb
 8003d38:	08003edb 	.word	0x08003edb
 8003d3c:	08003edb 	.word	0x08003edb
 8003d40:	08003e59 	.word	0x08003e59
 8003d44:	08003edb 	.word	0x08003edb
 8003d48:	08003edb 	.word	0x08003edb
 8003d4c:	08003edb 	.word	0x08003edb
 8003d50:	08003e99 	.word	0x08003e99
 8003d54:	68fb      	ldr	r3, [r7, #12]
 8003d56:	681b      	ldr	r3, [r3, #0]
 8003d58:	68b9      	ldr	r1, [r7, #8]
 8003d5a:	4618      	mov	r0, r3
 8003d5c:	f000 fa26 	bl	80041ac <TIM_OC1_SetConfig>
 8003d60:	68fb      	ldr	r3, [r7, #12]
 8003d62:	681b      	ldr	r3, [r3, #0]
 8003d64:	699a      	ldr	r2, [r3, #24]
 8003d66:	68fb      	ldr	r3, [r7, #12]
 8003d68:	681b      	ldr	r3, [r3, #0]
 8003d6a:	f042 0208 	orr.w	r2, r2, #8
 8003d6e:	619a      	str	r2, [r3, #24]
 8003d70:	68fb      	ldr	r3, [r7, #12]
 8003d72:	681b      	ldr	r3, [r3, #0]
 8003d74:	699a      	ldr	r2, [r3, #24]
 8003d76:	68fb      	ldr	r3, [r7, #12]
 8003d78:	681b      	ldr	r3, [r3, #0]
 8003d7a:	f022 0204 	bic.w	r2, r2, #4
 8003d7e:	619a      	str	r2, [r3, #24]
 8003d80:	68fb      	ldr	r3, [r7, #12]
 8003d82:	681b      	ldr	r3, [r3, #0]
 8003d84:	6999      	ldr	r1, [r3, #24]
 8003d86:	68bb      	ldr	r3, [r7, #8]
 8003d88:	691a      	ldr	r2, [r3, #16]
 8003d8a:	68fb      	ldr	r3, [r7, #12]
 8003d8c:	681b      	ldr	r3, [r3, #0]
 8003d8e:	430a      	orrs	r2, r1
 8003d90:	619a      	str	r2, [r3, #24]
 8003d92:	e0a3      	b.n	8003edc <HAL_TIM_PWM_ConfigChannel+0x214>
 8003d94:	68fb      	ldr	r3, [r7, #12]
 8003d96:	681b      	ldr	r3, [r3, #0]
 8003d98:	68b9      	ldr	r1, [r7, #8]
 8003d9a:	4618      	mov	r0, r3
 8003d9c:	f000 fa78 	bl	8004290 <TIM_OC2_SetConfig>
 8003da0:	68fb      	ldr	r3, [r7, #12]
 8003da2:	681b      	ldr	r3, [r3, #0]
 8003da4:	699a      	ldr	r2, [r3, #24]
 8003da6:	68fb      	ldr	r3, [r7, #12]
 8003da8:	681b      	ldr	r3, [r3, #0]
 8003daa:	f442 6200 	orr.w	r2, r2, #2048	; 0x800
 8003dae:	619a      	str	r2, [r3, #24]
 8003db0:	68fb      	ldr	r3, [r7, #12]
 8003db2:	681b      	ldr	r3, [r3, #0]
 8003db4:	699a      	ldr	r2, [r3, #24]
 8003db6:	68fb      	ldr	r3, [r7, #12]
 8003db8:	681b      	ldr	r3, [r3, #0]
 8003dba:	f422 6280 	bic.w	r2, r2, #1024	; 0x400
 8003dbe:	619a      	str	r2, [r3, #24]
 8003dc0:	68fb      	ldr	r3, [r7, #12]
 8003dc2:	681b      	ldr	r3, [r3, #0]
 8003dc4:	6999      	ldr	r1, [r3, #24]
 8003dc6:	68bb      	ldr	r3, [r7, #8]
 8003dc8:	691b      	ldr	r3, [r3, #16]
 8003dca:	021a      	lsls	r2, r3, #8
 8003dcc:	68fb      	ldr	r3, [r7, #12]
 8003dce:	681b      	ldr	r3, [r3, #0]
 8003dd0:	430a      	orrs	r2, r1
 8003dd2:	619a      	str	r2, [r3, #24]
 8003dd4:	e082      	b.n	8003edc <HAL_TIM_PWM_ConfigChannel+0x214>
 8003dd6:	68fb      	ldr	r3, [r7, #12]
 8003dd8:	681b      	ldr	r3, [r3, #0]
 8003dda:	68b9      	ldr	r1, [r7, #8]
 8003ddc:	4618      	mov	r0, r3
 8003dde:	f000 facf 	bl	8004380 <TIM_OC3_SetConfig>
 8003de2:	68fb      	ldr	r3, [r7, #12]
 8003de4:	681b      	ldr	r3, [r3, #0]
 8003de6:	69da      	ldr	r2, [r3, #28]
 8003de8:	68fb      	ldr	r3, [r7, #12]
 8003dea:	681b      	ldr	r3, [r3, #0]
 8003dec:	f042 0208 	orr.w	r2, r2, #8
 8003df0:	61da      	str	r2, [r3, #28]
 8003df2:	68fb      	ldr	r3, [r7, #12]
 8003df4:	681b      	ldr	r3, [r3, #0]
 8003df6:	69da      	ldr	r2, [r3, #28]
 8003df8:	68fb      	ldr	r3, [r7, #12]
 8003dfa:	681b      	ldr	r3, [r3, #0]
 8003dfc:	f022 0204 	bic.w	r2, r2, #4
 8003e00:	61da      	str	r2, [r3, #28]
 8003e02:	68fb      	ldr	r3, [r7, #12]
 8003e04:	681b      	ldr	r3, [r3, #0]
 8003e06:	69d9      	ldr	r1, [r3, #28]
 8003e08:	68bb      	ldr	r3, [r7, #8]
 8003e0a:	691a      	ldr	r2, [r3, #16]
 8003e0c:	68fb      	ldr	r3, [r7, #12]
 8003e0e:	681b      	ldr	r3, [r3, #0]
 8003e10:	430a      	orrs	r2, r1
 8003e12:	61da      	str	r2, [r3, #28]
 8003e14:	e062      	b.n	8003edc <HAL_TIM_PWM_ConfigChannel+0x214>
 8003e16:	68fb      	ldr	r3, [r7, #12]
 8003e18:	681b      	ldr	r3, [r3, #0]
 8003e1a:	68b9      	ldr	r1, [r7, #8]
 8003e1c:	4618      	mov	r0, r3
 8003e1e:	f000 fb25 	bl	800446c <TIM_OC4_SetConfig>
 8003e22:	68fb      	ldr	r3, [r7, #12]
 8003e24:	681b      	ldr	r3, [r3, #0]
 8003e26:	69da      	ldr	r2, [r3, #28]
 8003e28:	68fb      	ldr	r3, [r7, #12]
 8003e2a:	681b      	ldr	r3, [r3, #0]
 8003e2c:	f442 6200 	orr.w	r2, r2, #2048	; 0x800
 8003e30:	61da      	str	r2, [r3, #28]
 8003e32:	68fb      	ldr	r3, [r7, #12]
 8003e34:	681b      	ldr	r3, [r3, #0]
 8003e36:	69da      	ldr	r2, [r3, #28]
 8003e38:	68fb      	ldr	r3, [r7, #12]
 8003e3a:	681b      	ldr	r3, [r3, #0]
 8003e3c:	f422 6280 	bic.w	r2, r2, #1024	; 0x400
 8003e40:	61da      	str	r2, [r3, #28]
 8003e42:	68fb      	ldr	r3, [r7, #12]
 8003e44:	681b      	ldr	r3, [r3, #0]
 8003e46:	69d9      	ldr	r1, [r3, #28]
 8003e48:	68bb      	ldr	r3, [r7, #8]
 8003e4a:	691b      	ldr	r3, [r3, #16]
 8003e4c:	021a      	lsls	r2, r3, #8
 8003e4e:	68fb      	ldr	r3, [r7, #12]
 8003e50:	681b      	ldr	r3, [r3, #0]
 8003e52:	430a      	orrs	r2, r1
 8003e54:	61da      	str	r2, [r3, #28]
 8003e56:	e041      	b.n	8003edc <HAL_TIM_PWM_ConfigChannel+0x214>
 8003e58:	68fb      	ldr	r3, [r7, #12]
 8003e5a:	681b      	ldr	r3, [r3, #0]
 8003e5c:	68b9      	ldr	r1, [r7, #8]
 8003e5e:	4618      	mov	r0, r3
 8003e60:	f000 fb5c 	bl	800451c <TIM_OC5_SetConfig>
 8003e64:	68fb      	ldr	r3, [r7, #12]
 8003e66:	681b      	ldr	r3, [r3, #0]
 8003e68:	6d5a      	ldr	r2, [r3, #84]	; 0x54
 8003e6a:	68fb      	ldr	r3, [r7, #12]
 8003e6c:	681b      	ldr	r3, [r3, #0]
 8003e6e:	f042 0208 	orr.w	r2, r2, #8
 8003e72:	655a      	str	r2, [r3, #84]	; 0x54
 8003e74:	68fb      	ldr	r3, [r7, #12]
 8003e76:	681b      	ldr	r3, [r3, #0]
 8003e78:	6d5a      	ldr	r2, [r3, #84]	; 0x54
 8003e7a:	68fb      	ldr	r3, [r7, #12]
 8003e7c:	681b      	ldr	r3, [r3, #0]
 8003e7e:	f022 0204 	bic.w	r2, r2, #4
 8003e82:	655a      	str	r2, [r3, #84]	; 0x54
 8003e84:	68fb      	ldr	r3, [r7, #12]
 8003e86:	681b      	ldr	r3, [r3, #0]
 8003e88:	6d59      	ldr	r1, [r3, #84]	; 0x54
 8003e8a:	68bb      	ldr	r3, [r7, #8]
 8003e8c:	691a      	ldr	r2, [r3, #16]
 8003e8e:	68fb      	ldr	r3, [r7, #12]
 8003e90:	681b      	ldr	r3, [r3, #0]
 8003e92:	430a      	orrs	r2, r1
 8003e94:	655a      	str	r2, [r3, #84]	; 0x54
 8003e96:	e021      	b.n	8003edc <HAL_TIM_PWM_ConfigChannel+0x214>
 8003e98:	68fb      	ldr	r3, [r7, #12]
 8003e9a:	681b      	ldr	r3, [r3, #0]
 8003e9c:	68b9      	ldr	r1, [r7, #8]
 8003e9e:	4618      	mov	r0, r3
 8003ea0:	f000 fb8e 	bl	80045c0 <TIM_OC6_SetConfig>
 8003ea4:	68fb      	ldr	r3, [r7, #12]
 8003ea6:	681b      	ldr	r3, [r3, #0]
 8003ea8:	6d5a      	ldr	r2, [r3, #84]	; 0x54
 8003eaa:	68fb      	ldr	r3, [r7, #12]
 8003eac:	681b      	ldr	r3, [r3, #0]
 8003eae:	f442 6200 	orr.w	r2, r2, #2048	; 0x800
 8003eb2:	655a      	str	r2, [r3, #84]	; 0x54
 8003eb4:	68fb      	ldr	r3, [r7, #12]
 8003eb6:	681b      	ldr	r3, [r3, #0]
 8003eb8:	6d5a      	ldr	r2, [r3, #84]	; 0x54
 8003eba:	68fb      	ldr	r3, [r7, #12]
 8003ebc:	681b      	ldr	r3, [r3, #0]
 8003ebe:	f422 6280 	bic.w	r2, r2, #1024	; 0x400
 8003ec2:	655a      	str	r2, [r3, #84]	; 0x54
 8003ec4:	68fb      	ldr	r3, [r7, #12]
 8003ec6:	681b      	ldr	r3, [r3, #0]
 8003ec8:	6d59      	ldr	r1, [r3, #84]	; 0x54
 8003eca:	68bb      	ldr	r3, [r7, #8]
 8003ecc:	691b      	ldr	r3, [r3, #16]
 8003ece:	021a      	lsls	r2, r3, #8
 8003ed0:	68fb      	ldr	r3, [r7, #12]
 8003ed2:	681b      	ldr	r3, [r3, #0]
 8003ed4:	430a      	orrs	r2, r1
 8003ed6:	655a      	str	r2, [r3, #84]	; 0x54
 8003ed8:	e000      	b.n	8003edc <HAL_TIM_PWM_ConfigChannel+0x214>
 8003eda:	bf00      	nop
 8003edc:	68fb      	ldr	r3, [r7, #12]
 8003ede:	2201      	movs	r2, #1
 8003ee0:	f883 203d 	strb.w	r2, [r3, #61]	; 0x3d
 8003ee4:	68fb      	ldr	r3, [r7, #12]
 8003ee6:	2200      	movs	r2, #0
 8003ee8:	f883 203c 	strb.w	r2, [r3, #60]	; 0x3c
 8003eec:	2300      	movs	r3, #0
 8003eee:	4618      	mov	r0, r3
 8003ef0:	3710      	adds	r7, #16
 8003ef2:	46bd      	mov	sp, r7
 8003ef4:	bd80      	pop	{r7, pc}
 8003ef6:	bf00      	nop

08003ef8 <HAL_TIM_ConfigClockSource>:
 8003ef8:	b580      	push	{r7, lr}
 8003efa:	b084      	sub	sp, #16
 8003efc:	af00      	add	r7, sp, #0
 8003efe:	6078      	str	r0, [r7, #4]
 8003f00:	6039      	str	r1, [r7, #0]
 8003f02:	687b      	ldr	r3, [r7, #4]
 8003f04:	f893 303c 	ldrb.w	r3, [r3, #60]	; 0x3c
 8003f08:	2b01      	cmp	r3, #1
 8003f0a:	d101      	bne.n	8003f10 <HAL_TIM_ConfigClockSource+0x18>
 8003f0c:	2302      	movs	r3, #2
 8003f0e:	e0a6      	b.n	800405e <HAL_TIM_ConfigClockSource+0x166>
 8003f10:	687b      	ldr	r3, [r7, #4]
 8003f12:	2201      	movs	r2, #1
 8003f14:	f883 203c 	strb.w	r2, [r3, #60]	; 0x3c
 8003f18:	687b      	ldr	r3, [r7, #4]
 8003f1a:	2202      	movs	r2, #2
 8003f1c:	f883 203d 	strb.w	r2, [r3, #61]	; 0x3d
 8003f20:	687b      	ldr	r3, [r7, #4]
 8003f22:	681b      	ldr	r3, [r3, #0]
 8003f24:	689b      	ldr	r3, [r3, #8]
 8003f26:	60fb      	str	r3, [r7, #12]
 8003f28:	68fa      	ldr	r2, [r7, #12]
 8003f2a:	4b4f      	ldr	r3, [pc, #316]	; (8004068 <HAL_TIM_ConfigClockSource+0x170>)
 8003f2c:	4013      	ands	r3, r2
 8003f2e:	60fb      	str	r3, [r7, #12]
 8003f30:	68fb      	ldr	r3, [r7, #12]
 8003f32:	f423 437f 	bic.w	r3, r3, #65280	; 0xff00
 8003f36:	60fb      	str	r3, [r7, #12]
 8003f38:	687b      	ldr	r3, [r7, #4]
 8003f3a:	681b      	ldr	r3, [r3, #0]
 8003f3c:	68fa      	ldr	r2, [r7, #12]
 8003f3e:	609a      	str	r2, [r3, #8]
 8003f40:	683b      	ldr	r3, [r7, #0]
 8003f42:	681b      	ldr	r3, [r3, #0]
 8003f44:	2b40      	cmp	r3, #64	; 0x40
 8003f46:	d067      	beq.n	8004018 <HAL_TIM_ConfigClockSource+0x120>
 8003f48:	2b40      	cmp	r3, #64	; 0x40
 8003f4a:	d80b      	bhi.n	8003f64 <HAL_TIM_ConfigClockSource+0x6c>
 8003f4c:	2b10      	cmp	r3, #16
 8003f4e:	d073      	beq.n	8004038 <HAL_TIM_ConfigClockSource+0x140>
 8003f50:	2b10      	cmp	r3, #16
 8003f52:	d802      	bhi.n	8003f5a <HAL_TIM_ConfigClockSource+0x62>
 8003f54:	2b00      	cmp	r3, #0
 8003f56:	d06f      	beq.n	8004038 <HAL_TIM_ConfigClockSource+0x140>
 8003f58:	e078      	b.n	800404c <HAL_TIM_ConfigClockSource+0x154>
 8003f5a:	2b20      	cmp	r3, #32
 8003f5c:	d06c      	beq.n	8004038 <HAL_TIM_ConfigClockSource+0x140>
 8003f5e:	2b30      	cmp	r3, #48	; 0x30
 8003f60:	d06a      	beq.n	8004038 <HAL_TIM_ConfigClockSource+0x140>
 8003f62:	e073      	b.n	800404c <HAL_TIM_ConfigClockSource+0x154>
 8003f64:	2b70      	cmp	r3, #112	; 0x70
 8003f66:	d00d      	beq.n	8003f84 <HAL_TIM_ConfigClockSource+0x8c>
 8003f68:	2b70      	cmp	r3, #112	; 0x70
 8003f6a:	d804      	bhi.n	8003f76 <HAL_TIM_ConfigClockSource+0x7e>
 8003f6c:	2b50      	cmp	r3, #80	; 0x50
 8003f6e:	d033      	beq.n	8003fd8 <HAL_TIM_ConfigClockSource+0xe0>
 8003f70:	2b60      	cmp	r3, #96	; 0x60
 8003f72:	d041      	beq.n	8003ff8 <HAL_TIM_ConfigClockSource+0x100>
 8003f74:	e06a      	b.n	800404c <HAL_TIM_ConfigClockSource+0x154>
 8003f76:	f5b3 5f80 	cmp.w	r3, #4096	; 0x1000
 8003f7a:	d066      	beq.n	800404a <HAL_TIM_ConfigClockSource+0x152>
 8003f7c:	f5b3 5f00 	cmp.w	r3, #8192	; 0x2000
 8003f80:	d017      	beq.n	8003fb2 <HAL_TIM_ConfigClockSource+0xba>
 8003f82:	e063      	b.n	800404c <HAL_TIM_ConfigClockSource+0x154>
 8003f84:	687b      	ldr	r3, [r7, #4]
 8003f86:	6818      	ldr	r0, [r3, #0]
 8003f88:	683b      	ldr	r3, [r7, #0]
 8003f8a:	6899      	ldr	r1, [r3, #8]
 8003f8c:	683b      	ldr	r3, [r7, #0]
 8003f8e:	685a      	ldr	r2, [r3, #4]
 8003f90:	683b      	ldr	r3, [r7, #0]
 8003f92:	68db      	ldr	r3, [r3, #12]
 8003f94:	f000 fbe2 	bl	800475c <TIM_ETR_SetConfig>
 8003f98:	687b      	ldr	r3, [r7, #4]
 8003f9a:	681b      	ldr	r3, [r3, #0]
 8003f9c:	689b      	ldr	r3, [r3, #8]
 8003f9e:	60fb      	str	r3, [r7, #12]
 8003fa0:	68fb      	ldr	r3, [r7, #12]
 8003fa2:	f043 0377 	orr.w	r3, r3, #119	; 0x77
 8003fa6:	60fb      	str	r3, [r7, #12]
 8003fa8:	687b      	ldr	r3, [r7, #4]
 8003faa:	681b      	ldr	r3, [r3, #0]
 8003fac:	68fa      	ldr	r2, [r7, #12]
 8003fae:	609a      	str	r2, [r3, #8]
 8003fb0:	e04c      	b.n	800404c <HAL_TIM_ConfigClockSource+0x154>
 8003fb2:	687b      	ldr	r3, [r7, #4]
 8003fb4:	6818      	ldr	r0, [r3, #0]
 8003fb6:	683b      	ldr	r3, [r7, #0]
 8003fb8:	6899      	ldr	r1, [r3, #8]
 8003fba:	683b      	ldr	r3, [r7, #0]
 8003fbc:	685a      	ldr	r2, [r3, #4]
 8003fbe:	683b      	ldr	r3, [r7, #0]
 8003fc0:	68db      	ldr	r3, [r3, #12]
 8003fc2:	f000 fbcb 	bl	800475c <TIM_ETR_SetConfig>
 8003fc6:	687b      	ldr	r3, [r7, #4]
 8003fc8:	681b      	ldr	r3, [r3, #0]
 8003fca:	689a      	ldr	r2, [r3, #8]
 8003fcc:	687b      	ldr	r3, [r7, #4]
 8003fce:	681b      	ldr	r3, [r3, #0]
 8003fd0:	f442 4280 	orr.w	r2, r2, #16384	; 0x4000
 8003fd4:	609a      	str	r2, [r3, #8]
 8003fd6:	e039      	b.n	800404c <HAL_TIM_ConfigClockSource+0x154>
 8003fd8:	687b      	ldr	r3, [r7, #4]
 8003fda:	6818      	ldr	r0, [r3, #0]
 8003fdc:	683b      	ldr	r3, [r7, #0]
 8003fde:	6859      	ldr	r1, [r3, #4]
 8003fe0:	683b      	ldr	r3, [r7, #0]
 8003fe2:	68db      	ldr	r3, [r3, #12]
 8003fe4:	461a      	mov	r2, r3
 8003fe6:	f000 fb3f 	bl	8004668 <TIM_TI1_ConfigInputStage>
 8003fea:	687b      	ldr	r3, [r7, #4]
 8003fec:	681b      	ldr	r3, [r3, #0]
 8003fee:	2150      	movs	r1, #80	; 0x50
 8003ff0:	4618      	mov	r0, r3
 8003ff2:	f000 fb98 	bl	8004726 <TIM_ITRx_SetConfig>
 8003ff6:	e029      	b.n	800404c <HAL_TIM_ConfigClockSource+0x154>
 8003ff8:	687b      	ldr	r3, [r7, #4]
 8003ffa:	6818      	ldr	r0, [r3, #0]
 8003ffc:	683b      	ldr	r3, [r7, #0]
 8003ffe:	6859      	ldr	r1, [r3, #4]
 8004000:	683b      	ldr	r3, [r7, #0]
 8004002:	68db      	ldr	r3, [r3, #12]
 8004004:	461a      	mov	r2, r3
 8004006:	f000 fb5e 	bl	80046c6 <TIM_TI2_ConfigInputStage>
 800400a:	687b      	ldr	r3, [r7, #4]
 800400c:	681b      	ldr	r3, [r3, #0]
 800400e:	2160      	movs	r1, #96	; 0x60
 8004010:	4618      	mov	r0, r3
 8004012:	f000 fb88 	bl	8004726 <TIM_ITRx_SetConfig>
 8004016:	e019      	b.n	800404c <HAL_TIM_ConfigClockSource+0x154>
 8004018:	687b      	ldr	r3, [r7, #4]
 800401a:	6818      	ldr	r0, [r3, #0]
 800401c:	683b      	ldr	r3, [r7, #0]
 800401e:	6859      	ldr	r1, [r3, #4]
 8004020:	683b      	ldr	r3, [r7, #0]
 8004022:	68db      	ldr	r3, [r3, #12]
 8004024:	461a      	mov	r2, r3
 8004026:	f000 fb1f 	bl	8004668 <TIM_TI1_ConfigInputStage>
 800402a:	687b      	ldr	r3, [r7, #4]
 800402c:	681b      	ldr	r3, [r3, #0]
 800402e:	2140      	movs	r1, #64	; 0x40
 8004030:	4618      	mov	r0, r3
 8004032:	f000 fb78 	bl	8004726 <TIM_ITRx_SetConfig>
 8004036:	e009      	b.n	800404c <HAL_TIM_ConfigClockSource+0x154>
 8004038:	687b      	ldr	r3, [r7, #4]
 800403a:	681a      	ldr	r2, [r3, #0]
 800403c:	683b      	ldr	r3, [r7, #0]
 800403e:	681b      	ldr	r3, [r3, #0]
 8004040:	4619      	mov	r1, r3
 8004042:	4610      	mov	r0, r2
 8004044:	f000 fb6f 	bl	8004726 <TIM_ITRx_SetConfig>
 8004048:	e000      	b.n	800404c <HAL_TIM_ConfigClockSource+0x154>
 800404a:	bf00      	nop
 800404c:	687b      	ldr	r3, [r7, #4]
 800404e:	2201      	movs	r2, #1
 8004050:	f883 203d 	strb.w	r2, [r3, #61]	; 0x3d
 8004054:	687b      	ldr	r3, [r7, #4]
 8004056:	2200      	movs	r2, #0
 8004058:	f883 203c 	strb.w	r2, [r3, #60]	; 0x3c
 800405c:	2300      	movs	r3, #0
 800405e:	4618      	mov	r0, r3
 8004060:	3710      	adds	r7, #16
 8004062:	46bd      	mov	sp, r7
 8004064:	bd80      	pop	{r7, pc}
 8004066:	bf00      	nop
 8004068:	fffeff88 	.word	0xfffeff88

0800406c <TIM_Base_SetConfig>:
 800406c:	b480      	push	{r7}
 800406e:	b085      	sub	sp, #20
 8004070:	af00      	add	r7, sp, #0
 8004072:	6078      	str	r0, [r7, #4]
 8004074:	6039      	str	r1, [r7, #0]
 8004076:	687b      	ldr	r3, [r7, #4]
 8004078:	681b      	ldr	r3, [r3, #0]
 800407a:	60fb      	str	r3, [r7, #12]
 800407c:	687b      	ldr	r3, [r7, #4]
 800407e:	4a40      	ldr	r2, [pc, #256]	; (8004180 <TIM_Base_SetConfig+0x114>)
 8004080:	4293      	cmp	r3, r2
 8004082:	d013      	beq.n	80040ac <TIM_Base_SetConfig+0x40>
 8004084:	687b      	ldr	r3, [r7, #4]
 8004086:	f1b3 4f80 	cmp.w	r3, #1073741824	; 0x40000000
 800408a:	d00f      	beq.n	80040ac <TIM_Base_SetConfig+0x40>
 800408c:	687b      	ldr	r3, [r7, #4]
 800408e:	4a3d      	ldr	r2, [pc, #244]	; (8004184 <TIM_Base_SetConfig+0x118>)
 8004090:	4293      	cmp	r3, r2
 8004092:	d00b      	beq.n	80040ac <TIM_Base_SetConfig+0x40>
 8004094:	687b      	ldr	r3, [r7, #4]
 8004096:	4a3c      	ldr	r2, [pc, #240]	; (8004188 <TIM_Base_SetConfig+0x11c>)
 8004098:	4293      	cmp	r3, r2
 800409a:	d007      	beq.n	80040ac <TIM_Base_SetConfig+0x40>
 800409c:	687b      	ldr	r3, [r7, #4]
 800409e:	4a3b      	ldr	r2, [pc, #236]	; (800418c <TIM_Base_SetConfig+0x120>)
 80040a0:	4293      	cmp	r3, r2
 80040a2:	d003      	beq.n	80040ac <TIM_Base_SetConfig+0x40>
 80040a4:	687b      	ldr	r3, [r7, #4]
 80040a6:	4a3a      	ldr	r2, [pc, #232]	; (8004190 <TIM_Base_SetConfig+0x124>)
 80040a8:	4293      	cmp	r3, r2
 80040aa:	d108      	bne.n	80040be <TIM_Base_SetConfig+0x52>
 80040ac:	68fb      	ldr	r3, [r7, #12]
 80040ae:	f023 0370 	bic.w	r3, r3, #112	; 0x70
 80040b2:	60fb      	str	r3, [r7, #12]
 80040b4:	683b      	ldr	r3, [r7, #0]
 80040b6:	685b      	ldr	r3, [r3, #4]
 80040b8:	68fa      	ldr	r2, [r7, #12]
 80040ba:	4313      	orrs	r3, r2
 80040bc:	60fb      	str	r3, [r7, #12]
 80040be:	687b      	ldr	r3, [r7, #4]
 80040c0:	4a2f      	ldr	r2, [pc, #188]	; (8004180 <TIM_Base_SetConfig+0x114>)
 80040c2:	4293      	cmp	r3, r2
 80040c4:	d02b      	beq.n	800411e <TIM_Base_SetConfig+0xb2>
 80040c6:	687b      	ldr	r3, [r7, #4]
 80040c8:	f1b3 4f80 	cmp.w	r3, #1073741824	; 0x40000000
 80040cc:	d027      	beq.n	800411e <TIM_Base_SetConfig+0xb2>
 80040ce:	687b      	ldr	r3, [r7, #4]
 80040d0:	4a2c      	ldr	r2, [pc, #176]	; (8004184 <TIM_Base_SetConfig+0x118>)
 80040d2:	4293      	cmp	r3, r2
 80040d4:	d023      	beq.n	800411e <TIM_Base_SetConfig+0xb2>
 80040d6:	687b      	ldr	r3, [r7, #4]
 80040d8:	4a2b      	ldr	r2, [pc, #172]	; (8004188 <TIM_Base_SetConfig+0x11c>)
 80040da:	4293      	cmp	r3, r2
 80040dc:	d01f      	beq.n	800411e <TIM_Base_SetConfig+0xb2>
 80040de:	687b      	ldr	r3, [r7, #4]
 80040e0:	4a2a      	ldr	r2, [pc, #168]	; (800418c <TIM_Base_SetConfig+0x120>)
 80040e2:	4293      	cmp	r3, r2
 80040e4:	d01b      	beq.n	800411e <TIM_Base_SetConfig+0xb2>
 80040e6:	687b      	ldr	r3, [r7, #4]
 80040e8:	4a29      	ldr	r2, [pc, #164]	; (8004190 <TIM_Base_SetConfig+0x124>)
 80040ea:	4293      	cmp	r3, r2
 80040ec:	d017      	beq.n	800411e <TIM_Base_SetConfig+0xb2>
 80040ee:	687b      	ldr	r3, [r7, #4]
 80040f0:	4a28      	ldr	r2, [pc, #160]	; (8004194 <TIM_Base_SetConfig+0x128>)
 80040f2:	4293      	cmp	r3, r2
 80040f4:	d013      	beq.n	800411e <TIM_Base_SetConfig+0xb2>
 80040f6:	687b      	ldr	r3, [r7, #4]
 80040f8:	4a27      	ldr	r2, [pc, #156]	; (8004198 <TIM_Base_SetConfig+0x12c>)
 80040fa:	4293      	cmp	r3, r2
 80040fc:	d00f      	beq.n	800411e <TIM_Base_SetConfig+0xb2>
 80040fe:	687b      	ldr	r3, [r7, #4]
 8004100:	4a26      	ldr	r2, [pc, #152]	; (800419c <TIM_Base_SetConfig+0x130>)
 8004102:	4293      	cmp	r3, r2
 8004104:	d00b      	beq.n	800411e <TIM_Base_SetConfig+0xb2>
 8004106:	687b      	ldr	r3, [r7, #4]
 8004108:	4a25      	ldr	r2, [pc, #148]	; (80041a0 <TIM_Base_SetConfig+0x134>)
 800410a:	4293      	cmp	r3, r2
 800410c:	d007      	beq.n	800411e <TIM_Base_SetConfig+0xb2>
 800410e:	687b      	ldr	r3, [r7, #4]
 8004110:	4a24      	ldr	r2, [pc, #144]	; (80041a4 <TIM_Base_SetConfig+0x138>)
 8004112:	4293      	cmp	r3, r2
 8004114:	d003      	beq.n	800411e <TIM_Base_SetConfig+0xb2>
 8004116:	687b      	ldr	r3, [r7, #4]
 8004118:	4a23      	ldr	r2, [pc, #140]	; (80041a8 <TIM_Base_SetConfig+0x13c>)
 800411a:	4293      	cmp	r3, r2
 800411c:	d108      	bne.n	8004130 <TIM_Base_SetConfig+0xc4>
 800411e:	68fb      	ldr	r3, [r7, #12]
 8004120:	f423 7340 	bic.w	r3, r3, #768	; 0x300
 8004124:	60fb      	str	r3, [r7, #12]
 8004126:	683b      	ldr	r3, [r7, #0]
 8004128:	68db      	ldr	r3, [r3, #12]
 800412a:	68fa      	ldr	r2, [r7, #12]
 800412c:	4313      	orrs	r3, r2
 800412e:	60fb      	str	r3, [r7, #12]
 8004130:	68fb      	ldr	r3, [r7, #12]
 8004132:	f023 0280 	bic.w	r2, r3, #128	; 0x80
 8004136:	683b      	ldr	r3, [r7, #0]
 8004138:	695b      	ldr	r3, [r3, #20]
 800413a:	4313      	orrs	r3, r2
 800413c:	60fb      	str	r3, [r7, #12]
 800413e:	687b      	ldr	r3, [r7, #4]
 8004140:	68fa      	ldr	r2, [r7, #12]
 8004142:	601a      	str	r2, [r3, #0]
 8004144:	683b      	ldr	r3, [r7, #0]
 8004146:	689a      	ldr	r2, [r3, #8]
 8004148:	687b      	ldr	r3, [r7, #4]
 800414a:	62da      	str	r2, [r3, #44]	; 0x2c
 800414c:	683b      	ldr	r3, [r7, #0]
 800414e:	681a      	ldr	r2, [r3, #0]
 8004150:	687b      	ldr	r3, [r7, #4]
 8004152:	629a      	str	r2, [r3, #40]	; 0x28
 8004154:	687b      	ldr	r3, [r7, #4]
 8004156:	4a0a      	ldr	r2, [pc, #40]	; (8004180 <TIM_Base_SetConfig+0x114>)
 8004158:	4293      	cmp	r3, r2
 800415a:	d003      	beq.n	8004164 <TIM_Base_SetConfig+0xf8>
 800415c:	687b      	ldr	r3, [r7, #4]
 800415e:	4a0c      	ldr	r2, [pc, #48]	; (8004190 <TIM_Base_SetConfig+0x124>)
 8004160:	4293      	cmp	r3, r2
 8004162:	d103      	bne.n	800416c <TIM_Base_SetConfig+0x100>
 8004164:	683b      	ldr	r3, [r7, #0]
 8004166:	691a      	ldr	r2, [r3, #16]
 8004168:	687b      	ldr	r3, [r7, #4]
 800416a:	631a      	str	r2, [r3, #48]	; 0x30
 800416c:	687b      	ldr	r3, [r7, #4]
 800416e:	2201      	movs	r2, #1
 8004170:	615a      	str	r2, [r3, #20]
 8004172:	bf00      	nop
 8004174:	3714      	adds	r7, #20
 8004176:	46bd      	mov	sp, r7
 8004178:	f85d 7b04 	ldr.w	r7, [sp], #4
 800417c:	4770      	bx	lr
 800417e:	bf00      	nop
 8004180:	40010000 	.word	0x40010000
 8004184:	40000400 	.word	0x40000400
 8004188:	40000800 	.word	0x40000800
 800418c:	40000c00 	.word	0x40000c00
 8004190:	40010400 	.word	0x40010400
 8004194:	40014000 	.word	0x40014000
 8004198:	40014400 	.word	0x40014400
 800419c:	40014800 	.word	0x40014800
 80041a0:	40001800 	.word	0x40001800
 80041a4:	40001c00 	.word	0x40001c00
 80041a8:	40002000 	.word	0x40002000

080041ac <TIM_OC1_SetConfig>:
 80041ac:	b480      	push	{r7}
 80041ae:	b087      	sub	sp, #28
 80041b0:	af00      	add	r7, sp, #0
 80041b2:	6078      	str	r0, [r7, #4]
 80041b4:	6039      	str	r1, [r7, #0]
 80041b6:	687b      	ldr	r3, [r7, #4]
 80041b8:	6a1b      	ldr	r3, [r3, #32]
 80041ba:	f023 0201 	bic.w	r2, r3, #1
 80041be:	687b      	ldr	r3, [r7, #4]
 80041c0:	621a      	str	r2, [r3, #32]
 80041c2:	687b      	ldr	r3, [r7, #4]
 80041c4:	6a1b      	ldr	r3, [r3, #32]
 80041c6:	617b      	str	r3, [r7, #20]
 80041c8:	687b      	ldr	r3, [r7, #4]
 80041ca:	685b      	ldr	r3, [r3, #4]
 80041cc:	613b      	str	r3, [r7, #16]
 80041ce:	687b      	ldr	r3, [r7, #4]
 80041d0:	699b      	ldr	r3, [r3, #24]
 80041d2:	60fb      	str	r3, [r7, #12]
 80041d4:	68fa      	ldr	r2, [r7, #12]
 80041d6:	4b2b      	ldr	r3, [pc, #172]	; (8004284 <TIM_OC1_SetConfig+0xd8>)
 80041d8:	4013      	ands	r3, r2
 80041da:	60fb      	str	r3, [r7, #12]
 80041dc:	68fb      	ldr	r3, [r7, #12]
 80041de:	f023 0303 	bic.w	r3, r3, #3
 80041e2:	60fb      	str	r3, [r7, #12]
 80041e4:	683b      	ldr	r3, [r7, #0]
 80041e6:	681b      	ldr	r3, [r3, #0]
 80041e8:	68fa      	ldr	r2, [r7, #12]
 80041ea:	4313      	orrs	r3, r2
 80041ec:	60fb      	str	r3, [r7, #12]
 80041ee:	697b      	ldr	r3, [r7, #20]
 80041f0:	f023 0302 	bic.w	r3, r3, #2
 80041f4:	617b      	str	r3, [r7, #20]
 80041f6:	683b      	ldr	r3, [r7, #0]
 80041f8:	689b      	ldr	r3, [r3, #8]
 80041fa:	697a      	ldr	r2, [r7, #20]
 80041fc:	4313      	orrs	r3, r2
 80041fe:	617b      	str	r3, [r7, #20]
 8004200:	687b      	ldr	r3, [r7, #4]
 8004202:	4a21      	ldr	r2, [pc, #132]	; (8004288 <TIM_OC1_SetConfig+0xdc>)
 8004204:	4293      	cmp	r3, r2
 8004206:	d003      	beq.n	8004210 <TIM_OC1_SetConfig+0x64>
 8004208:	687b      	ldr	r3, [r7, #4]
 800420a:	4a20      	ldr	r2, [pc, #128]	; (800428c <TIM_OC1_SetConfig+0xe0>)
 800420c:	4293      	cmp	r3, r2
 800420e:	d10c      	bne.n	800422a <TIM_OC1_SetConfig+0x7e>
 8004210:	697b      	ldr	r3, [r7, #20]
 8004212:	f023 0308 	bic.w	r3, r3, #8
 8004216:	617b      	str	r3, [r7, #20]
 8004218:	683b      	ldr	r3, [r7, #0]
 800421a:	68db      	ldr	r3, [r3, #12]
 800421c:	697a      	ldr	r2, [r7, #20]
 800421e:	4313      	orrs	r3, r2
 8004220:	617b      	str	r3, [r7, #20]
 8004222:	697b      	ldr	r3, [r7, #20]
 8004224:	f023 0304 	bic.w	r3, r3, #4
 8004228:	617b      	str	r3, [r7, #20]
 800422a:	687b      	ldr	r3, [r7, #4]
 800422c:	4a16      	ldr	r2, [pc, #88]	; (8004288 <TIM_OC1_SetConfig+0xdc>)
 800422e:	4293      	cmp	r3, r2
 8004230:	d003      	beq.n	800423a <TIM_OC1_SetConfig+0x8e>
 8004232:	687b      	ldr	r3, [r7, #4]
 8004234:	4a15      	ldr	r2, [pc, #84]	; (800428c <TIM_OC1_SetConfig+0xe0>)
 8004236:	4293      	cmp	r3, r2
 8004238:	d111      	bne.n	800425e <TIM_OC1_SetConfig+0xb2>
 800423a:	693b      	ldr	r3, [r7, #16]
 800423c:	f423 7380 	bic.w	r3, r3, #256	; 0x100
 8004240:	613b      	str	r3, [r7, #16]
 8004242:	693b      	ldr	r3, [r7, #16]
 8004244:	f423 7300 	bic.w	r3, r3, #512	; 0x200
 8004248:	613b      	str	r3, [r7, #16]
 800424a:	683b      	ldr	r3, [r7, #0]
 800424c:	695b      	ldr	r3, [r3, #20]
 800424e:	693a      	ldr	r2, [r7, #16]
 8004250:	4313      	orrs	r3, r2
 8004252:	613b      	str	r3, [r7, #16]
 8004254:	683b      	ldr	r3, [r7, #0]
 8004256:	699b      	ldr	r3, [r3, #24]
 8004258:	693a      	ldr	r2, [r7, #16]
 800425a:	4313      	orrs	r3, r2
 800425c:	613b      	str	r3, [r7, #16]
 800425e:	687b      	ldr	r3, [r7, #4]
 8004260:	693a      	ldr	r2, [r7, #16]
 8004262:	605a      	str	r2, [r3, #4]
 8004264:	687b      	ldr	r3, [r7, #4]
 8004266:	68fa      	ldr	r2, [r7, #12]
 8004268:	619a      	str	r2, [r3, #24]
 800426a:	683b      	ldr	r3, [r7, #0]
 800426c:	685a      	ldr	r2, [r3, #4]
 800426e:	687b      	ldr	r3, [r7, #4]
 8004270:	635a      	str	r2, [r3, #52]	; 0x34
 8004272:	687b      	ldr	r3, [r7, #4]
 8004274:	697a      	ldr	r2, [r7, #20]
 8004276:	621a      	str	r2, [r3, #32]
 8004278:	bf00      	nop
 800427a:	371c      	adds	r7, #28
 800427c:	46bd      	mov	sp, r7
 800427e:	f85d 7b04 	ldr.w	r7, [sp], #4
 8004282:	4770      	bx	lr
 8004284:	fffeff8f 	.word	0xfffeff8f
 8004288:	40010000 	.word	0x40010000
 800428c:	40010400 	.word	0x40010400

08004290 <TIM_OC2_SetConfig>:
 8004290:	b480      	push	{r7}
 8004292:	b087      	sub	sp, #28
 8004294:	af00      	add	r7, sp, #0
 8004296:	6078      	str	r0, [r7, #4]
 8004298:	6039      	str	r1, [r7, #0]
 800429a:	687b      	ldr	r3, [r7, #4]
 800429c:	6a1b      	ldr	r3, [r3, #32]
 800429e:	f023 0210 	bic.w	r2, r3, #16
 80042a2:	687b      	ldr	r3, [r7, #4]
 80042a4:	621a      	str	r2, [r3, #32]
 80042a6:	687b      	ldr	r3, [r7, #4]
 80042a8:	6a1b      	ldr	r3, [r3, #32]
 80042aa:	617b      	str	r3, [r7, #20]
 80042ac:	687b      	ldr	r3, [r7, #4]
 80042ae:	685b      	ldr	r3, [r3, #4]
 80042b0:	613b      	str	r3, [r7, #16]
 80042b2:	687b      	ldr	r3, [r7, #4]
 80042b4:	699b      	ldr	r3, [r3, #24]
 80042b6:	60fb      	str	r3, [r7, #12]
 80042b8:	68fa      	ldr	r2, [r7, #12]
 80042ba:	4b2e      	ldr	r3, [pc, #184]	; (8004374 <TIM_OC2_SetConfig+0xe4>)
 80042bc:	4013      	ands	r3, r2
 80042be:	60fb      	str	r3, [r7, #12]
 80042c0:	68fb      	ldr	r3, [r7, #12]
 80042c2:	f423 7340 	bic.w	r3, r3, #768	; 0x300
 80042c6:	60fb      	str	r3, [r7, #12]
 80042c8:	683b      	ldr	r3, [r7, #0]
 80042ca:	681b      	ldr	r3, [r3, #0]
 80042cc:	021b      	lsls	r3, r3, #8
 80042ce:	68fa      	ldr	r2, [r7, #12]
 80042d0:	4313      	orrs	r3, r2
 80042d2:	60fb      	str	r3, [r7, #12]
 80042d4:	697b      	ldr	r3, [r7, #20]
 80042d6:	f023 0320 	bic.w	r3, r3, #32
 80042da:	617b      	str	r3, [r7, #20]
 80042dc:	683b      	ldr	r3, [r7, #0]
 80042de:	689b      	ldr	r3, [r3, #8]
 80042e0:	011b      	lsls	r3, r3, #4
 80042e2:	697a      	ldr	r2, [r7, #20]
 80042e4:	4313      	orrs	r3, r2
 80042e6:	617b      	str	r3, [r7, #20]
 80042e8:	687b      	ldr	r3, [r7, #4]
 80042ea:	4a23      	ldr	r2, [pc, #140]	; (8004378 <TIM_OC2_SetConfig+0xe8>)
 80042ec:	4293      	cmp	r3, r2
 80042ee:	d003      	beq.n	80042f8 <TIM_OC2_SetConfig+0x68>
 80042f0:	687b      	ldr	r3, [r7, #4]
 80042f2:	4a22      	ldr	r2, [pc, #136]	; (800437c <TIM_OC2_SetConfig+0xec>)
 80042f4:	4293      	cmp	r3, r2
 80042f6:	d10d      	bne.n	8004314 <TIM_OC2_SetConfig+0x84>
 80042f8:	697b      	ldr	r3, [r7, #20]
 80042fa:	f023 0380 	bic.w	r3, r3, #128	; 0x80
 80042fe:	617b      	str	r3, [r7, #20]
 8004300:	683b      	ldr	r3, [r7, #0]
 8004302:	68db      	ldr	r3, [r3, #12]
 8004304:	011b      	lsls	r3, r3, #4
 8004306:	697a      	ldr	r2, [r7, #20]
 8004308:	4313      	orrs	r3, r2
 800430a:	617b      	str	r3, [r7, #20]
 800430c:	697b      	ldr	r3, [r7, #20]
 800430e:	f023 0340 	bic.w	r3, r3, #64	; 0x40
 8004312:	617b      	str	r3, [r7, #20]
 8004314:	687b      	ldr	r3, [r7, #4]
 8004316:	4a18      	ldr	r2, [pc, #96]	; (8004378 <TIM_OC2_SetConfig+0xe8>)
 8004318:	4293      	cmp	r3, r2
 800431a:	d003      	beq.n	8004324 <TIM_OC2_SetConfig+0x94>
 800431c:	687b      	ldr	r3, [r7, #4]
 800431e:	4a17      	ldr	r2, [pc, #92]	; (800437c <TIM_OC2_SetConfig+0xec>)
 8004320:	4293      	cmp	r3, r2
 8004322:	d113      	bne.n	800434c <TIM_OC2_SetConfig+0xbc>
 8004324:	693b      	ldr	r3, [r7, #16]
 8004326:	f423 6380 	bic.w	r3, r3, #1024	; 0x400
 800432a:	613b      	str	r3, [r7, #16]
 800432c:	693b      	ldr	r3, [r7, #16]
 800432e:	f423 6300 	bic.w	r3, r3, #2048	; 0x800
 8004332:	613b      	str	r3, [r7, #16]
 8004334:	683b      	ldr	r3, [r7, #0]
 8004336:	695b      	ldr	r3, [r3, #20]
 8004338:	009b      	lsls	r3, r3, #2
 800433a:	693a      	ldr	r2, [r7, #16]
 800433c:	4313      	orrs	r3, r2
 800433e:	613b      	str	r3, [r7, #16]
 8004340:	683b      	ldr	r3, [r7, #0]
 8004342:	699b      	ldr	r3, [r3, #24]
 8004344:	009b      	lsls	r3, r3, #2
 8004346:	693a      	ldr	r2, [r7, #16]
 8004348:	4313      	orrs	r3, r2
 800434a:	613b      	str	r3, [r7, #16]
 800434c:	687b      	ldr	r3, [r7, #4]
 800434e:	693a      	ldr	r2, [r7, #16]
 8004350:	605a      	str	r2, [r3, #4]
 8004352:	687b      	ldr	r3, [r7, #4]
 8004354:	68fa      	ldr	r2, [r7, #12]
 8004356:	619a      	str	r2, [r3, #24]
 8004358:	683b      	ldr	r3, [r7, #0]
 800435a:	685a      	ldr	r2, [r3, #4]
 800435c:	687b      	ldr	r3, [r7, #4]
 800435e:	639a      	str	r2, [r3, #56]	; 0x38
 8004360:	687b      	ldr	r3, [r7, #4]
 8004362:	697a      	ldr	r2, [r7, #20]
 8004364:	621a      	str	r2, [r3, #32]
 8004366:	bf00      	nop
 8004368:	371c      	adds	r7, #28
 800436a:	46bd      	mov	sp, r7
 800436c:	f85d 7b04 	ldr.w	r7, [sp], #4
 8004370:	4770      	bx	lr
 8004372:	bf00      	nop
 8004374:	feff8fff 	.word	0xfeff8fff
 8004378:	40010000 	.word	0x40010000
 800437c:	40010400 	.word	0x40010400

08004380 <TIM_OC3_SetConfig>:
 8004380:	b480      	push	{r7}
 8004382:	b087      	sub	sp, #28
 8004384:	af00      	add	r7, sp, #0
 8004386:	6078      	str	r0, [r7, #4]
 8004388:	6039      	str	r1, [r7, #0]
 800438a:	687b      	ldr	r3, [r7, #4]
 800438c:	6a1b      	ldr	r3, [r3, #32]
 800438e:	f423 7280 	bic.w	r2, r3, #256	; 0x100
 8004392:	687b      	ldr	r3, [r7, #4]
 8004394:	621a      	str	r2, [r3, #32]
 8004396:	687b      	ldr	r3, [r7, #4]
 8004398:	6a1b      	ldr	r3, [r3, #32]
 800439a:	617b      	str	r3, [r7, #20]
 800439c:	687b      	ldr	r3, [r7, #4]
 800439e:	685b      	ldr	r3, [r3, #4]
 80043a0:	613b      	str	r3, [r7, #16]
 80043a2:	687b      	ldr	r3, [r7, #4]
 80043a4:	69db      	ldr	r3, [r3, #28]
 80043a6:	60fb      	str	r3, [r7, #12]
 80043a8:	68fa      	ldr	r2, [r7, #12]
 80043aa:	4b2d      	ldr	r3, [pc, #180]	; (8004460 <TIM_OC3_SetConfig+0xe0>)
 80043ac:	4013      	ands	r3, r2
 80043ae:	60fb      	str	r3, [r7, #12]
 80043b0:	68fb      	ldr	r3, [r7, #12]
 80043b2:	f023 0303 	bic.w	r3, r3, #3
 80043b6:	60fb      	str	r3, [r7, #12]
 80043b8:	683b      	ldr	r3, [r7, #0]
 80043ba:	681b      	ldr	r3, [r3, #0]
 80043bc:	68fa      	ldr	r2, [r7, #12]
 80043be:	4313      	orrs	r3, r2
 80043c0:	60fb      	str	r3, [r7, #12]
 80043c2:	697b      	ldr	r3, [r7, #20]
 80043c4:	f423 7300 	bic.w	r3, r3, #512	; 0x200
 80043c8:	617b      	str	r3, [r7, #20]
 80043ca:	683b      	ldr	r3, [r7, #0]
 80043cc:	689b      	ldr	r3, [r3, #8]
 80043ce:	021b      	lsls	r3, r3, #8
 80043d0:	697a      	ldr	r2, [r7, #20]
 80043d2:	4313      	orrs	r3, r2
 80043d4:	617b      	str	r3, [r7, #20]
 80043d6:	687b      	ldr	r3, [r7, #4]
 80043d8:	4a22      	ldr	r2, [pc, #136]	; (8004464 <TIM_OC3_SetConfig+0xe4>)
 80043da:	4293      	cmp	r3, r2
 80043dc:	d003      	beq.n	80043e6 <TIM_OC3_SetConfig+0x66>
 80043de:	687b      	ldr	r3, [r7, #4]
 80043e0:	4a21      	ldr	r2, [pc, #132]	; (8004468 <TIM_OC3_SetConfig+0xe8>)
 80043e2:	4293      	cmp	r3, r2
 80043e4:	d10d      	bne.n	8004402 <TIM_OC3_SetConfig+0x82>
 80043e6:	697b      	ldr	r3, [r7, #20]
 80043e8:	f423 6300 	bic.w	r3, r3, #2048	; 0x800
 80043ec:	617b      	str	r3, [r7, #20]
 80043ee:	683b      	ldr	r3, [r7, #0]
 80043f0:	68db      	ldr	r3, [r3, #12]
 80043f2:	021b      	lsls	r3, r3, #8
 80043f4:	697a      	ldr	r2, [r7, #20]
 80043f6:	4313      	orrs	r3, r2
 80043f8:	617b      	str	r3, [r7, #20]
 80043fa:	697b      	ldr	r3, [r7, #20]
 80043fc:	f423 6380 	bic.w	r3, r3, #1024	; 0x400
 8004400:	617b      	str	r3, [r7, #20]
 8004402:	687b      	ldr	r3, [r7, #4]
 8004404:	4a17      	ldr	r2, [pc, #92]	; (8004464 <TIM_OC3_SetConfig+0xe4>)
 8004406:	4293      	cmp	r3, r2
 8004408:	d003      	beq.n	8004412 <TIM_OC3_SetConfig+0x92>
 800440a:	687b      	ldr	r3, [r7, #4]
 800440c:	4a16      	ldr	r2, [pc, #88]	; (8004468 <TIM_OC3_SetConfig+0xe8>)
 800440e:	4293      	cmp	r3, r2
 8004410:	d113      	bne.n	800443a <TIM_OC3_SetConfig+0xba>
 8004412:	693b      	ldr	r3, [r7, #16]
 8004414:	f423 5380 	bic.w	r3, r3, #4096	; 0x1000
 8004418:	613b      	str	r3, [r7, #16]
 800441a:	693b      	ldr	r3, [r7, #16]
 800441c:	f423 5300 	bic.w	r3, r3, #8192	; 0x2000
 8004420:	613b      	str	r3, [r7, #16]
 8004422:	683b      	ldr	r3, [r7, #0]
 8004424:	695b      	ldr	r3, [r3, #20]
 8004426:	011b      	lsls	r3, r3, #4
 8004428:	693a      	ldr	r2, [r7, #16]
 800442a:	4313      	orrs	r3, r2
 800442c:	613b      	str	r3, [r7, #16]
 800442e:	683b      	ldr	r3, [r7, #0]
 8004430:	699b      	ldr	r3, [r3, #24]
 8004432:	011b      	lsls	r3, r3, #4
 8004434:	693a      	ldr	r2, [r7, #16]
 8004436:	4313      	orrs	r3, r2
 8004438:	613b      	str	r3, [r7, #16]
 800443a:	687b      	ldr	r3, [r7, #4]
 800443c:	693a      	ldr	r2, [r7, #16]
 800443e:	605a      	str	r2, [r3, #4]
 8004440:	687b      	ldr	r3, [r7, #4]
 8004442:	68fa      	ldr	r2, [r7, #12]
 8004444:	61da      	str	r2, [r3, #28]
 8004446:	683b      	ldr	r3, [r7, #0]
 8004448:	685a      	ldr	r2, [r3, #4]
 800444a:	687b      	ldr	r3, [r7, #4]
 800444c:	63da      	str	r2, [r3, #60]	; 0x3c
 800444e:	687b      	ldr	r3, [r7, #4]
 8004450:	697a      	ldr	r2, [r7, #20]
 8004452:	621a      	str	r2, [r3, #32]
 8004454:	bf00      	nop
 8004456:	371c      	adds	r7, #28
 8004458:	46bd      	mov	sp, r7
 800445a:	f85d 7b04 	ldr.w	r7, [sp], #4
 800445e:	4770      	bx	lr
 8004460:	fffeff8f 	.word	0xfffeff8f
 8004464:	40010000 	.word	0x40010000
 8004468:	40010400 	.word	0x40010400

0800446c <TIM_OC4_SetConfig>:
 800446c:	b480      	push	{r7}
 800446e:	b087      	sub	sp, #28
 8004470:	af00      	add	r7, sp, #0
 8004472:	6078      	str	r0, [r7, #4]
 8004474:	6039      	str	r1, [r7, #0]
 8004476:	687b      	ldr	r3, [r7, #4]
 8004478:	6a1b      	ldr	r3, [r3, #32]
 800447a:	f423 5280 	bic.w	r2, r3, #4096	; 0x1000
 800447e:	687b      	ldr	r3, [r7, #4]
 8004480:	621a      	str	r2, [r3, #32]
 8004482:	687b      	ldr	r3, [r7, #4]
 8004484:	6a1b      	ldr	r3, [r3, #32]
 8004486:	613b      	str	r3, [r7, #16]
 8004488:	687b      	ldr	r3, [r7, #4]
 800448a:	685b      	ldr	r3, [r3, #4]
 800448c:	617b      	str	r3, [r7, #20]
 800448e:	687b      	ldr	r3, [r7, #4]
 8004490:	69db      	ldr	r3, [r3, #28]
 8004492:	60fb      	str	r3, [r7, #12]
 8004494:	68fa      	ldr	r2, [r7, #12]
 8004496:	4b1e      	ldr	r3, [pc, #120]	; (8004510 <TIM_OC4_SetConfig+0xa4>)
 8004498:	4013      	ands	r3, r2
 800449a:	60fb      	str	r3, [r7, #12]
 800449c:	68fb      	ldr	r3, [r7, #12]
 800449e:	f423 7340 	bic.w	r3, r3, #768	; 0x300
 80044a2:	60fb      	str	r3, [r7, #12]
 80044a4:	683b      	ldr	r3, [r7, #0]
 80044a6:	681b      	ldr	r3, [r3, #0]
 80044a8:	021b      	lsls	r3, r3, #8
 80044aa:	68fa      	ldr	r2, [r7, #12]
 80044ac:	4313      	orrs	r3, r2
 80044ae:	60fb      	str	r3, [r7, #12]
 80044b0:	693b      	ldr	r3, [r7, #16]
 80044b2:	f423 5300 	bic.w	r3, r3, #8192	; 0x2000
 80044b6:	613b      	str	r3, [r7, #16]
 80044b8:	683b      	ldr	r3, [r7, #0]
 80044ba:	689b      	ldr	r3, [r3, #8]
 80044bc:	031b      	lsls	r3, r3, #12
 80044be:	693a      	ldr	r2, [r7, #16]
 80044c0:	4313      	orrs	r3, r2
 80044c2:	613b      	str	r3, [r7, #16]
 80044c4:	687b      	ldr	r3, [r7, #4]
 80044c6:	4a13      	ldr	r2, [pc, #76]	; (8004514 <TIM_OC4_SetConfig+0xa8>)
 80044c8:	4293      	cmp	r3, r2
 80044ca:	d003      	beq.n	80044d4 <TIM_OC4_SetConfig+0x68>
 80044cc:	687b      	ldr	r3, [r7, #4]
 80044ce:	4a12      	ldr	r2, [pc, #72]	; (8004518 <TIM_OC4_SetConfig+0xac>)
 80044d0:	4293      	cmp	r3, r2
 80044d2:	d109      	bne.n	80044e8 <TIM_OC4_SetConfig+0x7c>
 80044d4:	697b      	ldr	r3, [r7, #20]
 80044d6:	f423 4380 	bic.w	r3, r3, #16384	; 0x4000
 80044da:	617b      	str	r3, [r7, #20]
 80044dc:	683b      	ldr	r3, [r7, #0]
 80044de:	695b      	ldr	r3, [r3, #20]
 80044e0:	019b      	lsls	r3, r3, #6
 80044e2:	697a      	ldr	r2, [r7, #20]
 80044e4:	4313      	orrs	r3, r2
 80044e6:	617b      	str	r3, [r7, #20]
 80044e8:	687b      	ldr	r3, [r7, #4]
 80044ea:	697a      	ldr	r2, [r7, #20]
 80044ec:	605a      	str	r2, [r3, #4]
 80044ee:	687b      	ldr	r3, [r7, #4]
 80044f0:	68fa      	ldr	r2, [r7, #12]
 80044f2:	61da      	str	r2, [r3, #28]
 80044f4:	683b      	ldr	r3, [r7, #0]
 80044f6:	685a      	ldr	r2, [r3, #4]
 80044f8:	687b      	ldr	r3, [r7, #4]
 80044fa:	641a      	str	r2, [r3, #64]	; 0x40
 80044fc:	687b      	ldr	r3, [r7, #4]
 80044fe:	693a      	ldr	r2, [r7, #16]
 8004500:	621a      	str	r2, [r3, #32]
 8004502:	bf00      	nop
 8004504:	371c      	adds	r7, #28
 8004506:	46bd      	mov	sp, r7
 8004508:	f85d 7b04 	ldr.w	r7, [sp], #4
 800450c:	4770      	bx	lr
 800450e:	bf00      	nop
 8004510:	feff8fff 	.word	0xfeff8fff
 8004514:	40010000 	.word	0x40010000
 8004518:	40010400 	.word	0x40010400

0800451c <TIM_OC5_SetConfig>:
 800451c:	b480      	push	{r7}
 800451e:	b087      	sub	sp, #28
 8004520:	af00      	add	r7, sp, #0
 8004522:	6078      	str	r0, [r7, #4]
 8004524:	6039      	str	r1, [r7, #0]
 8004526:	687b      	ldr	r3, [r7, #4]
 8004528:	6a1b      	ldr	r3, [r3, #32]
 800452a:	f423 3280 	bic.w	r2, r3, #65536	; 0x10000
 800452e:	687b      	ldr	r3, [r7, #4]
 8004530:	621a      	str	r2, [r3, #32]
 8004532:	687b      	ldr	r3, [r7, #4]
 8004534:	6a1b      	ldr	r3, [r3, #32]
 8004536:	613b      	str	r3, [r7, #16]
 8004538:	687b      	ldr	r3, [r7, #4]
 800453a:	685b      	ldr	r3, [r3, #4]
 800453c:	617b      	str	r3, [r7, #20]
 800453e:	687b      	ldr	r3, [r7, #4]
 8004540:	6d5b      	ldr	r3, [r3, #84]	; 0x54
 8004542:	60fb      	str	r3, [r7, #12]
 8004544:	68fa      	ldr	r2, [r7, #12]
 8004546:	4b1b      	ldr	r3, [pc, #108]	; (80045b4 <TIM_OC5_SetConfig+0x98>)
 8004548:	4013      	ands	r3, r2
 800454a:	60fb      	str	r3, [r7, #12]
 800454c:	683b      	ldr	r3, [r7, #0]
 800454e:	681b      	ldr	r3, [r3, #0]
 8004550:	68fa      	ldr	r2, [r7, #12]
 8004552:	4313      	orrs	r3, r2
 8004554:	60fb      	str	r3, [r7, #12]
 8004556:	693b      	ldr	r3, [r7, #16]
 8004558:	f423 3300 	bic.w	r3, r3, #131072	; 0x20000
 800455c:	613b      	str	r3, [r7, #16]
 800455e:	683b      	ldr	r3, [r7, #0]
 8004560:	689b      	ldr	r3, [r3, #8]
 8004562:	041b      	lsls	r3, r3, #16
 8004564:	693a      	ldr	r2, [r7, #16]
 8004566:	4313      	orrs	r3, r2
 8004568:	613b      	str	r3, [r7, #16]
 800456a:	687b      	ldr	r3, [r7, #4]
 800456c:	4a12      	ldr	r2, [pc, #72]	; (80045b8 <TIM_OC5_SetConfig+0x9c>)
 800456e:	4293      	cmp	r3, r2
 8004570:	d003      	beq.n	800457a <TIM_OC5_SetConfig+0x5e>
 8004572:	687b      	ldr	r3, [r7, #4]
 8004574:	4a11      	ldr	r2, [pc, #68]	; (80045bc <TIM_OC5_SetConfig+0xa0>)
 8004576:	4293      	cmp	r3, r2
 8004578:	d109      	bne.n	800458e <TIM_OC5_SetConfig+0x72>
 800457a:	697b      	ldr	r3, [r7, #20]
 800457c:	f423 3380 	bic.w	r3, r3, #65536	; 0x10000
 8004580:	617b      	str	r3, [r7, #20]
 8004582:	683b      	ldr	r3, [r7, #0]
 8004584:	695b      	ldr	r3, [r3, #20]
 8004586:	021b      	lsls	r3, r3, #8
 8004588:	697a      	ldr	r2, [r7, #20]
 800458a:	4313      	orrs	r3, r2
 800458c:	617b      	str	r3, [r7, #20]
 800458e:	687b      	ldr	r3, [r7, #4]
 8004590:	697a      	ldr	r2, [r7, #20]
 8004592:	605a      	str	r2, [r3, #4]
 8004594:	687b      	ldr	r3, [r7, #4]
 8004596:	68fa      	ldr	r2, [r7, #12]
 8004598:	655a      	str	r2, [r3, #84]	; 0x54
 800459a:	683b      	ldr	r3, [r7, #0]
 800459c:	685a      	ldr	r2, [r3, #4]
 800459e:	687b      	ldr	r3, [r7, #4]
 80045a0:	659a      	str	r2, [r3, #88]	; 0x58
 80045a2:	687b      	ldr	r3, [r7, #4]
 80045a4:	693a      	ldr	r2, [r7, #16]
 80045a6:	621a      	str	r2, [r3, #32]
 80045a8:	bf00      	nop
 80045aa:	371c      	adds	r7, #28
 80045ac:	46bd      	mov	sp, r7
 80045ae:	f85d 7b04 	ldr.w	r7, [sp], #4
 80045b2:	4770      	bx	lr
 80045b4:	fffeff8f 	.word	0xfffeff8f
 80045b8:	40010000 	.word	0x40010000
 80045bc:	40010400 	.word	0x40010400

080045c0 <TIM_OC6_SetConfig>:
 80045c0:	b480      	push	{r7}
 80045c2:	b087      	sub	sp, #28
 80045c4:	af00      	add	r7, sp, #0
 80045c6:	6078      	str	r0, [r7, #4]
 80045c8:	6039      	str	r1, [r7, #0]
 80045ca:	687b      	ldr	r3, [r7, #4]
 80045cc:	6a1b      	ldr	r3, [r3, #32]
 80045ce:	f423 1280 	bic.w	r2, r3, #1048576	; 0x100000
 80045d2:	687b      	ldr	r3, [r7, #4]
 80045d4:	621a      	str	r2, [r3, #32]
 80045d6:	687b      	ldr	r3, [r7, #4]
 80045d8:	6a1b      	ldr	r3, [r3, #32]
 80045da:	613b      	str	r3, [r7, #16]
 80045dc:	687b      	ldr	r3, [r7, #4]
 80045de:	685b      	ldr	r3, [r3, #4]
 80045e0:	617b      	str	r3, [r7, #20]
 80045e2:	687b      	ldr	r3, [r7, #4]
 80045e4:	6d5b      	ldr	r3, [r3, #84]	; 0x54
 80045e6:	60fb      	str	r3, [r7, #12]
 80045e8:	68fa      	ldr	r2, [r7, #12]
 80045ea:	4b1c      	ldr	r3, [pc, #112]	; (800465c <TIM_OC6_SetConfig+0x9c>)
 80045ec:	4013      	ands	r3, r2
 80045ee:	60fb      	str	r3, [r7, #12]
 80045f0:	683b      	ldr	r3, [r7, #0]
 80045f2:	681b      	ldr	r3, [r3, #0]
 80045f4:	021b      	lsls	r3, r3, #8
 80045f6:	68fa      	ldr	r2, [r7, #12]
 80045f8:	4313      	orrs	r3, r2
 80045fa:	60fb      	str	r3, [r7, #12]
 80045fc:	693b      	ldr	r3, [r7, #16]
 80045fe:	f423 1300 	bic.w	r3, r3, #2097152	; 0x200000
 8004602:	613b      	str	r3, [r7, #16]
 8004604:	683b      	ldr	r3, [r7, #0]
 8004606:	689b      	ldr	r3, [r3, #8]
 8004608:	051b      	lsls	r3, r3, #20
 800460a:	693a      	ldr	r2, [r7, #16]
 800460c:	4313      	orrs	r3, r2
 800460e:	613b      	str	r3, [r7, #16]
 8004610:	687b      	ldr	r3, [r7, #4]
 8004612:	4a13      	ldr	r2, [pc, #76]	; (8004660 <TIM_OC6_SetConfig+0xa0>)
 8004614:	4293      	cmp	r3, r2
 8004616:	d003      	beq.n	8004620 <TIM_OC6_SetConfig+0x60>
 8004618:	687b      	ldr	r3, [r7, #4]
 800461a:	4a12      	ldr	r2, [pc, #72]	; (8004664 <TIM_OC6_SetConfig+0xa4>)
 800461c:	4293      	cmp	r3, r2
 800461e:	d109      	bne.n	8004634 <TIM_OC6_SetConfig+0x74>
 8004620:	697b      	ldr	r3, [r7, #20]
 8004622:	f423 2380 	bic.w	r3, r3, #262144	; 0x40000
 8004626:	617b      	str	r3, [r7, #20]
 8004628:	683b      	ldr	r3, [r7, #0]
 800462a:	695b      	ldr	r3, [r3, #20]
 800462c:	029b      	lsls	r3, r3, #10
 800462e:	697a      	ldr	r2, [r7, #20]
 8004630:	4313      	orrs	r3, r2
 8004632:	617b      	str	r3, [r7, #20]
 8004634:	687b      	ldr	r3, [r7, #4]
 8004636:	697a      	ldr	r2, [r7, #20]
 8004638:	605a      	str	r2, [r3, #4]
 800463a:	687b      	ldr	r3, [r7, #4]
 800463c:	68fa      	ldr	r2, [r7, #12]
 800463e:	655a      	str	r2, [r3, #84]	; 0x54
 8004640:	683b      	ldr	r3, [r7, #0]
 8004642:	685a      	ldr	r2, [r3, #4]
 8004644:	687b      	ldr	r3, [r7, #4]
 8004646:	65da      	str	r2, [r3, #92]	; 0x5c
 8004648:	687b      	ldr	r3, [r7, #4]
 800464a:	693a      	ldr	r2, [r7, #16]
 800464c:	621a      	str	r2, [r3, #32]
 800464e:	bf00      	nop
 8004650:	371c      	adds	r7, #28
 8004652:	46bd      	mov	sp, r7
 8004654:	f85d 7b04 	ldr.w	r7, [sp], #4
 8004658:	4770      	bx	lr
 800465a:	bf00      	nop
 800465c:	feff8fff 	.word	0xfeff8fff
 8004660:	40010000 	.word	0x40010000
 8004664:	40010400 	.word	0x40010400

08004668 <TIM_TI1_ConfigInputStage>:
 8004668:	b480      	push	{r7}
 800466a:	b087      	sub	sp, #28
 800466c:	af00      	add	r7, sp, #0
 800466e:	60f8      	str	r0, [r7, #12]
 8004670:	60b9      	str	r1, [r7, #8]
 8004672:	607a      	str	r2, [r7, #4]
 8004674:	68fb      	ldr	r3, [r7, #12]
 8004676:	6a1b      	ldr	r3, [r3, #32]
 8004678:	617b      	str	r3, [r7, #20]
 800467a:	68fb      	ldr	r3, [r7, #12]
 800467c:	6a1b      	ldr	r3, [r3, #32]
 800467e:	f023 0201 	bic.w	r2, r3, #1
 8004682:	68fb      	ldr	r3, [r7, #12]
 8004684:	621a      	str	r2, [r3, #32]
 8004686:	68fb      	ldr	r3, [r7, #12]
 8004688:	699b      	ldr	r3, [r3, #24]
 800468a:	613b      	str	r3, [r7, #16]
 800468c:	693b      	ldr	r3, [r7, #16]
 800468e:	f023 03f0 	bic.w	r3, r3, #240	; 0xf0
 8004692:	613b      	str	r3, [r7, #16]
 8004694:	687b      	ldr	r3, [r7, #4]
 8004696:	011b      	lsls	r3, r3, #4
 8004698:	693a      	ldr	r2, [r7, #16]
 800469a:	4313      	orrs	r3, r2
 800469c:	613b      	str	r3, [r7, #16]
 800469e:	697b      	ldr	r3, [r7, #20]
 80046a0:	f023 030a 	bic.w	r3, r3, #10
 80046a4:	617b      	str	r3, [r7, #20]
 80046a6:	697a      	ldr	r2, [r7, #20]
 80046a8:	68bb      	ldr	r3, [r7, #8]
 80046aa:	4313      	orrs	r3, r2
 80046ac:	617b      	str	r3, [r7, #20]
 80046ae:	68fb      	ldr	r3, [r7, #12]
 80046b0:	693a      	ldr	r2, [r7, #16]
 80046b2:	619a      	str	r2, [r3, #24]
 80046b4:	68fb      	ldr	r3, [r7, #12]
 80046b6:	697a      	ldr	r2, [r7, #20]
 80046b8:	621a      	str	r2, [r3, #32]
 80046ba:	bf00      	nop
 80046bc:	371c      	adds	r7, #28
 80046be:	46bd      	mov	sp, r7
 80046c0:	f85d 7b04 	ldr.w	r7, [sp], #4
 80046c4:	4770      	bx	lr

080046c6 <TIM_TI2_ConfigInputStage>:
 80046c6:	b480      	push	{r7}
 80046c8:	b087      	sub	sp, #28
 80046ca:	af00      	add	r7, sp, #0
 80046cc:	60f8      	str	r0, [r7, #12]
 80046ce:	60b9      	str	r1, [r7, #8]
 80046d0:	607a      	str	r2, [r7, #4]
 80046d2:	68fb      	ldr	r3, [r7, #12]
 80046d4:	6a1b      	ldr	r3, [r3, #32]
 80046d6:	f023 0210 	bic.w	r2, r3, #16
 80046da:	68fb      	ldr	r3, [r7, #12]
 80046dc:	621a      	str	r2, [r3, #32]
 80046de:	68fb      	ldr	r3, [r7, #12]
 80046e0:	699b      	ldr	r3, [r3, #24]
 80046e2:	617b      	str	r3, [r7, #20]
 80046e4:	68fb      	ldr	r3, [r7, #12]
 80046e6:	6a1b      	ldr	r3, [r3, #32]
 80046e8:	613b      	str	r3, [r7, #16]
 80046ea:	697b      	ldr	r3, [r7, #20]
 80046ec:	f423 4370 	bic.w	r3, r3, #61440	; 0xf000
 80046f0:	617b      	str	r3, [r7, #20]
 80046f2:	687b      	ldr	r3, [r7, #4]
 80046f4:	031b      	lsls	r3, r3, #12
 80046f6:	697a      	ldr	r2, [r7, #20]
 80046f8:	4313      	orrs	r3, r2
 80046fa:	617b      	str	r3, [r7, #20]
 80046fc:	693b      	ldr	r3, [r7, #16]
 80046fe:	f023 03a0 	bic.w	r3, r3, #160	; 0xa0
 8004702:	613b      	str	r3, [r7, #16]
 8004704:	68bb      	ldr	r3, [r7, #8]
 8004706:	011b      	lsls	r3, r3, #4
 8004708:	693a      	ldr	r2, [r7, #16]
 800470a:	4313      	orrs	r3, r2
 800470c:	613b      	str	r3, [r7, #16]
 800470e:	68fb      	ldr	r3, [r7, #12]
 8004710:	697a      	ldr	r2, [r7, #20]
 8004712:	619a      	str	r2, [r3, #24]
 8004714:	68fb      	ldr	r3, [r7, #12]
 8004716:	693a      	ldr	r2, [r7, #16]
 8004718:	621a      	str	r2, [r3, #32]
 800471a:	bf00      	nop
 800471c:	371c      	adds	r7, #28
 800471e:	46bd      	mov	sp, r7
 8004720:	f85d 7b04 	ldr.w	r7, [sp], #4
 8004724:	4770      	bx	lr

08004726 <TIM_ITRx_SetConfig>:
 8004726:	b480      	push	{r7}
 8004728:	b085      	sub	sp, #20
 800472a:	af00      	add	r7, sp, #0
 800472c:	6078      	str	r0, [r7, #4]
 800472e:	6039      	str	r1, [r7, #0]
 8004730:	687b      	ldr	r3, [r7, #4]
 8004732:	689b      	ldr	r3, [r3, #8]
 8004734:	60fb      	str	r3, [r7, #12]
 8004736:	68fb      	ldr	r3, [r7, #12]
 8004738:	f023 0370 	bic.w	r3, r3, #112	; 0x70
 800473c:	60fb      	str	r3, [r7, #12]
 800473e:	683a      	ldr	r2, [r7, #0]
 8004740:	68fb      	ldr	r3, [r7, #12]
 8004742:	4313      	orrs	r3, r2
 8004744:	f043 0307 	orr.w	r3, r3, #7
 8004748:	60fb      	str	r3, [r7, #12]
 800474a:	687b      	ldr	r3, [r7, #4]
 800474c:	68fa      	ldr	r2, [r7, #12]
 800474e:	609a      	str	r2, [r3, #8]
 8004750:	bf00      	nop
 8004752:	3714      	adds	r7, #20
 8004754:	46bd      	mov	sp, r7
 8004756:	f85d 7b04 	ldr.w	r7, [sp], #4
 800475a:	4770      	bx	lr

0800475c <TIM_ETR_SetConfig>:
 800475c:	b480      	push	{r7}
 800475e:	b087      	sub	sp, #28
 8004760:	af00      	add	r7, sp, #0
 8004762:	60f8      	str	r0, [r7, #12]
 8004764:	60b9      	str	r1, [r7, #8]
 8004766:	607a      	str	r2, [r7, #4]
 8004768:	603b      	str	r3, [r7, #0]
 800476a:	68fb      	ldr	r3, [r7, #12]
 800476c:	689b      	ldr	r3, [r3, #8]
 800476e:	617b      	str	r3, [r7, #20]
 8004770:	697b      	ldr	r3, [r7, #20]
 8004772:	f423 437f 	bic.w	r3, r3, #65280	; 0xff00
 8004776:	617b      	str	r3, [r7, #20]
 8004778:	683b      	ldr	r3, [r7, #0]
 800477a:	021a      	lsls	r2, r3, #8
 800477c:	687b      	ldr	r3, [r7, #4]
 800477e:	431a      	orrs	r2, r3
 8004780:	68bb      	ldr	r3, [r7, #8]
 8004782:	4313      	orrs	r3, r2
 8004784:	697a      	ldr	r2, [r7, #20]
 8004786:	4313      	orrs	r3, r2
 8004788:	617b      	str	r3, [r7, #20]
 800478a:	68fb      	ldr	r3, [r7, #12]
 800478c:	697a      	ldr	r2, [r7, #20]
 800478e:	609a      	str	r2, [r3, #8]
 8004790:	bf00      	nop
 8004792:	371c      	adds	r7, #28
 8004794:	46bd      	mov	sp, r7
 8004796:	f85d 7b04 	ldr.w	r7, [sp], #4
 800479a:	4770      	bx	lr

0800479c <TIM_CCxChannelCmd>:
 800479c:	b480      	push	{r7}
 800479e:	b087      	sub	sp, #28
 80047a0:	af00      	add	r7, sp, #0
 80047a2:	60f8      	str	r0, [r7, #12]
 80047a4:	60b9      	str	r1, [r7, #8]
 80047a6:	607a      	str	r2, [r7, #4]
 80047a8:	68bb      	ldr	r3, [r7, #8]
 80047aa:	f003 031f 	and.w	r3, r3, #31
 80047ae:	2201      	movs	r2, #1
 80047b0:	fa02 f303 	lsl.w	r3, r2, r3
 80047b4:	617b      	str	r3, [r7, #20]
 80047b6:	68fb      	ldr	r3, [r7, #12]
 80047b8:	6a1a      	ldr	r2, [r3, #32]
 80047ba:	697b      	ldr	r3, [r7, #20]
 80047bc:	43db      	mvns	r3, r3
 80047be:	401a      	ands	r2, r3
 80047c0:	68fb      	ldr	r3, [r7, #12]
 80047c2:	621a      	str	r2, [r3, #32]
 80047c4:	68fb      	ldr	r3, [r7, #12]
 80047c6:	6a1a      	ldr	r2, [r3, #32]
 80047c8:	68bb      	ldr	r3, [r7, #8]
 80047ca:	f003 031f 	and.w	r3, r3, #31
 80047ce:	6879      	ldr	r1, [r7, #4]
 80047d0:	fa01 f303 	lsl.w	r3, r1, r3
 80047d4:	431a      	orrs	r2, r3
 80047d6:	68fb      	ldr	r3, [r7, #12]
 80047d8:	621a      	str	r2, [r3, #32]
 80047da:	bf00      	nop
 80047dc:	371c      	adds	r7, #28
 80047de:	46bd      	mov	sp, r7
 80047e0:	f85d 7b04 	ldr.w	r7, [sp], #4
 80047e4:	4770      	bx	lr
	...

080047e8 <HAL_TIMEx_MasterConfigSynchronization>:
 80047e8:	b480      	push	{r7}
 80047ea:	b085      	sub	sp, #20
 80047ec:	af00      	add	r7, sp, #0
 80047ee:	6078      	str	r0, [r7, #4]
 80047f0:	6039      	str	r1, [r7, #0]
 80047f2:	687b      	ldr	r3, [r7, #4]
 80047f4:	f893 303c 	ldrb.w	r3, [r3, #60]	; 0x3c
 80047f8:	2b01      	cmp	r3, #1
 80047fa:	d101      	bne.n	8004800 <HAL_TIMEx_MasterConfigSynchronization+0x18>
 80047fc:	2302      	movs	r3, #2
 80047fe:	e045      	b.n	800488c <HAL_TIMEx_MasterConfigSynchronization+0xa4>
 8004800:	687b      	ldr	r3, [r7, #4]
 8004802:	2201      	movs	r2, #1
 8004804:	f883 203c 	strb.w	r2, [r3, #60]	; 0x3c
 8004808:	687b      	ldr	r3, [r7, #4]
 800480a:	2202      	movs	r2, #2
 800480c:	f883 203d 	strb.w	r2, [r3, #61]	; 0x3d
 8004810:	687b      	ldr	r3, [r7, #4]
 8004812:	681b      	ldr	r3, [r3, #0]
 8004814:	685b      	ldr	r3, [r3, #4]
 8004816:	60fb      	str	r3, [r7, #12]
 8004818:	687b      	ldr	r3, [r7, #4]
 800481a:	681b      	ldr	r3, [r3, #0]
 800481c:	689b      	ldr	r3, [r3, #8]
 800481e:	60bb      	str	r3, [r7, #8]
 8004820:	687b      	ldr	r3, [r7, #4]
 8004822:	681b      	ldr	r3, [r3, #0]
 8004824:	4a1c      	ldr	r2, [pc, #112]	; (8004898 <HAL_TIMEx_MasterConfigSynchronization+0xb0>)
 8004826:	4293      	cmp	r3, r2
 8004828:	d004      	beq.n	8004834 <HAL_TIMEx_MasterConfigSynchronization+0x4c>
 800482a:	687b      	ldr	r3, [r7, #4]
 800482c:	681b      	ldr	r3, [r3, #0]
 800482e:	4a1b      	ldr	r2, [pc, #108]	; (800489c <HAL_TIMEx_MasterConfigSynchronization+0xb4>)
 8004830:	4293      	cmp	r3, r2
 8004832:	d108      	bne.n	8004846 <HAL_TIMEx_MasterConfigSynchronization+0x5e>
 8004834:	68fb      	ldr	r3, [r7, #12]
 8004836:	f423 0370 	bic.w	r3, r3, #15728640	; 0xf00000
 800483a:	60fb      	str	r3, [r7, #12]
 800483c:	683b      	ldr	r3, [r7, #0]
 800483e:	685b      	ldr	r3, [r3, #4]
 8004840:	68fa      	ldr	r2, [r7, #12]
 8004842:	4313      	orrs	r3, r2
 8004844:	60fb      	str	r3, [r7, #12]
 8004846:	68fb      	ldr	r3, [r7, #12]
 8004848:	f023 0370 	bic.w	r3, r3, #112	; 0x70
 800484c:	60fb      	str	r3, [r7, #12]
 800484e:	683b      	ldr	r3, [r7, #0]
 8004850:	681b      	ldr	r3, [r3, #0]
 8004852:	68fa      	ldr	r2, [r7, #12]
 8004854:	4313      	orrs	r3, r2
 8004856:	60fb      	str	r3, [r7, #12]
 8004858:	68bb      	ldr	r3, [r7, #8]
 800485a:	f023 0380 	bic.w	r3, r3, #128	; 0x80
 800485e:	60bb      	str	r3, [r7, #8]
 8004860:	683b      	ldr	r3, [r7, #0]
 8004862:	689b      	ldr	r3, [r3, #8]
 8004864:	68ba      	ldr	r2, [r7, #8]
 8004866:	4313      	orrs	r3, r2
 8004868:	60bb      	str	r3, [r7, #8]
 800486a:	687b      	ldr	r3, [r7, #4]
 800486c:	681b      	ldr	r3, [r3, #0]
 800486e:	68fa      	ldr	r2, [r7, #12]
 8004870:	605a      	str	r2, [r3, #4]
 8004872:	687b      	ldr	r3, [r7, #4]
 8004874:	681b      	ldr	r3, [r3, #0]
 8004876:	68ba      	ldr	r2, [r7, #8]
 8004878:	609a      	str	r2, [r3, #8]
 800487a:	687b      	ldr	r3, [r7, #4]
 800487c:	2201      	movs	r2, #1
 800487e:	f883 203d 	strb.w	r2, [r3, #61]	; 0x3d
 8004882:	687b      	ldr	r3, [r7, #4]
 8004884:	2200      	movs	r2, #0
 8004886:	f883 203c 	strb.w	r2, [r3, #60]	; 0x3c
 800488a:	2300      	movs	r3, #0
 800488c:	4618      	mov	r0, r3
 800488e:	3714      	adds	r7, #20
 8004890:	46bd      	mov	sp, r7
 8004892:	f85d 7b04 	ldr.w	r7, [sp], #4
 8004896:	4770      	bx	lr
 8004898:	40010000 	.word	0x40010000
 800489c:	40010400 	.word	0x40010400

080048a0 <HAL_TIMEx_ConfigBreakDeadTime>:
 80048a0:	b480      	push	{r7}
 80048a2:	b085      	sub	sp, #20
 80048a4:	af00      	add	r7, sp, #0
 80048a6:	6078      	str	r0, [r7, #4]
 80048a8:	6039      	str	r1, [r7, #0]
 80048aa:	2300      	movs	r3, #0
 80048ac:	60fb      	str	r3, [r7, #12]
 80048ae:	687b      	ldr	r3, [r7, #4]
 80048b0:	f893 303c 	ldrb.w	r3, [r3, #60]	; 0x3c
 80048b4:	2b01      	cmp	r3, #1
 80048b6:	d101      	bne.n	80048bc <HAL_TIMEx_ConfigBreakDeadTime+0x1c>
 80048b8:	2302      	movs	r3, #2
 80048ba:	e065      	b.n	8004988 <HAL_TIMEx_ConfigBreakDeadTime+0xe8>
 80048bc:	687b      	ldr	r3, [r7, #4]
 80048be:	2201      	movs	r2, #1
 80048c0:	f883 203c 	strb.w	r2, [r3, #60]	; 0x3c
 80048c4:	68fb      	ldr	r3, [r7, #12]
 80048c6:	f023 02ff 	bic.w	r2, r3, #255	; 0xff
 80048ca:	683b      	ldr	r3, [r7, #0]
 80048cc:	68db      	ldr	r3, [r3, #12]
 80048ce:	4313      	orrs	r3, r2
 80048d0:	60fb      	str	r3, [r7, #12]
 80048d2:	68fb      	ldr	r3, [r7, #12]
 80048d4:	f423 7240 	bic.w	r2, r3, #768	; 0x300
 80048d8:	683b      	ldr	r3, [r7, #0]
 80048da:	689b      	ldr	r3, [r3, #8]
 80048dc:	4313      	orrs	r3, r2
 80048de:	60fb      	str	r3, [r7, #12]
 80048e0:	68fb      	ldr	r3, [r7, #12]
 80048e2:	f423 6280 	bic.w	r2, r3, #1024	; 0x400
 80048e6:	683b      	ldr	r3, [r7, #0]
 80048e8:	685b      	ldr	r3, [r3, #4]
 80048ea:	4313      	orrs	r3, r2
 80048ec:	60fb      	str	r3, [r7, #12]
 80048ee:	68fb      	ldr	r3, [r7, #12]
 80048f0:	f423 6200 	bic.w	r2, r3, #2048	; 0x800
 80048f4:	683b      	ldr	r3, [r7, #0]
 80048f6:	681b      	ldr	r3, [r3, #0]
 80048f8:	4313      	orrs	r3, r2
 80048fa:	60fb      	str	r3, [r7, #12]
 80048fc:	68fb      	ldr	r3, [r7, #12]
 80048fe:	f423 5280 	bic.w	r2, r3, #4096	; 0x1000
 8004902:	683b      	ldr	r3, [r7, #0]
 8004904:	691b      	ldr	r3, [r3, #16]
 8004906:	4313      	orrs	r3, r2
 8004908:	60fb      	str	r3, [r7, #12]
 800490a:	68fb      	ldr	r3, [r7, #12]
 800490c:	f423 5200 	bic.w	r2, r3, #8192	; 0x2000
 8004910:	683b      	ldr	r3, [r7, #0]
 8004912:	695b      	ldr	r3, [r3, #20]
 8004914:	4313      	orrs	r3, r2
 8004916:	60fb      	str	r3, [r7, #12]
 8004918:	68fb      	ldr	r3, [r7, #12]
 800491a:	f423 4280 	bic.w	r2, r3, #16384	; 0x4000
 800491e:	683b      	ldr	r3, [r7, #0]
 8004920:	6a9b      	ldr	r3, [r3, #40]	; 0x28
 8004922:	4313      	orrs	r3, r2
 8004924:	60fb      	str	r3, [r7, #12]
 8004926:	68fb      	ldr	r3, [r7, #12]
 8004928:	f423 2270 	bic.w	r2, r3, #983040	; 0xf0000
 800492c:	683b      	ldr	r3, [r7, #0]
 800492e:	699b      	ldr	r3, [r3, #24]
 8004930:	041b      	lsls	r3, r3, #16
 8004932:	4313      	orrs	r3, r2
 8004934:	60fb      	str	r3, [r7, #12]
 8004936:	687b      	ldr	r3, [r7, #4]
 8004938:	681b      	ldr	r3, [r3, #0]
 800493a:	4a16      	ldr	r2, [pc, #88]	; (8004994 <HAL_TIMEx_ConfigBreakDeadTime+0xf4>)
 800493c:	4293      	cmp	r3, r2
 800493e:	d004      	beq.n	800494a <HAL_TIMEx_ConfigBreakDeadTime+0xaa>
 8004940:	687b      	ldr	r3, [r7, #4]
 8004942:	681b      	ldr	r3, [r3, #0]
 8004944:	4a14      	ldr	r2, [pc, #80]	; (8004998 <HAL_TIMEx_ConfigBreakDeadTime+0xf8>)
 8004946:	4293      	cmp	r3, r2
 8004948:	d115      	bne.n	8004976 <HAL_TIMEx_ConfigBreakDeadTime+0xd6>
 800494a:	68fb      	ldr	r3, [r7, #12]
 800494c:	f423 0270 	bic.w	r2, r3, #15728640	; 0xf00000
 8004950:	683b      	ldr	r3, [r7, #0]
 8004952:	6a5b      	ldr	r3, [r3, #36]	; 0x24
 8004954:	051b      	lsls	r3, r3, #20
 8004956:	4313      	orrs	r3, r2
 8004958:	60fb      	str	r3, [r7, #12]
 800495a:	68fb      	ldr	r3, [r7, #12]
 800495c:	f023 7280 	bic.w	r2, r3, #16777216	; 0x1000000
 8004960:	683b      	ldr	r3, [r7, #0]
 8004962:	69db      	ldr	r3, [r3, #28]
 8004964:	4313      	orrs	r3, r2
 8004966:	60fb      	str	r3, [r7, #12]
 8004968:	68fb      	ldr	r3, [r7, #12]
 800496a:	f023 7200 	bic.w	r2, r3, #33554432	; 0x2000000
 800496e:	683b      	ldr	r3, [r7, #0]
 8004970:	6a1b      	ldr	r3, [r3, #32]
 8004972:	4313      	orrs	r3, r2
 8004974:	60fb      	str	r3, [r7, #12]
 8004976:	687b      	ldr	r3, [r7, #4]
 8004978:	681b      	ldr	r3, [r3, #0]
 800497a:	68fa      	ldr	r2, [r7, #12]
 800497c:	645a      	str	r2, [r3, #68]	; 0x44
 800497e:	687b      	ldr	r3, [r7, #4]
 8004980:	2200      	movs	r2, #0
 8004982:	f883 203c 	strb.w	r2, [r3, #60]	; 0x3c
 8004986:	2300      	movs	r3, #0
 8004988:	4618      	mov	r0, r3
 800498a:	3714      	adds	r7, #20
 800498c:	46bd      	mov	sp, r7
 800498e:	f85d 7b04 	ldr.w	r7, [sp], #4
 8004992:	4770      	bx	lr
 8004994:	40010000 	.word	0x40010000
 8004998:	40010400 	.word	0x40010400

0800499c <HAL_UART_Init>:
 800499c:	b580      	push	{r7, lr}
 800499e:	b082      	sub	sp, #8
 80049a0:	af00      	add	r7, sp, #0
 80049a2:	6078      	str	r0, [r7, #4]
 80049a4:	687b      	ldr	r3, [r7, #4]
 80049a6:	2b00      	cmp	r3, #0
 80049a8:	d101      	bne.n	80049ae <HAL_UART_Init+0x12>
 80049aa:	2301      	movs	r3, #1
 80049ac:	e040      	b.n	8004a30 <HAL_UART_Init+0x94>
 80049ae:	687b      	ldr	r3, [r7, #4]
 80049b0:	6f5b      	ldr	r3, [r3, #116]	; 0x74
 80049b2:	2b00      	cmp	r3, #0
 80049b4:	d106      	bne.n	80049c4 <HAL_UART_Init+0x28>
 80049b6:	687b      	ldr	r3, [r7, #4]
 80049b8:	2200      	movs	r2, #0
 80049ba:	f883 2070 	strb.w	r2, [r3, #112]	; 0x70
 80049be:	6878      	ldr	r0, [r7, #4]
 80049c0:	f002 fc18 	bl	80071f4 <HAL_UART_MspInit>
 80049c4:	687b      	ldr	r3, [r7, #4]
 80049c6:	2224      	movs	r2, #36	; 0x24
 80049c8:	675a      	str	r2, [r3, #116]	; 0x74
 80049ca:	687b      	ldr	r3, [r7, #4]
 80049cc:	681b      	ldr	r3, [r3, #0]
 80049ce:	681a      	ldr	r2, [r3, #0]
 80049d0:	687b      	ldr	r3, [r7, #4]
 80049d2:	681b      	ldr	r3, [r3, #0]
 80049d4:	f022 0201 	bic.w	r2, r2, #1
 80049d8:	601a      	str	r2, [r3, #0]
 80049da:	6878      	ldr	r0, [r7, #4]
 80049dc:	f000 faec 	bl	8004fb8 <UART_SetConfig>
 80049e0:	4603      	mov	r3, r0
 80049e2:	2b01      	cmp	r3, #1
 80049e4:	d101      	bne.n	80049ea <HAL_UART_Init+0x4e>
 80049e6:	2301      	movs	r3, #1
 80049e8:	e022      	b.n	8004a30 <HAL_UART_Init+0x94>
 80049ea:	687b      	ldr	r3, [r7, #4]
 80049ec:	6a5b      	ldr	r3, [r3, #36]	; 0x24
 80049ee:	2b00      	cmp	r3, #0
 80049f0:	d002      	beq.n	80049f8 <HAL_UART_Init+0x5c>
 80049f2:	6878      	ldr	r0, [r7, #4]
 80049f4:	f000 fd84 	bl	8005500 <UART_AdvFeatureConfig>
 80049f8:	687b      	ldr	r3, [r7, #4]
 80049fa:	681b      	ldr	r3, [r3, #0]
 80049fc:	685a      	ldr	r2, [r3, #4]
 80049fe:	687b      	ldr	r3, [r7, #4]
 8004a00:	681b      	ldr	r3, [r3, #0]
 8004a02:	f422 4290 	bic.w	r2, r2, #18432	; 0x4800
 8004a06:	605a      	str	r2, [r3, #4]
 8004a08:	687b      	ldr	r3, [r7, #4]
 8004a0a:	681b      	ldr	r3, [r3, #0]
 8004a0c:	689a      	ldr	r2, [r3, #8]
 8004a0e:	687b      	ldr	r3, [r7, #4]
 8004a10:	681b      	ldr	r3, [r3, #0]
 8004a12:	f022 022a 	bic.w	r2, r2, #42	; 0x2a
 8004a16:	609a      	str	r2, [r3, #8]
 8004a18:	687b      	ldr	r3, [r7, #4]
 8004a1a:	681b      	ldr	r3, [r3, #0]
 8004a1c:	681a      	ldr	r2, [r3, #0]
 8004a1e:	687b      	ldr	r3, [r7, #4]
 8004a20:	681b      	ldr	r3, [r3, #0]
 8004a22:	f042 0201 	orr.w	r2, r2, #1
 8004a26:	601a      	str	r2, [r3, #0]
 8004a28:	6878      	ldr	r0, [r7, #4]
 8004a2a:	f000 fe0b 	bl	8005644 <UART_CheckIdleState>
 8004a2e:	4603      	mov	r3, r0
 8004a30:	4618      	mov	r0, r3
 8004a32:	3708      	adds	r7, #8
 8004a34:	46bd      	mov	sp, r7
 8004a36:	bd80      	pop	{r7, pc}

08004a38 <HAL_UART_Transmit>:
 8004a38:	b580      	push	{r7, lr}
 8004a3a:	b08a      	sub	sp, #40	; 0x28
 8004a3c:	af02      	add	r7, sp, #8
 8004a3e:	60f8      	str	r0, [r7, #12]
 8004a40:	60b9      	str	r1, [r7, #8]
 8004a42:	603b      	str	r3, [r7, #0]
 8004a44:	4613      	mov	r3, r2
 8004a46:	80fb      	strh	r3, [r7, #6]
 8004a48:	68fb      	ldr	r3, [r7, #12]
 8004a4a:	6f5b      	ldr	r3, [r3, #116]	; 0x74
 8004a4c:	2b20      	cmp	r3, #32
 8004a4e:	d17f      	bne.n	8004b50 <HAL_UART_Transmit+0x118>
 8004a50:	68bb      	ldr	r3, [r7, #8]
 8004a52:	2b00      	cmp	r3, #0
 8004a54:	d002      	beq.n	8004a5c <HAL_UART_Transmit+0x24>
 8004a56:	88fb      	ldrh	r3, [r7, #6]
 8004a58:	2b00      	cmp	r3, #0
 8004a5a:	d101      	bne.n	8004a60 <HAL_UART_Transmit+0x28>
 8004a5c:	2301      	movs	r3, #1
 8004a5e:	e078      	b.n	8004b52 <HAL_UART_Transmit+0x11a>
 8004a60:	68fb      	ldr	r3, [r7, #12]
 8004a62:	f893 3070 	ldrb.w	r3, [r3, #112]	; 0x70
 8004a66:	2b01      	cmp	r3, #1
 8004a68:	d101      	bne.n	8004a6e <HAL_UART_Transmit+0x36>
 8004a6a:	2302      	movs	r3, #2
 8004a6c:	e071      	b.n	8004b52 <HAL_UART_Transmit+0x11a>
 8004a6e:	68fb      	ldr	r3, [r7, #12]
 8004a70:	2201      	movs	r2, #1
 8004a72:	f883 2070 	strb.w	r2, [r3, #112]	; 0x70
 8004a76:	68fb      	ldr	r3, [r7, #12]
 8004a78:	2200      	movs	r2, #0
 8004a7a:	67da      	str	r2, [r3, #124]	; 0x7c
 8004a7c:	68fb      	ldr	r3, [r7, #12]
 8004a7e:	2221      	movs	r2, #33	; 0x21
 8004a80:	675a      	str	r2, [r3, #116]	; 0x74
 8004a82:	f7fc f9dd 	bl	8000e40 <HAL_GetTick>
 8004a86:	6178      	str	r0, [r7, #20]
 8004a88:	68fb      	ldr	r3, [r7, #12]
 8004a8a:	88fa      	ldrh	r2, [r7, #6]
 8004a8c:	f8a3 2050 	strh.w	r2, [r3, #80]	; 0x50
 8004a90:	68fb      	ldr	r3, [r7, #12]
 8004a92:	88fa      	ldrh	r2, [r7, #6]
 8004a94:	f8a3 2052 	strh.w	r2, [r3, #82]	; 0x52
 8004a98:	68fb      	ldr	r3, [r7, #12]
 8004a9a:	689b      	ldr	r3, [r3, #8]
 8004a9c:	f5b3 5f80 	cmp.w	r3, #4096	; 0x1000
 8004aa0:	d108      	bne.n	8004ab4 <HAL_UART_Transmit+0x7c>
 8004aa2:	68fb      	ldr	r3, [r7, #12]
 8004aa4:	691b      	ldr	r3, [r3, #16]
 8004aa6:	2b00      	cmp	r3, #0
 8004aa8:	d104      	bne.n	8004ab4 <HAL_UART_Transmit+0x7c>
 8004aaa:	2300      	movs	r3, #0
 8004aac:	61fb      	str	r3, [r7, #28]
 8004aae:	68bb      	ldr	r3, [r7, #8]
 8004ab0:	61bb      	str	r3, [r7, #24]
 8004ab2:	e003      	b.n	8004abc <HAL_UART_Transmit+0x84>
 8004ab4:	68bb      	ldr	r3, [r7, #8]
 8004ab6:	61fb      	str	r3, [r7, #28]
 8004ab8:	2300      	movs	r3, #0
 8004aba:	61bb      	str	r3, [r7, #24]
 8004abc:	e02c      	b.n	8004b18 <HAL_UART_Transmit+0xe0>
 8004abe:	683b      	ldr	r3, [r7, #0]
 8004ac0:	9300      	str	r3, [sp, #0]
 8004ac2:	697b      	ldr	r3, [r7, #20]
 8004ac4:	2200      	movs	r2, #0
 8004ac6:	2180      	movs	r1, #128	; 0x80
 8004ac8:	68f8      	ldr	r0, [r7, #12]
 8004aca:	f000 fdea 	bl	80056a2 <UART_WaitOnFlagUntilTimeout>
 8004ace:	4603      	mov	r3, r0
 8004ad0:	2b00      	cmp	r3, #0
 8004ad2:	d001      	beq.n	8004ad8 <HAL_UART_Transmit+0xa0>
 8004ad4:	2303      	movs	r3, #3
 8004ad6:	e03c      	b.n	8004b52 <HAL_UART_Transmit+0x11a>
 8004ad8:	69fb      	ldr	r3, [r7, #28]
 8004ada:	2b00      	cmp	r3, #0
 8004adc:	d10b      	bne.n	8004af6 <HAL_UART_Transmit+0xbe>
 8004ade:	69bb      	ldr	r3, [r7, #24]
 8004ae0:	881b      	ldrh	r3, [r3, #0]
 8004ae2:	461a      	mov	r2, r3
 8004ae4:	68fb      	ldr	r3, [r7, #12]
 8004ae6:	681b      	ldr	r3, [r3, #0]
 8004ae8:	f3c2 0208 	ubfx	r2, r2, #0, #9
 8004aec:	629a      	str	r2, [r3, #40]	; 0x28
 8004aee:	69bb      	ldr	r3, [r7, #24]
 8004af0:	3302      	adds	r3, #2
 8004af2:	61bb      	str	r3, [r7, #24]
 8004af4:	e007      	b.n	8004b06 <HAL_UART_Transmit+0xce>
 8004af6:	69fb      	ldr	r3, [r7, #28]
 8004af8:	781a      	ldrb	r2, [r3, #0]
 8004afa:	68fb      	ldr	r3, [r7, #12]
 8004afc:	681b      	ldr	r3, [r3, #0]
 8004afe:	629a      	str	r2, [r3, #40]	; 0x28
 8004b00:	69fb      	ldr	r3, [r7, #28]
 8004b02:	3301      	adds	r3, #1
 8004b04:	61fb      	str	r3, [r7, #28]
 8004b06:	68fb      	ldr	r3, [r7, #12]
 8004b08:	f8b3 3052 	ldrh.w	r3, [r3, #82]	; 0x52
 8004b0c:	b29b      	uxth	r3, r3
 8004b0e:	3b01      	subs	r3, #1
 8004b10:	b29a      	uxth	r2, r3
 8004b12:	68fb      	ldr	r3, [r7, #12]
 8004b14:	f8a3 2052 	strh.w	r2, [r3, #82]	; 0x52
 8004b18:	68fb      	ldr	r3, [r7, #12]
 8004b1a:	f8b3 3052 	ldrh.w	r3, [r3, #82]	; 0x52
 8004b1e:	b29b      	uxth	r3, r3
 8004b20:	2b00      	cmp	r3, #0
 8004b22:	d1cc      	bne.n	8004abe <HAL_UART_Transmit+0x86>
 8004b24:	683b      	ldr	r3, [r7, #0]
 8004b26:	9300      	str	r3, [sp, #0]
 8004b28:	697b      	ldr	r3, [r7, #20]
 8004b2a:	2200      	movs	r2, #0
 8004b2c:	2140      	movs	r1, #64	; 0x40
 8004b2e:	68f8      	ldr	r0, [r7, #12]
 8004b30:	f000 fdb7 	bl	80056a2 <UART_WaitOnFlagUntilTimeout>
 8004b34:	4603      	mov	r3, r0
 8004b36:	2b00      	cmp	r3, #0
 8004b38:	d001      	beq.n	8004b3e <HAL_UART_Transmit+0x106>
 8004b3a:	2303      	movs	r3, #3
 8004b3c:	e009      	b.n	8004b52 <HAL_UART_Transmit+0x11a>
 8004b3e:	68fb      	ldr	r3, [r7, #12]
 8004b40:	2220      	movs	r2, #32
 8004b42:	675a      	str	r2, [r3, #116]	; 0x74
 8004b44:	68fb      	ldr	r3, [r7, #12]
 8004b46:	2200      	movs	r2, #0
 8004b48:	f883 2070 	strb.w	r2, [r3, #112]	; 0x70
 8004b4c:	2300      	movs	r3, #0
 8004b4e:	e000      	b.n	8004b52 <HAL_UART_Transmit+0x11a>
 8004b50:	2302      	movs	r3, #2
 8004b52:	4618      	mov	r0, r3
 8004b54:	3720      	adds	r7, #32
 8004b56:	46bd      	mov	sp, r7
 8004b58:	bd80      	pop	{r7, pc}
	...

08004b5c <HAL_UART_Transmit_IT>:
 8004b5c:	b480      	push	{r7}
 8004b5e:	b085      	sub	sp, #20
 8004b60:	af00      	add	r7, sp, #0
 8004b62:	60f8      	str	r0, [r7, #12]
 8004b64:	60b9      	str	r1, [r7, #8]
 8004b66:	4613      	mov	r3, r2
 8004b68:	80fb      	strh	r3, [r7, #6]
 8004b6a:	68fb      	ldr	r3, [r7, #12]
 8004b6c:	6f5b      	ldr	r3, [r3, #116]	; 0x74
 8004b6e:	2b20      	cmp	r3, #32
 8004b70:	d144      	bne.n	8004bfc <HAL_UART_Transmit_IT+0xa0>
 8004b72:	68bb      	ldr	r3, [r7, #8]
 8004b74:	2b00      	cmp	r3, #0
 8004b76:	d002      	beq.n	8004b7e <HAL_UART_Transmit_IT+0x22>
 8004b78:	88fb      	ldrh	r3, [r7, #6]
 8004b7a:	2b00      	cmp	r3, #0
 8004b7c:	d101      	bne.n	8004b82 <HAL_UART_Transmit_IT+0x26>
 8004b7e:	2301      	movs	r3, #1
 8004b80:	e03d      	b.n	8004bfe <HAL_UART_Transmit_IT+0xa2>
 8004b82:	68fb      	ldr	r3, [r7, #12]
 8004b84:	f893 3070 	ldrb.w	r3, [r3, #112]	; 0x70
 8004b88:	2b01      	cmp	r3, #1
 8004b8a:	d101      	bne.n	8004b90 <HAL_UART_Transmit_IT+0x34>
 8004b8c:	2302      	movs	r3, #2
 8004b8e:	e036      	b.n	8004bfe <HAL_UART_Transmit_IT+0xa2>
 8004b90:	68fb      	ldr	r3, [r7, #12]
 8004b92:	2201      	movs	r2, #1
 8004b94:	f883 2070 	strb.w	r2, [r3, #112]	; 0x70
 8004b98:	68fb      	ldr	r3, [r7, #12]
 8004b9a:	68ba      	ldr	r2, [r7, #8]
 8004b9c:	64da      	str	r2, [r3, #76]	; 0x4c
 8004b9e:	68fb      	ldr	r3, [r7, #12]
 8004ba0:	88fa      	ldrh	r2, [r7, #6]
 8004ba2:	f8a3 2050 	strh.w	r2, [r3, #80]	; 0x50
 8004ba6:	68fb      	ldr	r3, [r7, #12]
 8004ba8:	88fa      	ldrh	r2, [r7, #6]
 8004baa:	f8a3 2052 	strh.w	r2, [r3, #82]	; 0x52
 8004bae:	68fb      	ldr	r3, [r7, #12]
 8004bb0:	2200      	movs	r2, #0
 8004bb2:	665a      	str	r2, [r3, #100]	; 0x64
 8004bb4:	68fb      	ldr	r3, [r7, #12]
 8004bb6:	2200      	movs	r2, #0
 8004bb8:	67da      	str	r2, [r3, #124]	; 0x7c
 8004bba:	68fb      	ldr	r3, [r7, #12]
 8004bbc:	2221      	movs	r2, #33	; 0x21
 8004bbe:	675a      	str	r2, [r3, #116]	; 0x74
 8004bc0:	68fb      	ldr	r3, [r7, #12]
 8004bc2:	689b      	ldr	r3, [r3, #8]
 8004bc4:	f5b3 5f80 	cmp.w	r3, #4096	; 0x1000
 8004bc8:	d107      	bne.n	8004bda <HAL_UART_Transmit_IT+0x7e>
 8004bca:	68fb      	ldr	r3, [r7, #12]
 8004bcc:	691b      	ldr	r3, [r3, #16]
 8004bce:	2b00      	cmp	r3, #0
 8004bd0:	d103      	bne.n	8004bda <HAL_UART_Transmit_IT+0x7e>
 8004bd2:	68fb      	ldr	r3, [r7, #12]
 8004bd4:	4a0d      	ldr	r2, [pc, #52]	; (8004c0c <HAL_UART_Transmit_IT+0xb0>)
 8004bd6:	665a      	str	r2, [r3, #100]	; 0x64
 8004bd8:	e002      	b.n	8004be0 <HAL_UART_Transmit_IT+0x84>
 8004bda:	68fb      	ldr	r3, [r7, #12]
 8004bdc:	4a0c      	ldr	r2, [pc, #48]	; (8004c10 <HAL_UART_Transmit_IT+0xb4>)
 8004bde:	665a      	str	r2, [r3, #100]	; 0x64
 8004be0:	68fb      	ldr	r3, [r7, #12]
 8004be2:	2200      	movs	r2, #0
 8004be4:	f883 2070 	strb.w	r2, [r3, #112]	; 0x70
 8004be8:	68fb      	ldr	r3, [r7, #12]
 8004bea:	681b      	ldr	r3, [r3, #0]
 8004bec:	681a      	ldr	r2, [r3, #0]
 8004bee:	68fb      	ldr	r3, [r7, #12]
 8004bf0:	681b      	ldr	r3, [r3, #0]
 8004bf2:	f042 0280 	orr.w	r2, r2, #128	; 0x80
 8004bf6:	601a      	str	r2, [r3, #0]
 8004bf8:	2300      	movs	r3, #0
 8004bfa:	e000      	b.n	8004bfe <HAL_UART_Transmit_IT+0xa2>
 8004bfc:	2302      	movs	r3, #2
 8004bfe:	4618      	mov	r0, r3
 8004c00:	3714      	adds	r7, #20
 8004c02:	46bd      	mov	sp, r7
 8004c04:	f85d 7b04 	ldr.w	r7, [sp], #4
 8004c08:	4770      	bx	lr
 8004c0a:	bf00      	nop
 8004c0c:	08005811 	.word	0x08005811
 8004c10:	0800579f 	.word	0x0800579f

08004c14 <HAL_UART_Receive_IT>:
 8004c14:	b480      	push	{r7}
 8004c16:	b085      	sub	sp, #20
 8004c18:	af00      	add	r7, sp, #0
 8004c1a:	60f8      	str	r0, [r7, #12]
 8004c1c:	60b9      	str	r1, [r7, #8]
 8004c1e:	4613      	mov	r3, r2
 8004c20:	80fb      	strh	r3, [r7, #6]
 8004c22:	68fb      	ldr	r3, [r7, #12]
 8004c24:	6f9b      	ldr	r3, [r3, #120]	; 0x78
 8004c26:	2b20      	cmp	r3, #32
 8004c28:	f040 808a 	bne.w	8004d40 <HAL_UART_Receive_IT+0x12c>
 8004c2c:	68bb      	ldr	r3, [r7, #8]
 8004c2e:	2b00      	cmp	r3, #0
 8004c30:	d002      	beq.n	8004c38 <HAL_UART_Receive_IT+0x24>
 8004c32:	88fb      	ldrh	r3, [r7, #6]
 8004c34:	2b00      	cmp	r3, #0
 8004c36:	d101      	bne.n	8004c3c <HAL_UART_Receive_IT+0x28>
 8004c38:	2301      	movs	r3, #1
 8004c3a:	e082      	b.n	8004d42 <HAL_UART_Receive_IT+0x12e>
 8004c3c:	68fb      	ldr	r3, [r7, #12]
 8004c3e:	f893 3070 	ldrb.w	r3, [r3, #112]	; 0x70
 8004c42:	2b01      	cmp	r3, #1
 8004c44:	d101      	bne.n	8004c4a <HAL_UART_Receive_IT+0x36>
 8004c46:	2302      	movs	r3, #2
 8004c48:	e07b      	b.n	8004d42 <HAL_UART_Receive_IT+0x12e>
 8004c4a:	68fb      	ldr	r3, [r7, #12]
 8004c4c:	2201      	movs	r2, #1
 8004c4e:	f883 2070 	strb.w	r2, [r3, #112]	; 0x70
 8004c52:	68fb      	ldr	r3, [r7, #12]
 8004c54:	68ba      	ldr	r2, [r7, #8]
 8004c56:	655a      	str	r2, [r3, #84]	; 0x54
 8004c58:	68fb      	ldr	r3, [r7, #12]
 8004c5a:	88fa      	ldrh	r2, [r7, #6]
 8004c5c:	f8a3 2058 	strh.w	r2, [r3, #88]	; 0x58
 8004c60:	68fb      	ldr	r3, [r7, #12]
 8004c62:	88fa      	ldrh	r2, [r7, #6]
 8004c64:	f8a3 205a 	strh.w	r2, [r3, #90]	; 0x5a
 8004c68:	68fb      	ldr	r3, [r7, #12]
 8004c6a:	2200      	movs	r2, #0
 8004c6c:	661a      	str	r2, [r3, #96]	; 0x60
 8004c6e:	68fb      	ldr	r3, [r7, #12]
 8004c70:	689b      	ldr	r3, [r3, #8]
 8004c72:	f5b3 5f80 	cmp.w	r3, #4096	; 0x1000
 8004c76:	d10e      	bne.n	8004c96 <HAL_UART_Receive_IT+0x82>
 8004c78:	68fb      	ldr	r3, [r7, #12]
 8004c7a:	691b      	ldr	r3, [r3, #16]
 8004c7c:	2b00      	cmp	r3, #0
 8004c7e:	d105      	bne.n	8004c8c <HAL_UART_Receive_IT+0x78>
 8004c80:	68fb      	ldr	r3, [r7, #12]
 8004c82:	f240 12ff 	movw	r2, #511	; 0x1ff
 8004c86:	f8a3 205c 	strh.w	r2, [r3, #92]	; 0x5c
 8004c8a:	e02d      	b.n	8004ce8 <HAL_UART_Receive_IT+0xd4>
 8004c8c:	68fb      	ldr	r3, [r7, #12]
 8004c8e:	22ff      	movs	r2, #255	; 0xff
 8004c90:	f8a3 205c 	strh.w	r2, [r3, #92]	; 0x5c
 8004c94:	e028      	b.n	8004ce8 <HAL_UART_Receive_IT+0xd4>
 8004c96:	68fb      	ldr	r3, [r7, #12]
 8004c98:	689b      	ldr	r3, [r3, #8]
 8004c9a:	2b00      	cmp	r3, #0
 8004c9c:	d10d      	bne.n	8004cba <HAL_UART_Receive_IT+0xa6>
 8004c9e:	68fb      	ldr	r3, [r7, #12]
 8004ca0:	691b      	ldr	r3, [r3, #16]
 8004ca2:	2b00      	cmp	r3, #0
 8004ca4:	d104      	bne.n	8004cb0 <HAL_UART_Receive_IT+0x9c>
 8004ca6:	68fb      	ldr	r3, [r7, #12]
 8004ca8:	22ff      	movs	r2, #255	; 0xff
 8004caa:	f8a3 205c 	strh.w	r2, [r3, #92]	; 0x5c
 8004cae:	e01b      	b.n	8004ce8 <HAL_UART_Receive_IT+0xd4>
 8004cb0:	68fb      	ldr	r3, [r7, #12]
 8004cb2:	227f      	movs	r2, #127	; 0x7f
 8004cb4:	f8a3 205c 	strh.w	r2, [r3, #92]	; 0x5c
 8004cb8:	e016      	b.n	8004ce8 <HAL_UART_Receive_IT+0xd4>
 8004cba:	68fb      	ldr	r3, [r7, #12]
 8004cbc:	689b      	ldr	r3, [r3, #8]
 8004cbe:	f1b3 5f80 	cmp.w	r3, #268435456	; 0x10000000
 8004cc2:	d10d      	bne.n	8004ce0 <HAL_UART_Receive_IT+0xcc>
 8004cc4:	68fb      	ldr	r3, [r7, #12]
 8004cc6:	691b      	ldr	r3, [r3, #16]
 8004cc8:	2b00      	cmp	r3, #0
 8004cca:	d104      	bne.n	8004cd6 <HAL_UART_Receive_IT+0xc2>
 8004ccc:	68fb      	ldr	r3, [r7, #12]
 8004cce:	227f      	movs	r2, #127	; 0x7f
 8004cd0:	f8a3 205c 	strh.w	r2, [r3, #92]	; 0x5c
 8004cd4:	e008      	b.n	8004ce8 <HAL_UART_Receive_IT+0xd4>
 8004cd6:	68fb      	ldr	r3, [r7, #12]
 8004cd8:	223f      	movs	r2, #63	; 0x3f
 8004cda:	f8a3 205c 	strh.w	r2, [r3, #92]	; 0x5c
 8004cde:	e003      	b.n	8004ce8 <HAL_UART_Receive_IT+0xd4>
 8004ce0:	68fb      	ldr	r3, [r7, #12]
 8004ce2:	2200      	movs	r2, #0
 8004ce4:	f8a3 205c 	strh.w	r2, [r3, #92]	; 0x5c
 8004ce8:	68fb      	ldr	r3, [r7, #12]
 8004cea:	2200      	movs	r2, #0
 8004cec:	67da      	str	r2, [r3, #124]	; 0x7c
 8004cee:	68fb      	ldr	r3, [r7, #12]
 8004cf0:	2222      	movs	r2, #34	; 0x22
 8004cf2:	679a      	str	r2, [r3, #120]	; 0x78
 8004cf4:	68fb      	ldr	r3, [r7, #12]
 8004cf6:	681b      	ldr	r3, [r3, #0]
 8004cf8:	689a      	ldr	r2, [r3, #8]
 8004cfa:	68fb      	ldr	r3, [r7, #12]
 8004cfc:	681b      	ldr	r3, [r3, #0]
 8004cfe:	f042 0201 	orr.w	r2, r2, #1
 8004d02:	609a      	str	r2, [r3, #8]
 8004d04:	68fb      	ldr	r3, [r7, #12]
 8004d06:	689b      	ldr	r3, [r3, #8]
 8004d08:	f5b3 5f80 	cmp.w	r3, #4096	; 0x1000
 8004d0c:	d107      	bne.n	8004d1e <HAL_UART_Receive_IT+0x10a>
 8004d0e:	68fb      	ldr	r3, [r7, #12]
 8004d10:	691b      	ldr	r3, [r3, #16]
 8004d12:	2b00      	cmp	r3, #0
 8004d14:	d103      	bne.n	8004d1e <HAL_UART_Receive_IT+0x10a>
 8004d16:	68fb      	ldr	r3, [r7, #12]
 8004d18:	4a0d      	ldr	r2, [pc, #52]	; (8004d50 <HAL_UART_Receive_IT+0x13c>)
 8004d1a:	661a      	str	r2, [r3, #96]	; 0x60
 8004d1c:	e002      	b.n	8004d24 <HAL_UART_Receive_IT+0x110>
 8004d1e:	68fb      	ldr	r3, [r7, #12]
 8004d20:	4a0c      	ldr	r2, [pc, #48]	; (8004d54 <HAL_UART_Receive_IT+0x140>)
 8004d22:	661a      	str	r2, [r3, #96]	; 0x60
 8004d24:	68fb      	ldr	r3, [r7, #12]
 8004d26:	2200      	movs	r2, #0
 8004d28:	f883 2070 	strb.w	r2, [r3, #112]	; 0x70
 8004d2c:	68fb      	ldr	r3, [r7, #12]
 8004d2e:	681b      	ldr	r3, [r3, #0]
 8004d30:	681a      	ldr	r2, [r3, #0]
 8004d32:	68fb      	ldr	r3, [r7, #12]
 8004d34:	681b      	ldr	r3, [r3, #0]
 8004d36:	f442 7290 	orr.w	r2, r2, #288	; 0x120
 8004d3a:	601a      	str	r2, [r3, #0]
 8004d3c:	2300      	movs	r3, #0
 8004d3e:	e000      	b.n	8004d42 <HAL_UART_Receive_IT+0x12e>
 8004d40:	2302      	movs	r3, #2
 8004d42:	4618      	mov	r0, r3
 8004d44:	3714      	adds	r7, #20
 8004d46:	46bd      	mov	sp, r7
 8004d48:	f85d 7b04 	ldr.w	r7, [sp], #4
 8004d4c:	4770      	bx	lr
 8004d4e:	bf00      	nop
 8004d50:	08005965 	.word	0x08005965
 8004d54:	080058bf 	.word	0x080058bf

08004d58 <HAL_UART_IRQHandler>:
 8004d58:	b580      	push	{r7, lr}
 8004d5a:	b088      	sub	sp, #32
 8004d5c:	af00      	add	r7, sp, #0
 8004d5e:	6078      	str	r0, [r7, #4]
 8004d60:	687b      	ldr	r3, [r7, #4]
 8004d62:	681b      	ldr	r3, [r3, #0]
 8004d64:	69db      	ldr	r3, [r3, #28]
 8004d66:	61fb      	str	r3, [r7, #28]
 8004d68:	687b      	ldr	r3, [r7, #4]
 8004d6a:	681b      	ldr	r3, [r3, #0]
 8004d6c:	681b      	ldr	r3, [r3, #0]
 8004d6e:	61bb      	str	r3, [r7, #24]
 8004d70:	687b      	ldr	r3, [r7, #4]
 8004d72:	681b      	ldr	r3, [r3, #0]
 8004d74:	689b      	ldr	r3, [r3, #8]
 8004d76:	617b      	str	r3, [r7, #20]
 8004d78:	69fb      	ldr	r3, [r7, #28]
 8004d7a:	f003 030f 	and.w	r3, r3, #15
 8004d7e:	613b      	str	r3, [r7, #16]
 8004d80:	693b      	ldr	r3, [r7, #16]
 8004d82:	2b00      	cmp	r3, #0
 8004d84:	d113      	bne.n	8004dae <HAL_UART_IRQHandler+0x56>
 8004d86:	69fb      	ldr	r3, [r7, #28]
 8004d88:	f003 0320 	and.w	r3, r3, #32
 8004d8c:	2b00      	cmp	r3, #0
 8004d8e:	d00e      	beq.n	8004dae <HAL_UART_IRQHandler+0x56>
 8004d90:	69bb      	ldr	r3, [r7, #24]
 8004d92:	f003 0320 	and.w	r3, r3, #32
 8004d96:	2b00      	cmp	r3, #0
 8004d98:	d009      	beq.n	8004dae <HAL_UART_IRQHandler+0x56>
 8004d9a:	687b      	ldr	r3, [r7, #4]
 8004d9c:	6e1b      	ldr	r3, [r3, #96]	; 0x60
 8004d9e:	2b00      	cmp	r3, #0
 8004da0:	f000 80eb 	beq.w	8004f7a <HAL_UART_IRQHandler+0x222>
 8004da4:	687b      	ldr	r3, [r7, #4]
 8004da6:	6e1b      	ldr	r3, [r3, #96]	; 0x60
 8004da8:	6878      	ldr	r0, [r7, #4]
 8004daa:	4798      	blx	r3
 8004dac:	e0e5      	b.n	8004f7a <HAL_UART_IRQHandler+0x222>
 8004dae:	693b      	ldr	r3, [r7, #16]
 8004db0:	2b00      	cmp	r3, #0
 8004db2:	f000 80c0 	beq.w	8004f36 <HAL_UART_IRQHandler+0x1de>
 8004db6:	697b      	ldr	r3, [r7, #20]
 8004db8:	f003 0301 	and.w	r3, r3, #1
 8004dbc:	2b00      	cmp	r3, #0
 8004dbe:	d105      	bne.n	8004dcc <HAL_UART_IRQHandler+0x74>
 8004dc0:	69bb      	ldr	r3, [r7, #24]
 8004dc2:	f403 7390 	and.w	r3, r3, #288	; 0x120
 8004dc6:	2b00      	cmp	r3, #0
 8004dc8:	f000 80b5 	beq.w	8004f36 <HAL_UART_IRQHandler+0x1de>
 8004dcc:	69fb      	ldr	r3, [r7, #28]
 8004dce:	f003 0301 	and.w	r3, r3, #1
 8004dd2:	2b00      	cmp	r3, #0
 8004dd4:	d00e      	beq.n	8004df4 <HAL_UART_IRQHandler+0x9c>
 8004dd6:	69bb      	ldr	r3, [r7, #24]
 8004dd8:	f403 7380 	and.w	r3, r3, #256	; 0x100
 8004ddc:	2b00      	cmp	r3, #0
 8004dde:	d009      	beq.n	8004df4 <HAL_UART_IRQHandler+0x9c>
 8004de0:	687b      	ldr	r3, [r7, #4]
 8004de2:	681b      	ldr	r3, [r3, #0]
 8004de4:	2201      	movs	r2, #1
 8004de6:	621a      	str	r2, [r3, #32]
 8004de8:	687b      	ldr	r3, [r7, #4]
 8004dea:	6fdb      	ldr	r3, [r3, #124]	; 0x7c
 8004dec:	f043 0201 	orr.w	r2, r3, #1
 8004df0:	687b      	ldr	r3, [r7, #4]
 8004df2:	67da      	str	r2, [r3, #124]	; 0x7c
 8004df4:	69fb      	ldr	r3, [r7, #28]
 8004df6:	f003 0302 	and.w	r3, r3, #2
 8004dfa:	2b00      	cmp	r3, #0
 8004dfc:	d00e      	beq.n	8004e1c <HAL_UART_IRQHandler+0xc4>
 8004dfe:	697b      	ldr	r3, [r7, #20]
 8004e00:	f003 0301 	and.w	r3, r3, #1
 8004e04:	2b00      	cmp	r3, #0
 8004e06:	d009      	beq.n	8004e1c <HAL_UART_IRQHandler+0xc4>
 8004e08:	687b      	ldr	r3, [r7, #4]
 8004e0a:	681b      	ldr	r3, [r3, #0]
 8004e0c:	2202      	movs	r2, #2
 8004e0e:	621a      	str	r2, [r3, #32]
 8004e10:	687b      	ldr	r3, [r7, #4]
 8004e12:	6fdb      	ldr	r3, [r3, #124]	; 0x7c
 8004e14:	f043 0204 	orr.w	r2, r3, #4
 8004e18:	687b      	ldr	r3, [r7, #4]
 8004e1a:	67da      	str	r2, [r3, #124]	; 0x7c
 8004e1c:	69fb      	ldr	r3, [r7, #28]
 8004e1e:	f003 0304 	and.w	r3, r3, #4
 8004e22:	2b00      	cmp	r3, #0
 8004e24:	d00e      	beq.n	8004e44 <HAL_UART_IRQHandler+0xec>
 8004e26:	697b      	ldr	r3, [r7, #20]
 8004e28:	f003 0301 	and.w	r3, r3, #1
 8004e2c:	2b00      	cmp	r3, #0
 8004e2e:	d009      	beq.n	8004e44 <HAL_UART_IRQHandler+0xec>
 8004e30:	687b      	ldr	r3, [r7, #4]
 8004e32:	681b      	ldr	r3, [r3, #0]
 8004e34:	2204      	movs	r2, #4
 8004e36:	621a      	str	r2, [r3, #32]
 8004e38:	687b      	ldr	r3, [r7, #4]
 8004e3a:	6fdb      	ldr	r3, [r3, #124]	; 0x7c
 8004e3c:	f043 0202 	orr.w	r2, r3, #2
 8004e40:	687b      	ldr	r3, [r7, #4]
 8004e42:	67da      	str	r2, [r3, #124]	; 0x7c
 8004e44:	69fb      	ldr	r3, [r7, #28]
 8004e46:	f003 0308 	and.w	r3, r3, #8
 8004e4a:	2b00      	cmp	r3, #0
 8004e4c:	d013      	beq.n	8004e76 <HAL_UART_IRQHandler+0x11e>
 8004e4e:	69bb      	ldr	r3, [r7, #24]
 8004e50:	f003 0320 	and.w	r3, r3, #32
 8004e54:	2b00      	cmp	r3, #0
 8004e56:	d104      	bne.n	8004e62 <HAL_UART_IRQHandler+0x10a>
 8004e58:	697b      	ldr	r3, [r7, #20]
 8004e5a:	f003 0301 	and.w	r3, r3, #1
 8004e5e:	2b00      	cmp	r3, #0
 8004e60:	d009      	beq.n	8004e76 <HAL_UART_IRQHandler+0x11e>
 8004e62:	687b      	ldr	r3, [r7, #4]
 8004e64:	681b      	ldr	r3, [r3, #0]
 8004e66:	2208      	movs	r2, #8
 8004e68:	621a      	str	r2, [r3, #32]
 8004e6a:	687b      	ldr	r3, [r7, #4]
 8004e6c:	6fdb      	ldr	r3, [r3, #124]	; 0x7c
 8004e6e:	f043 0208 	orr.w	r2, r3, #8
 8004e72:	687b      	ldr	r3, [r7, #4]
 8004e74:	67da      	str	r2, [r3, #124]	; 0x7c
 8004e76:	687b      	ldr	r3, [r7, #4]
 8004e78:	6fdb      	ldr	r3, [r3, #124]	; 0x7c
 8004e7a:	2b00      	cmp	r3, #0
 8004e7c:	d07f      	beq.n	8004f7e <HAL_UART_IRQHandler+0x226>
 8004e7e:	69fb      	ldr	r3, [r7, #28]
 8004e80:	f003 0320 	and.w	r3, r3, #32
 8004e84:	2b00      	cmp	r3, #0
 8004e86:	d00c      	beq.n	8004ea2 <HAL_UART_IRQHandler+0x14a>
 8004e88:	69bb      	ldr	r3, [r7, #24]
 8004e8a:	f003 0320 	and.w	r3, r3, #32
 8004e8e:	2b00      	cmp	r3, #0
 8004e90:	d007      	beq.n	8004ea2 <HAL_UART_IRQHandler+0x14a>
 8004e92:	687b      	ldr	r3, [r7, #4]
 8004e94:	6e1b      	ldr	r3, [r3, #96]	; 0x60
 8004e96:	2b00      	cmp	r3, #0
 8004e98:	d003      	beq.n	8004ea2 <HAL_UART_IRQHandler+0x14a>
 8004e9a:	687b      	ldr	r3, [r7, #4]
 8004e9c:	6e1b      	ldr	r3, [r3, #96]	; 0x60
 8004e9e:	6878      	ldr	r0, [r7, #4]
 8004ea0:	4798      	blx	r3
 8004ea2:	687b      	ldr	r3, [r7, #4]
 8004ea4:	6fdb      	ldr	r3, [r3, #124]	; 0x7c
 8004ea6:	60fb      	str	r3, [r7, #12]
 8004ea8:	687b      	ldr	r3, [r7, #4]
 8004eaa:	681b      	ldr	r3, [r3, #0]
 8004eac:	689b      	ldr	r3, [r3, #8]
 8004eae:	f003 0340 	and.w	r3, r3, #64	; 0x40
 8004eb2:	2b40      	cmp	r3, #64	; 0x40
 8004eb4:	d004      	beq.n	8004ec0 <HAL_UART_IRQHandler+0x168>
 8004eb6:	68fb      	ldr	r3, [r7, #12]
 8004eb8:	f003 0308 	and.w	r3, r3, #8
 8004ebc:	2b00      	cmp	r3, #0
 8004ebe:	d031      	beq.n	8004f24 <HAL_UART_IRQHandler+0x1cc>
 8004ec0:	6878      	ldr	r0, [r7, #4]
 8004ec2:	f000 fc36 	bl	8005732 <UART_EndRxTransfer>
 8004ec6:	687b      	ldr	r3, [r7, #4]
 8004ec8:	681b      	ldr	r3, [r3, #0]
 8004eca:	689b      	ldr	r3, [r3, #8]
 8004ecc:	f003 0340 	and.w	r3, r3, #64	; 0x40
 8004ed0:	2b40      	cmp	r3, #64	; 0x40
 8004ed2:	d123      	bne.n	8004f1c <HAL_UART_IRQHandler+0x1c4>
 8004ed4:	687b      	ldr	r3, [r7, #4]
 8004ed6:	681b      	ldr	r3, [r3, #0]
 8004ed8:	689a      	ldr	r2, [r3, #8]
 8004eda:	687b      	ldr	r3, [r7, #4]
 8004edc:	681b      	ldr	r3, [r3, #0]
 8004ede:	f022 0240 	bic.w	r2, r2, #64	; 0x40
 8004ee2:	609a      	str	r2, [r3, #8]
 8004ee4:	687b      	ldr	r3, [r7, #4]
 8004ee6:	6edb      	ldr	r3, [r3, #108]	; 0x6c
 8004ee8:	2b00      	cmp	r3, #0
 8004eea:	d013      	beq.n	8004f14 <HAL_UART_IRQHandler+0x1bc>
 8004eec:	687b      	ldr	r3, [r7, #4]
 8004eee:	6edb      	ldr	r3, [r3, #108]	; 0x6c
 8004ef0:	4a26      	ldr	r2, [pc, #152]	; (8004f8c <HAL_UART_IRQHandler+0x234>)
 8004ef2:	651a      	str	r2, [r3, #80]	; 0x50
 8004ef4:	687b      	ldr	r3, [r7, #4]
 8004ef6:	6edb      	ldr	r3, [r3, #108]	; 0x6c
 8004ef8:	4618      	mov	r0, r3
 8004efa:	f7fc f8e0 	bl	80010be <HAL_DMA_Abort_IT>
 8004efe:	4603      	mov	r3, r0
 8004f00:	2b00      	cmp	r3, #0
 8004f02:	d016      	beq.n	8004f32 <HAL_UART_IRQHandler+0x1da>
 8004f04:	687b      	ldr	r3, [r7, #4]
 8004f06:	6edb      	ldr	r3, [r3, #108]	; 0x6c
 8004f08:	6d1b      	ldr	r3, [r3, #80]	; 0x50
 8004f0a:	687a      	ldr	r2, [r7, #4]
 8004f0c:	6ed2      	ldr	r2, [r2, #108]	; 0x6c
 8004f0e:	4610      	mov	r0, r2
 8004f10:	4798      	blx	r3
 8004f12:	e00e      	b.n	8004f32 <HAL_UART_IRQHandler+0x1da>
 8004f14:	6878      	ldr	r0, [r7, #4]
 8004f16:	f000 f845 	bl	8004fa4 <HAL_UART_ErrorCallback>
 8004f1a:	e00a      	b.n	8004f32 <HAL_UART_IRQHandler+0x1da>
 8004f1c:	6878      	ldr	r0, [r7, #4]
 8004f1e:	f000 f841 	bl	8004fa4 <HAL_UART_ErrorCallback>
 8004f22:	e006      	b.n	8004f32 <HAL_UART_IRQHandler+0x1da>
 8004f24:	6878      	ldr	r0, [r7, #4]
 8004f26:	f000 f83d 	bl	8004fa4 <HAL_UART_ErrorCallback>
 8004f2a:	687b      	ldr	r3, [r7, #4]
 8004f2c:	2200      	movs	r2, #0
 8004f2e:	67da      	str	r2, [r3, #124]	; 0x7c
 8004f30:	e025      	b.n	8004f7e <HAL_UART_IRQHandler+0x226>
 8004f32:	bf00      	nop
 8004f34:	e023      	b.n	8004f7e <HAL_UART_IRQHandler+0x226>
 8004f36:	69fb      	ldr	r3, [r7, #28]
 8004f38:	f003 0380 	and.w	r3, r3, #128	; 0x80
 8004f3c:	2b00      	cmp	r3, #0
 8004f3e:	d00d      	beq.n	8004f5c <HAL_UART_IRQHandler+0x204>
 8004f40:	69bb      	ldr	r3, [r7, #24]
 8004f42:	f003 0380 	and.w	r3, r3, #128	; 0x80
 8004f46:	2b00      	cmp	r3, #0
 8004f48:	d008      	beq.n	8004f5c <HAL_UART_IRQHandler+0x204>
 8004f4a:	687b      	ldr	r3, [r7, #4]
 8004f4c:	6e5b      	ldr	r3, [r3, #100]	; 0x64
 8004f4e:	2b00      	cmp	r3, #0
 8004f50:	d017      	beq.n	8004f82 <HAL_UART_IRQHandler+0x22a>
 8004f52:	687b      	ldr	r3, [r7, #4]
 8004f54:	6e5b      	ldr	r3, [r3, #100]	; 0x64
 8004f56:	6878      	ldr	r0, [r7, #4]
 8004f58:	4798      	blx	r3
 8004f5a:	e012      	b.n	8004f82 <HAL_UART_IRQHandler+0x22a>
 8004f5c:	69fb      	ldr	r3, [r7, #28]
 8004f5e:	f003 0340 	and.w	r3, r3, #64	; 0x40
 8004f62:	2b00      	cmp	r3, #0
 8004f64:	d00e      	beq.n	8004f84 <HAL_UART_IRQHandler+0x22c>
 8004f66:	69bb      	ldr	r3, [r7, #24]
 8004f68:	f003 0340 	and.w	r3, r3, #64	; 0x40
 8004f6c:	2b00      	cmp	r3, #0
 8004f6e:	d009      	beq.n	8004f84 <HAL_UART_IRQHandler+0x22c>
 8004f70:	6878      	ldr	r0, [r7, #4]
 8004f72:	f000 fc8b 	bl	800588c <UART_EndTransmit_IT>
 8004f76:	bf00      	nop
 8004f78:	e004      	b.n	8004f84 <HAL_UART_IRQHandler+0x22c>
 8004f7a:	bf00      	nop
 8004f7c:	e002      	b.n	8004f84 <HAL_UART_IRQHandler+0x22c>
 8004f7e:	bf00      	nop
 8004f80:	e000      	b.n	8004f84 <HAL_UART_IRQHandler+0x22c>
 8004f82:	bf00      	nop
 8004f84:	3720      	adds	r7, #32
 8004f86:	46bd      	mov	sp, r7
 8004f88:	bd80      	pop	{r7, pc}
 8004f8a:	bf00      	nop
 8004f8c:	08005773 	.word	0x08005773

08004f90 <HAL_UART_TxCpltCallback>:
 8004f90:	b480      	push	{r7}
 8004f92:	b083      	sub	sp, #12
 8004f94:	af00      	add	r7, sp, #0
 8004f96:	6078      	str	r0, [r7, #4]
 8004f98:	bf00      	nop
 8004f9a:	370c      	adds	r7, #12
 8004f9c:	46bd      	mov	sp, r7
 8004f9e:	f85d 7b04 	ldr.w	r7, [sp], #4
 8004fa2:	4770      	bx	lr

08004fa4 <HAL_UART_ErrorCallback>:
 8004fa4:	b480      	push	{r7}
 8004fa6:	b083      	sub	sp, #12
 8004fa8:	af00      	add	r7, sp, #0
 8004faa:	6078      	str	r0, [r7, #4]
 8004fac:	bf00      	nop
 8004fae:	370c      	adds	r7, #12
 8004fb0:	46bd      	mov	sp, r7
 8004fb2:	f85d 7b04 	ldr.w	r7, [sp], #4
 8004fb6:	4770      	bx	lr

08004fb8 <UART_SetConfig>:
 8004fb8:	b580      	push	{r7, lr}
 8004fba:	b088      	sub	sp, #32
 8004fbc:	af00      	add	r7, sp, #0
 8004fbe:	6078      	str	r0, [r7, #4]
 8004fc0:	2300      	movs	r3, #0
 8004fc2:	61bb      	str	r3, [r7, #24]
 8004fc4:	2300      	movs	r3, #0
 8004fc6:	75fb      	strb	r3, [r7, #23]
 8004fc8:	687b      	ldr	r3, [r7, #4]
 8004fca:	689a      	ldr	r2, [r3, #8]
 8004fcc:	687b      	ldr	r3, [r7, #4]
 8004fce:	691b      	ldr	r3, [r3, #16]
 8004fd0:	431a      	orrs	r2, r3
 8004fd2:	687b      	ldr	r3, [r7, #4]
 8004fd4:	695b      	ldr	r3, [r3, #20]
 8004fd6:	431a      	orrs	r2, r3
 8004fd8:	687b      	ldr	r3, [r7, #4]
 8004fda:	69db      	ldr	r3, [r3, #28]
 8004fdc:	4313      	orrs	r3, r2
 8004fde:	613b      	str	r3, [r7, #16]
 8004fe0:	687b      	ldr	r3, [r7, #4]
 8004fe2:	681b      	ldr	r3, [r3, #0]
 8004fe4:	681a      	ldr	r2, [r3, #0]
 8004fe6:	4bb1      	ldr	r3, [pc, #708]	; (80052ac <UART_SetConfig+0x2f4>)
 8004fe8:	4013      	ands	r3, r2
 8004fea:	687a      	ldr	r2, [r7, #4]
 8004fec:	6812      	ldr	r2, [r2, #0]
 8004fee:	6939      	ldr	r1, [r7, #16]
 8004ff0:	430b      	orrs	r3, r1
 8004ff2:	6013      	str	r3, [r2, #0]
 8004ff4:	687b      	ldr	r3, [r7, #4]
 8004ff6:	681b      	ldr	r3, [r3, #0]
 8004ff8:	685b      	ldr	r3, [r3, #4]
 8004ffa:	f423 5140 	bic.w	r1, r3, #12288	; 0x3000
 8004ffe:	687b      	ldr	r3, [r7, #4]
 8005000:	68da      	ldr	r2, [r3, #12]
 8005002:	687b      	ldr	r3, [r7, #4]
 8005004:	681b      	ldr	r3, [r3, #0]
 8005006:	430a      	orrs	r2, r1
 8005008:	605a      	str	r2, [r3, #4]
 800500a:	687b      	ldr	r3, [r7, #4]
 800500c:	699b      	ldr	r3, [r3, #24]
 800500e:	613b      	str	r3, [r7, #16]
 8005010:	687b      	ldr	r3, [r7, #4]
 8005012:	6a1b      	ldr	r3, [r3, #32]
 8005014:	693a      	ldr	r2, [r7, #16]
 8005016:	4313      	orrs	r3, r2
 8005018:	613b      	str	r3, [r7, #16]
 800501a:	687b      	ldr	r3, [r7, #4]
 800501c:	681b      	ldr	r3, [r3, #0]
 800501e:	689b      	ldr	r3, [r3, #8]
 8005020:	f423 6130 	bic.w	r1, r3, #2816	; 0xb00
 8005024:	687b      	ldr	r3, [r7, #4]
 8005026:	681b      	ldr	r3, [r3, #0]
 8005028:	693a      	ldr	r2, [r7, #16]
 800502a:	430a      	orrs	r2, r1
 800502c:	609a      	str	r2, [r3, #8]
 800502e:	687b      	ldr	r3, [r7, #4]
 8005030:	681b      	ldr	r3, [r3, #0]
 8005032:	4a9f      	ldr	r2, [pc, #636]	; (80052b0 <UART_SetConfig+0x2f8>)
 8005034:	4293      	cmp	r3, r2
 8005036:	d121      	bne.n	800507c <UART_SetConfig+0xc4>
 8005038:	4b9e      	ldr	r3, [pc, #632]	; (80052b4 <UART_SetConfig+0x2fc>)
 800503a:	f8d3 3090 	ldr.w	r3, [r3, #144]	; 0x90
 800503e:	f003 0303 	and.w	r3, r3, #3
 8005042:	2b03      	cmp	r3, #3
 8005044:	d816      	bhi.n	8005074 <UART_SetConfig+0xbc>
 8005046:	a201      	add	r2, pc, #4	; (adr r2, 800504c <UART_SetConfig+0x94>)
 8005048:	f852 f023 	ldr.w	pc, [r2, r3, lsl #2]
 800504c:	0800505d 	.word	0x0800505d
 8005050:	08005069 	.word	0x08005069
 8005054:	08005063 	.word	0x08005063
 8005058:	0800506f 	.word	0x0800506f
 800505c:	2301      	movs	r3, #1
 800505e:	77fb      	strb	r3, [r7, #31]
 8005060:	e151      	b.n	8005306 <UART_SetConfig+0x34e>
 8005062:	2302      	movs	r3, #2
 8005064:	77fb      	strb	r3, [r7, #31]
 8005066:	e14e      	b.n	8005306 <UART_SetConfig+0x34e>
 8005068:	2304      	movs	r3, #4
 800506a:	77fb      	strb	r3, [r7, #31]
 800506c:	e14b      	b.n	8005306 <UART_SetConfig+0x34e>
 800506e:	2308      	movs	r3, #8
 8005070:	77fb      	strb	r3, [r7, #31]
 8005072:	e148      	b.n	8005306 <UART_SetConfig+0x34e>
 8005074:	2310      	movs	r3, #16
 8005076:	77fb      	strb	r3, [r7, #31]
 8005078:	bf00      	nop
 800507a:	e144      	b.n	8005306 <UART_SetConfig+0x34e>
 800507c:	687b      	ldr	r3, [r7, #4]
 800507e:	681b      	ldr	r3, [r3, #0]
 8005080:	4a8d      	ldr	r2, [pc, #564]	; (80052b8 <UART_SetConfig+0x300>)
 8005082:	4293      	cmp	r3, r2
 8005084:	d134      	bne.n	80050f0 <UART_SetConfig+0x138>
 8005086:	4b8b      	ldr	r3, [pc, #556]	; (80052b4 <UART_SetConfig+0x2fc>)
 8005088:	f8d3 3090 	ldr.w	r3, [r3, #144]	; 0x90
 800508c:	f003 030c 	and.w	r3, r3, #12
 8005090:	2b0c      	cmp	r3, #12
 8005092:	d829      	bhi.n	80050e8 <UART_SetConfig+0x130>
 8005094:	a201      	add	r2, pc, #4	; (adr r2, 800509c <UART_SetConfig+0xe4>)
 8005096:	f852 f023 	ldr.w	pc, [r2, r3, lsl #2]
 800509a:	bf00      	nop
 800509c:	080050d1 	.word	0x080050d1
 80050a0:	080050e9 	.word	0x080050e9
 80050a4:	080050e9 	.word	0x080050e9
 80050a8:	080050e9 	.word	0x080050e9
 80050ac:	080050dd 	.word	0x080050dd
 80050b0:	080050e9 	.word	0x080050e9
 80050b4:	080050e9 	.word	0x080050e9
 80050b8:	080050e9 	.word	0x080050e9
 80050bc:	080050d7 	.word	0x080050d7
 80050c0:	080050e9 	.word	0x080050e9
 80050c4:	080050e9 	.word	0x080050e9
 80050c8:	080050e9 	.word	0x080050e9
 80050cc:	080050e3 	.word	0x080050e3
 80050d0:	2300      	movs	r3, #0
 80050d2:	77fb      	strb	r3, [r7, #31]
 80050d4:	e117      	b.n	8005306 <UART_SetConfig+0x34e>
 80050d6:	2302      	movs	r3, #2
 80050d8:	77fb      	strb	r3, [r7, #31]
 80050da:	e114      	b.n	8005306 <UART_SetConfig+0x34e>
 80050dc:	2304      	movs	r3, #4
 80050de:	77fb      	strb	r3, [r7, #31]
 80050e0:	e111      	b.n	8005306 <UART_SetConfig+0x34e>
 80050e2:	2308      	movs	r3, #8
 80050e4:	77fb      	strb	r3, [r7, #31]
 80050e6:	e10e      	b.n	8005306 <UART_SetConfig+0x34e>
 80050e8:	2310      	movs	r3, #16
 80050ea:	77fb      	strb	r3, [r7, #31]
 80050ec:	bf00      	nop
 80050ee:	e10a      	b.n	8005306 <UART_SetConfig+0x34e>
 80050f0:	687b      	ldr	r3, [r7, #4]
 80050f2:	681b      	ldr	r3, [r3, #0]
 80050f4:	4a71      	ldr	r2, [pc, #452]	; (80052bc <UART_SetConfig+0x304>)
 80050f6:	4293      	cmp	r3, r2
 80050f8:	d120      	bne.n	800513c <UART_SetConfig+0x184>
 80050fa:	4b6e      	ldr	r3, [pc, #440]	; (80052b4 <UART_SetConfig+0x2fc>)
 80050fc:	f8d3 3090 	ldr.w	r3, [r3, #144]	; 0x90
 8005100:	f003 0330 	and.w	r3, r3, #48	; 0x30
 8005104:	2b10      	cmp	r3, #16
 8005106:	d00f      	beq.n	8005128 <UART_SetConfig+0x170>
 8005108:	2b10      	cmp	r3, #16
 800510a:	d802      	bhi.n	8005112 <UART_SetConfig+0x15a>
 800510c:	2b00      	cmp	r3, #0
 800510e:	d005      	beq.n	800511c <UART_SetConfig+0x164>
 8005110:	e010      	b.n	8005134 <UART_SetConfig+0x17c>
 8005112:	2b20      	cmp	r3, #32
 8005114:	d005      	beq.n	8005122 <UART_SetConfig+0x16a>
 8005116:	2b30      	cmp	r3, #48	; 0x30
 8005118:	d009      	beq.n	800512e <UART_SetConfig+0x176>
 800511a:	e00b      	b.n	8005134 <UART_SetConfig+0x17c>
 800511c:	2300      	movs	r3, #0
 800511e:	77fb      	strb	r3, [r7, #31]
 8005120:	e0f1      	b.n	8005306 <UART_SetConfig+0x34e>
 8005122:	2302      	movs	r3, #2
 8005124:	77fb      	strb	r3, [r7, #31]
 8005126:	e0ee      	b.n	8005306 <UART_SetConfig+0x34e>
 8005128:	2304      	movs	r3, #4
 800512a:	77fb      	strb	r3, [r7, #31]
 800512c:	e0eb      	b.n	8005306 <UART_SetConfig+0x34e>
 800512e:	2308      	movs	r3, #8
 8005130:	77fb      	strb	r3, [r7, #31]
 8005132:	e0e8      	b.n	8005306 <UART_SetConfig+0x34e>
 8005134:	2310      	movs	r3, #16
 8005136:	77fb      	strb	r3, [r7, #31]
 8005138:	bf00      	nop
 800513a:	e0e4      	b.n	8005306 <UART_SetConfig+0x34e>
 800513c:	687b      	ldr	r3, [r7, #4]
 800513e:	681b      	ldr	r3, [r3, #0]
 8005140:	4a5f      	ldr	r2, [pc, #380]	; (80052c0 <UART_SetConfig+0x308>)
 8005142:	4293      	cmp	r3, r2
 8005144:	d120      	bne.n	8005188 <UART_SetConfig+0x1d0>
 8005146:	4b5b      	ldr	r3, [pc, #364]	; (80052b4 <UART_SetConfig+0x2fc>)
 8005148:	f8d3 3090 	ldr.w	r3, [r3, #144]	; 0x90
 800514c:	f003 03c0 	and.w	r3, r3, #192	; 0xc0
 8005150:	2b40      	cmp	r3, #64	; 0x40
 8005152:	d00f      	beq.n	8005174 <UART_SetConfig+0x1bc>
 8005154:	2b40      	cmp	r3, #64	; 0x40
 8005156:	d802      	bhi.n	800515e <UART_SetConfig+0x1a6>
 8005158:	2b00      	cmp	r3, #0
 800515a:	d005      	beq.n	8005168 <UART_SetConfig+0x1b0>
 800515c:	e010      	b.n	8005180 <UART_SetConfig+0x1c8>
 800515e:	2b80      	cmp	r3, #128	; 0x80
 8005160:	d005      	beq.n	800516e <UART_SetConfig+0x1b6>
 8005162:	2bc0      	cmp	r3, #192	; 0xc0
 8005164:	d009      	beq.n	800517a <UART_SetConfig+0x1c2>
 8005166:	e00b      	b.n	8005180 <UART_SetConfig+0x1c8>
 8005168:	2300      	movs	r3, #0
 800516a:	77fb      	strb	r3, [r7, #31]
 800516c:	e0cb      	b.n	8005306 <UART_SetConfig+0x34e>
 800516e:	2302      	movs	r3, #2
 8005170:	77fb      	strb	r3, [r7, #31]
 8005172:	e0c8      	b.n	8005306 <UART_SetConfig+0x34e>
 8005174:	2304      	movs	r3, #4
 8005176:	77fb      	strb	r3, [r7, #31]
 8005178:	e0c5      	b.n	8005306 <UART_SetConfig+0x34e>
 800517a:	2308      	movs	r3, #8
 800517c:	77fb      	strb	r3, [r7, #31]
 800517e:	e0c2      	b.n	8005306 <UART_SetConfig+0x34e>
 8005180:	2310      	movs	r3, #16
 8005182:	77fb      	strb	r3, [r7, #31]
 8005184:	bf00      	nop
 8005186:	e0be      	b.n	8005306 <UART_SetConfig+0x34e>
 8005188:	687b      	ldr	r3, [r7, #4]
 800518a:	681b      	ldr	r3, [r3, #0]
 800518c:	4a4d      	ldr	r2, [pc, #308]	; (80052c4 <UART_SetConfig+0x30c>)
 800518e:	4293      	cmp	r3, r2
 8005190:	d124      	bne.n	80051dc <UART_SetConfig+0x224>
 8005192:	4b48      	ldr	r3, [pc, #288]	; (80052b4 <UART_SetConfig+0x2fc>)
 8005194:	f8d3 3090 	ldr.w	r3, [r3, #144]	; 0x90
 8005198:	f403 7340 	and.w	r3, r3, #768	; 0x300
 800519c:	f5b3 7f80 	cmp.w	r3, #256	; 0x100
 80051a0:	d012      	beq.n	80051c8 <UART_SetConfig+0x210>
 80051a2:	f5b3 7f80 	cmp.w	r3, #256	; 0x100
 80051a6:	d802      	bhi.n	80051ae <UART_SetConfig+0x1f6>
 80051a8:	2b00      	cmp	r3, #0
 80051aa:	d007      	beq.n	80051bc <UART_SetConfig+0x204>
 80051ac:	e012      	b.n	80051d4 <UART_SetConfig+0x21c>
 80051ae:	f5b3 7f00 	cmp.w	r3, #512	; 0x200
 80051b2:	d006      	beq.n	80051c2 <UART_SetConfig+0x20a>
 80051b4:	f5b3 7f40 	cmp.w	r3, #768	; 0x300
 80051b8:	d009      	beq.n	80051ce <UART_SetConfig+0x216>
 80051ba:	e00b      	b.n	80051d4 <UART_SetConfig+0x21c>
 80051bc:	2300      	movs	r3, #0
 80051be:	77fb      	strb	r3, [r7, #31]
 80051c0:	e0a1      	b.n	8005306 <UART_SetConfig+0x34e>
 80051c2:	2302      	movs	r3, #2
 80051c4:	77fb      	strb	r3, [r7, #31]
 80051c6:	e09e      	b.n	8005306 <UART_SetConfig+0x34e>
 80051c8:	2304      	movs	r3, #4
 80051ca:	77fb      	strb	r3, [r7, #31]
 80051cc:	e09b      	b.n	8005306 <UART_SetConfig+0x34e>
 80051ce:	2308      	movs	r3, #8
 80051d0:	77fb      	strb	r3, [r7, #31]
 80051d2:	e098      	b.n	8005306 <UART_SetConfig+0x34e>
 80051d4:	2310      	movs	r3, #16
 80051d6:	77fb      	strb	r3, [r7, #31]
 80051d8:	bf00      	nop
 80051da:	e094      	b.n	8005306 <UART_SetConfig+0x34e>
 80051dc:	687b      	ldr	r3, [r7, #4]
 80051de:	681b      	ldr	r3, [r3, #0]
 80051e0:	4a39      	ldr	r2, [pc, #228]	; (80052c8 <UART_SetConfig+0x310>)
 80051e2:	4293      	cmp	r3, r2
 80051e4:	d124      	bne.n	8005230 <UART_SetConfig+0x278>
 80051e6:	4b33      	ldr	r3, [pc, #204]	; (80052b4 <UART_SetConfig+0x2fc>)
 80051e8:	f8d3 3090 	ldr.w	r3, [r3, #144]	; 0x90
 80051ec:	f403 6340 	and.w	r3, r3, #3072	; 0xc00
 80051f0:	f5b3 6f80 	cmp.w	r3, #1024	; 0x400
 80051f4:	d012      	beq.n	800521c <UART_SetConfig+0x264>
 80051f6:	f5b3 6f80 	cmp.w	r3, #1024	; 0x400
 80051fa:	d802      	bhi.n	8005202 <UART_SetConfig+0x24a>
 80051fc:	2b00      	cmp	r3, #0
 80051fe:	d007      	beq.n	8005210 <UART_SetConfig+0x258>
 8005200:	e012      	b.n	8005228 <UART_SetConfig+0x270>
 8005202:	f5b3 6f00 	cmp.w	r3, #2048	; 0x800
 8005206:	d006      	beq.n	8005216 <UART_SetConfig+0x25e>
 8005208:	f5b3 6f40 	cmp.w	r3, #3072	; 0xc00
 800520c:	d009      	beq.n	8005222 <UART_SetConfig+0x26a>
 800520e:	e00b      	b.n	8005228 <UART_SetConfig+0x270>
 8005210:	2301      	movs	r3, #1
 8005212:	77fb      	strb	r3, [r7, #31]
 8005214:	e077      	b.n	8005306 <UART_SetConfig+0x34e>
 8005216:	2302      	movs	r3, #2
 8005218:	77fb      	strb	r3, [r7, #31]
 800521a:	e074      	b.n	8005306 <UART_SetConfig+0x34e>
 800521c:	2304      	movs	r3, #4
 800521e:	77fb      	strb	r3, [r7, #31]
 8005220:	e071      	b.n	8005306 <UART_SetConfig+0x34e>
 8005222:	2308      	movs	r3, #8
 8005224:	77fb      	strb	r3, [r7, #31]
 8005226:	e06e      	b.n	8005306 <UART_SetConfig+0x34e>
 8005228:	2310      	movs	r3, #16
 800522a:	77fb      	strb	r3, [r7, #31]
 800522c:	bf00      	nop
 800522e:	e06a      	b.n	8005306 <UART_SetConfig+0x34e>
 8005230:	687b      	ldr	r3, [r7, #4]
 8005232:	681b      	ldr	r3, [r3, #0]
 8005234:	4a25      	ldr	r2, [pc, #148]	; (80052cc <UART_SetConfig+0x314>)
 8005236:	4293      	cmp	r3, r2
 8005238:	d124      	bne.n	8005284 <UART_SetConfig+0x2cc>
 800523a:	4b1e      	ldr	r3, [pc, #120]	; (80052b4 <UART_SetConfig+0x2fc>)
 800523c:	f8d3 3090 	ldr.w	r3, [r3, #144]	; 0x90
 8005240:	f403 5340 	and.w	r3, r3, #12288	; 0x3000
 8005244:	f5b3 5f80 	cmp.w	r3, #4096	; 0x1000
 8005248:	d012      	beq.n	8005270 <UART_SetConfig+0x2b8>
 800524a:	f5b3 5f80 	cmp.w	r3, #4096	; 0x1000
 800524e:	d802      	bhi.n	8005256 <UART_SetConfig+0x29e>
 8005250:	2b00      	cmp	r3, #0
 8005252:	d007      	beq.n	8005264 <UART_SetConfig+0x2ac>
 8005254:	e012      	b.n	800527c <UART_SetConfig+0x2c4>
 8005256:	f5b3 5f00 	cmp.w	r3, #8192	; 0x2000
 800525a:	d006      	beq.n	800526a <UART_SetConfig+0x2b2>
 800525c:	f5b3 5f40 	cmp.w	r3, #12288	; 0x3000
 8005260:	d009      	beq.n	8005276 <UART_SetConfig+0x2be>
 8005262:	e00b      	b.n	800527c <UART_SetConfig+0x2c4>
 8005264:	2300      	movs	r3, #0
 8005266:	77fb      	strb	r3, [r7, #31]
 8005268:	e04d      	b.n	8005306 <UART_SetConfig+0x34e>
 800526a:	2302      	movs	r3, #2
 800526c:	77fb      	strb	r3, [r7, #31]
 800526e:	e04a      	b.n	8005306 <UART_SetConfig+0x34e>
 8005270:	2304      	movs	r3, #4
 8005272:	77fb      	strb	r3, [r7, #31]
 8005274:	e047      	b.n	8005306 <UART_SetConfig+0x34e>
 8005276:	2308      	movs	r3, #8
 8005278:	77fb      	strb	r3, [r7, #31]
 800527a:	e044      	b.n	8005306 <UART_SetConfig+0x34e>
 800527c:	2310      	movs	r3, #16
 800527e:	77fb      	strb	r3, [r7, #31]
 8005280:	bf00      	nop
 8005282:	e040      	b.n	8005306 <UART_SetConfig+0x34e>
 8005284:	687b      	ldr	r3, [r7, #4]
 8005286:	681b      	ldr	r3, [r3, #0]
 8005288:	4a11      	ldr	r2, [pc, #68]	; (80052d0 <UART_SetConfig+0x318>)
 800528a:	4293      	cmp	r3, r2
 800528c:	d139      	bne.n	8005302 <UART_SetConfig+0x34a>
 800528e:	4b09      	ldr	r3, [pc, #36]	; (80052b4 <UART_SetConfig+0x2fc>)
 8005290:	f8d3 3090 	ldr.w	r3, [r3, #144]	; 0x90
 8005294:	f403 4340 	and.w	r3, r3, #49152	; 0xc000
 8005298:	f5b3 4f80 	cmp.w	r3, #16384	; 0x4000
 800529c:	d027      	beq.n	80052ee <UART_SetConfig+0x336>
 800529e:	f5b3 4f80 	cmp.w	r3, #16384	; 0x4000
 80052a2:	d817      	bhi.n	80052d4 <UART_SetConfig+0x31c>
 80052a4:	2b00      	cmp	r3, #0
 80052a6:	d01c      	beq.n	80052e2 <UART_SetConfig+0x32a>
 80052a8:	e027      	b.n	80052fa <UART_SetConfig+0x342>
 80052aa:	bf00      	nop
 80052ac:	efff69f3 	.word	0xefff69f3
 80052b0:	40011000 	.word	0x40011000
 80052b4:	40023800 	.word	0x40023800
 80052b8:	40004400 	.word	0x40004400
 80052bc:	40004800 	.word	0x40004800
 80052c0:	40004c00 	.word	0x40004c00
 80052c4:	40005000 	.word	0x40005000
 80052c8:	40011400 	.word	0x40011400
 80052cc:	40007800 	.word	0x40007800
 80052d0:	40007c00 	.word	0x40007c00
 80052d4:	f5b3 4f00 	cmp.w	r3, #32768	; 0x8000
 80052d8:	d006      	beq.n	80052e8 <UART_SetConfig+0x330>
 80052da:	f5b3 4f40 	cmp.w	r3, #49152	; 0xc000
 80052de:	d009      	beq.n	80052f4 <UART_SetConfig+0x33c>
 80052e0:	e00b      	b.n	80052fa <UART_SetConfig+0x342>
 80052e2:	2300      	movs	r3, #0
 80052e4:	77fb      	strb	r3, [r7, #31]
 80052e6:	e00e      	b.n	8005306 <UART_SetConfig+0x34e>
 80052e8:	2302      	movs	r3, #2
 80052ea:	77fb      	strb	r3, [r7, #31]
 80052ec:	e00b      	b.n	8005306 <UART_SetConfig+0x34e>
 80052ee:	2304      	movs	r3, #4
 80052f0:	77fb      	strb	r3, [r7, #31]
 80052f2:	e008      	b.n	8005306 <UART_SetConfig+0x34e>
 80052f4:	2308      	movs	r3, #8
 80052f6:	77fb      	strb	r3, [r7, #31]
 80052f8:	e005      	b.n	8005306 <UART_SetConfig+0x34e>
 80052fa:	2310      	movs	r3, #16
 80052fc:	77fb      	strb	r3, [r7, #31]
 80052fe:	bf00      	nop
 8005300:	e001      	b.n	8005306 <UART_SetConfig+0x34e>
 8005302:	2310      	movs	r3, #16
 8005304:	77fb      	strb	r3, [r7, #31]
 8005306:	687b      	ldr	r3, [r7, #4]
 8005308:	69db      	ldr	r3, [r3, #28]
 800530a:	f5b3 4f00 	cmp.w	r3, #32768	; 0x8000
 800530e:	d17c      	bne.n	800540a <UART_SetConfig+0x452>
 8005310:	7ffb      	ldrb	r3, [r7, #31]
 8005312:	2b08      	cmp	r3, #8
 8005314:	d859      	bhi.n	80053ca <UART_SetConfig+0x412>
 8005316:	a201      	add	r2, pc, #4	; (adr r2, 800531c <UART_SetConfig+0x364>)
 8005318:	f852 f023 	ldr.w	pc, [r2, r3, lsl #2]
 800531c:	08005341 	.word	0x08005341
 8005320:	0800535f 	.word	0x0800535f
 8005324:	0800537d 	.word	0x0800537d
 8005328:	080053cb 	.word	0x080053cb
 800532c:	08005395 	.word	0x08005395
 8005330:	080053cb 	.word	0x080053cb
 8005334:	080053cb 	.word	0x080053cb
 8005338:	080053cb 	.word	0x080053cb
 800533c:	080053b3 	.word	0x080053b3
 8005340:	f7fe f812 	bl	8003368 <HAL_RCC_GetPCLK1Freq>
 8005344:	4603      	mov	r3, r0
 8005346:	005a      	lsls	r2, r3, #1
 8005348:	687b      	ldr	r3, [r7, #4]
 800534a:	685b      	ldr	r3, [r3, #4]
 800534c:	085b      	lsrs	r3, r3, #1
 800534e:	441a      	add	r2, r3
 8005350:	687b      	ldr	r3, [r7, #4]
 8005352:	685b      	ldr	r3, [r3, #4]
 8005354:	fbb2 f3f3 	udiv	r3, r2, r3
 8005358:	b29b      	uxth	r3, r3
 800535a:	61bb      	str	r3, [r7, #24]
 800535c:	e038      	b.n	80053d0 <UART_SetConfig+0x418>
 800535e:	f7fe f817 	bl	8003390 <HAL_RCC_GetPCLK2Freq>
 8005362:	4603      	mov	r3, r0
 8005364:	005a      	lsls	r2, r3, #1
 8005366:	687b      	ldr	r3, [r7, #4]
 8005368:	685b      	ldr	r3, [r3, #4]
 800536a:	085b      	lsrs	r3, r3, #1
 800536c:	441a      	add	r2, r3
 800536e:	687b      	ldr	r3, [r7, #4]
 8005370:	685b      	ldr	r3, [r3, #4]
 8005372:	fbb2 f3f3 	udiv	r3, r2, r3
 8005376:	b29b      	uxth	r3, r3
 8005378:	61bb      	str	r3, [r7, #24]
 800537a:	e029      	b.n	80053d0 <UART_SetConfig+0x418>
 800537c:	687b      	ldr	r3, [r7, #4]
 800537e:	685b      	ldr	r3, [r3, #4]
 8005380:	085a      	lsrs	r2, r3, #1
 8005382:	4b5d      	ldr	r3, [pc, #372]	; (80054f8 <UART_SetConfig+0x540>)
 8005384:	4413      	add	r3, r2
 8005386:	687a      	ldr	r2, [r7, #4]
 8005388:	6852      	ldr	r2, [r2, #4]
 800538a:	fbb3 f3f2 	udiv	r3, r3, r2
 800538e:	b29b      	uxth	r3, r3
 8005390:	61bb      	str	r3, [r7, #24]
 8005392:	e01d      	b.n	80053d0 <UART_SetConfig+0x418>
 8005394:	f7fd ff04 	bl	80031a0 <HAL_RCC_GetSysClockFreq>
 8005398:	4603      	mov	r3, r0
 800539a:	005a      	lsls	r2, r3, #1
 800539c:	687b      	ldr	r3, [r7, #4]
 800539e:	685b      	ldr	r3, [r3, #4]
 80053a0:	085b      	lsrs	r3, r3, #1
 80053a2:	441a      	add	r2, r3
 80053a4:	687b      	ldr	r3, [r7, #4]
 80053a6:	685b      	ldr	r3, [r3, #4]
 80053a8:	fbb2 f3f3 	udiv	r3, r2, r3
 80053ac:	b29b      	uxth	r3, r3
 80053ae:	61bb      	str	r3, [r7, #24]
 80053b0:	e00e      	b.n	80053d0 <UART_SetConfig+0x418>
 80053b2:	687b      	ldr	r3, [r7, #4]
 80053b4:	685b      	ldr	r3, [r3, #4]
 80053b6:	085b      	lsrs	r3, r3, #1
 80053b8:	f503 3280 	add.w	r2, r3, #65536	; 0x10000
 80053bc:	687b      	ldr	r3, [r7, #4]
 80053be:	685b      	ldr	r3, [r3, #4]
 80053c0:	fbb2 f3f3 	udiv	r3, r2, r3
 80053c4:	b29b      	uxth	r3, r3
 80053c6:	61bb      	str	r3, [r7, #24]
 80053c8:	e002      	b.n	80053d0 <UART_SetConfig+0x418>
 80053ca:	2301      	movs	r3, #1
 80053cc:	75fb      	strb	r3, [r7, #23]
 80053ce:	bf00      	nop
 80053d0:	69bb      	ldr	r3, [r7, #24]
 80053d2:	2b0f      	cmp	r3, #15
 80053d4:	d916      	bls.n	8005404 <UART_SetConfig+0x44c>
 80053d6:	69bb      	ldr	r3, [r7, #24]
 80053d8:	f5b3 3f80 	cmp.w	r3, #65536	; 0x10000
 80053dc:	d212      	bcs.n	8005404 <UART_SetConfig+0x44c>
 80053de:	69bb      	ldr	r3, [r7, #24]
 80053e0:	b29b      	uxth	r3, r3
 80053e2:	f023 030f 	bic.w	r3, r3, #15
 80053e6:	81fb      	strh	r3, [r7, #14]
 80053e8:	69bb      	ldr	r3, [r7, #24]
 80053ea:	085b      	lsrs	r3, r3, #1
 80053ec:	b29b      	uxth	r3, r3
 80053ee:	f003 0307 	and.w	r3, r3, #7
 80053f2:	b29a      	uxth	r2, r3
 80053f4:	89fb      	ldrh	r3, [r7, #14]
 80053f6:	4313      	orrs	r3, r2
 80053f8:	81fb      	strh	r3, [r7, #14]
 80053fa:	687b      	ldr	r3, [r7, #4]
 80053fc:	681b      	ldr	r3, [r3, #0]
 80053fe:	89fa      	ldrh	r2, [r7, #14]
 8005400:	60da      	str	r2, [r3, #12]
 8005402:	e06e      	b.n	80054e2 <UART_SetConfig+0x52a>
 8005404:	2301      	movs	r3, #1
 8005406:	75fb      	strb	r3, [r7, #23]
 8005408:	e06b      	b.n	80054e2 <UART_SetConfig+0x52a>
 800540a:	7ffb      	ldrb	r3, [r7, #31]
 800540c:	2b08      	cmp	r3, #8
 800540e:	d857      	bhi.n	80054c0 <UART_SetConfig+0x508>
 8005410:	a201      	add	r2, pc, #4	; (adr r2, 8005418 <UART_SetConfig+0x460>)
 8005412:	f852 f023 	ldr.w	pc, [r2, r3, lsl #2]
 8005416:	bf00      	nop
 8005418:	0800543d 	.word	0x0800543d
 800541c:	08005459 	.word	0x08005459
 8005420:	08005475 	.word	0x08005475
 8005424:	080054c1 	.word	0x080054c1
 8005428:	0800548d 	.word	0x0800548d
 800542c:	080054c1 	.word	0x080054c1
 8005430:	080054c1 	.word	0x080054c1
 8005434:	080054c1 	.word	0x080054c1
 8005438:	080054a9 	.word	0x080054a9
 800543c:	f7fd ff94 	bl	8003368 <HAL_RCC_GetPCLK1Freq>
 8005440:	4602      	mov	r2, r0
 8005442:	687b      	ldr	r3, [r7, #4]
 8005444:	685b      	ldr	r3, [r3, #4]
 8005446:	085b      	lsrs	r3, r3, #1
 8005448:	441a      	add	r2, r3
 800544a:	687b      	ldr	r3, [r7, #4]
 800544c:	685b      	ldr	r3, [r3, #4]
 800544e:	fbb2 f3f3 	udiv	r3, r2, r3
 8005452:	b29b      	uxth	r3, r3
 8005454:	61bb      	str	r3, [r7, #24]
 8005456:	e036      	b.n	80054c6 <UART_SetConfig+0x50e>
 8005458:	f7fd ff9a 	bl	8003390 <HAL_RCC_GetPCLK2Freq>
 800545c:	4602      	mov	r2, r0
 800545e:	687b      	ldr	r3, [r7, #4]
 8005460:	685b      	ldr	r3, [r3, #4]
 8005462:	085b      	lsrs	r3, r3, #1
 8005464:	441a      	add	r2, r3
 8005466:	687b      	ldr	r3, [r7, #4]
 8005468:	685b      	ldr	r3, [r3, #4]
 800546a:	fbb2 f3f3 	udiv	r3, r2, r3
 800546e:	b29b      	uxth	r3, r3
 8005470:	61bb      	str	r3, [r7, #24]
 8005472:	e028      	b.n	80054c6 <UART_SetConfig+0x50e>
 8005474:	687b      	ldr	r3, [r7, #4]
 8005476:	685b      	ldr	r3, [r3, #4]
 8005478:	085a      	lsrs	r2, r3, #1
 800547a:	4b20      	ldr	r3, [pc, #128]	; (80054fc <UART_SetConfig+0x544>)
 800547c:	4413      	add	r3, r2
 800547e:	687a      	ldr	r2, [r7, #4]
 8005480:	6852      	ldr	r2, [r2, #4]
 8005482:	fbb3 f3f2 	udiv	r3, r3, r2
 8005486:	b29b      	uxth	r3, r3
 8005488:	61bb      	str	r3, [r7, #24]
 800548a:	e01c      	b.n	80054c6 <UART_SetConfig+0x50e>
 800548c:	f7fd fe88 	bl	80031a0 <HAL_RCC_GetSysClockFreq>
 8005490:	4602      	mov	r2, r0
 8005492:	687b      	ldr	r3, [r7, #4]
 8005494:	685b      	ldr	r3, [r3, #4]
 8005496:	085b      	lsrs	r3, r3, #1
 8005498:	441a      	add	r2, r3
 800549a:	687b      	ldr	r3, [r7, #4]
 800549c:	685b      	ldr	r3, [r3, #4]
 800549e:	fbb2 f3f3 	udiv	r3, r2, r3
 80054a2:	b29b      	uxth	r3, r3
 80054a4:	61bb      	str	r3, [r7, #24]
 80054a6:	e00e      	b.n	80054c6 <UART_SetConfig+0x50e>
 80054a8:	687b      	ldr	r3, [r7, #4]
 80054aa:	685b      	ldr	r3, [r3, #4]
 80054ac:	085b      	lsrs	r3, r3, #1
 80054ae:	f503 4200 	add.w	r2, r3, #32768	; 0x8000
 80054b2:	687b      	ldr	r3, [r7, #4]
 80054b4:	685b      	ldr	r3, [r3, #4]
 80054b6:	fbb2 f3f3 	udiv	r3, r2, r3
 80054ba:	b29b      	uxth	r3, r3
 80054bc:	61bb      	str	r3, [r7, #24]
 80054be:	e002      	b.n	80054c6 <UART_SetConfig+0x50e>
 80054c0:	2301      	movs	r3, #1
 80054c2:	75fb      	strb	r3, [r7, #23]
 80054c4:	bf00      	nop
 80054c6:	69bb      	ldr	r3, [r7, #24]
 80054c8:	2b0f      	cmp	r3, #15
 80054ca:	d908      	bls.n	80054de <UART_SetConfig+0x526>
 80054cc:	69bb      	ldr	r3, [r7, #24]
 80054ce:	f5b3 3f80 	cmp.w	r3, #65536	; 0x10000
 80054d2:	d204      	bcs.n	80054de <UART_SetConfig+0x526>
 80054d4:	687b      	ldr	r3, [r7, #4]
 80054d6:	681b      	ldr	r3, [r3, #0]
 80054d8:	69ba      	ldr	r2, [r7, #24]
 80054da:	60da      	str	r2, [r3, #12]
 80054dc:	e001      	b.n	80054e2 <UART_SetConfig+0x52a>
 80054de:	2301      	movs	r3, #1
 80054e0:	75fb      	strb	r3, [r7, #23]
 80054e2:	687b      	ldr	r3, [r7, #4]
 80054e4:	2200      	movs	r2, #0
 80054e6:	661a      	str	r2, [r3, #96]	; 0x60
 80054e8:	687b      	ldr	r3, [r7, #4]
 80054ea:	2200      	movs	r2, #0
 80054ec:	665a      	str	r2, [r3, #100]	; 0x64
 80054ee:	7dfb      	ldrb	r3, [r7, #23]
 80054f0:	4618      	mov	r0, r3
 80054f2:	3720      	adds	r7, #32
 80054f4:	46bd      	mov	sp, r7
 80054f6:	bd80      	pop	{r7, pc}
 80054f8:	01e84800 	.word	0x01e84800
 80054fc:	00f42400 	.word	0x00f42400

08005500 <UART_AdvFeatureConfig>:
 8005500:	b480      	push	{r7}
 8005502:	b083      	sub	sp, #12
 8005504:	af00      	add	r7, sp, #0
 8005506:	6078      	str	r0, [r7, #4]
 8005508:	687b      	ldr	r3, [r7, #4]
 800550a:	6a5b      	ldr	r3, [r3, #36]	; 0x24
 800550c:	f003 0301 	and.w	r3, r3, #1
 8005510:	2b00      	cmp	r3, #0
 8005512:	d00a      	beq.n	800552a <UART_AdvFeatureConfig+0x2a>
 8005514:	687b      	ldr	r3, [r7, #4]
 8005516:	681b      	ldr	r3, [r3, #0]
 8005518:	685b      	ldr	r3, [r3, #4]
 800551a:	f423 3100 	bic.w	r1, r3, #131072	; 0x20000
 800551e:	687b      	ldr	r3, [r7, #4]
 8005520:	6a9a      	ldr	r2, [r3, #40]	; 0x28
 8005522:	687b      	ldr	r3, [r7, #4]
 8005524:	681b      	ldr	r3, [r3, #0]
 8005526:	430a      	orrs	r2, r1
 8005528:	605a      	str	r2, [r3, #4]
 800552a:	687b      	ldr	r3, [r7, #4]
 800552c:	6a5b      	ldr	r3, [r3, #36]	; 0x24
 800552e:	f003 0302 	and.w	r3, r3, #2
 8005532:	2b00      	cmp	r3, #0
 8005534:	d00a      	beq.n	800554c <UART_AdvFeatureConfig+0x4c>
 8005536:	687b      	ldr	r3, [r7, #4]
 8005538:	681b      	ldr	r3, [r3, #0]
 800553a:	685b      	ldr	r3, [r3, #4]
 800553c:	f423 3180 	bic.w	r1, r3, #65536	; 0x10000
 8005540:	687b      	ldr	r3, [r7, #4]
 8005542:	6ada      	ldr	r2, [r3, #44]	; 0x2c
 8005544:	687b      	ldr	r3, [r7, #4]
 8005546:	681b      	ldr	r3, [r3, #0]
 8005548:	430a      	orrs	r2, r1
 800554a:	605a      	str	r2, [r3, #4]
 800554c:	687b      	ldr	r3, [r7, #4]
 800554e:	6a5b      	ldr	r3, [r3, #36]	; 0x24
 8005550:	f003 0304 	and.w	r3, r3, #4
 8005554:	2b00      	cmp	r3, #0
 8005556:	d00a      	beq.n	800556e <UART_AdvFeatureConfig+0x6e>
 8005558:	687b      	ldr	r3, [r7, #4]
 800555a:	681b      	ldr	r3, [r3, #0]
 800555c:	685b      	ldr	r3, [r3, #4]
 800555e:	f423 2180 	bic.w	r1, r3, #262144	; 0x40000
 8005562:	687b      	ldr	r3, [r7, #4]
 8005564:	6b1a      	ldr	r2, [r3, #48]	; 0x30
 8005566:	687b      	ldr	r3, [r7, #4]
 8005568:	681b      	ldr	r3, [r3, #0]
 800556a:	430a      	orrs	r2, r1
 800556c:	605a      	str	r2, [r3, #4]
 800556e:	687b      	ldr	r3, [r7, #4]
 8005570:	6a5b      	ldr	r3, [r3, #36]	; 0x24
 8005572:	f003 0308 	and.w	r3, r3, #8
 8005576:	2b00      	cmp	r3, #0
 8005578:	d00a      	beq.n	8005590 <UART_AdvFeatureConfig+0x90>
 800557a:	687b      	ldr	r3, [r7, #4]
 800557c:	681b      	ldr	r3, [r3, #0]
 800557e:	685b      	ldr	r3, [r3, #4]
 8005580:	f423 4100 	bic.w	r1, r3, #32768	; 0x8000
 8005584:	687b      	ldr	r3, [r7, #4]
 8005586:	6b5a      	ldr	r2, [r3, #52]	; 0x34
 8005588:	687b      	ldr	r3, [r7, #4]
 800558a:	681b      	ldr	r3, [r3, #0]
 800558c:	430a      	orrs	r2, r1
 800558e:	605a      	str	r2, [r3, #4]
 8005590:	687b      	ldr	r3, [r7, #4]
 8005592:	6a5b      	ldr	r3, [r3, #36]	; 0x24
 8005594:	f003 0310 	and.w	r3, r3, #16
 8005598:	2b00      	cmp	r3, #0
 800559a:	d00a      	beq.n	80055b2 <UART_AdvFeatureConfig+0xb2>
 800559c:	687b      	ldr	r3, [r7, #4]
 800559e:	681b      	ldr	r3, [r3, #0]
 80055a0:	689b      	ldr	r3, [r3, #8]
 80055a2:	f423 5180 	bic.w	r1, r3, #4096	; 0x1000
 80055a6:	687b      	ldr	r3, [r7, #4]
 80055a8:	6b9a      	ldr	r2, [r3, #56]	; 0x38
 80055aa:	687b      	ldr	r3, [r7, #4]
 80055ac:	681b      	ldr	r3, [r3, #0]
 80055ae:	430a      	orrs	r2, r1
 80055b0:	609a      	str	r2, [r3, #8]
 80055b2:	687b      	ldr	r3, [r7, #4]
 80055b4:	6a5b      	ldr	r3, [r3, #36]	; 0x24
 80055b6:	f003 0320 	and.w	r3, r3, #32
 80055ba:	2b00      	cmp	r3, #0
 80055bc:	d00a      	beq.n	80055d4 <UART_AdvFeatureConfig+0xd4>
 80055be:	687b      	ldr	r3, [r7, #4]
 80055c0:	681b      	ldr	r3, [r3, #0]
 80055c2:	689b      	ldr	r3, [r3, #8]
 80055c4:	f423 5100 	bic.w	r1, r3, #8192	; 0x2000
 80055c8:	687b      	ldr	r3, [r7, #4]
 80055ca:	6bda      	ldr	r2, [r3, #60]	; 0x3c
 80055cc:	687b      	ldr	r3, [r7, #4]
 80055ce:	681b      	ldr	r3, [r3, #0]
 80055d0:	430a      	orrs	r2, r1
 80055d2:	609a      	str	r2, [r3, #8]
 80055d4:	687b      	ldr	r3, [r7, #4]
 80055d6:	6a5b      	ldr	r3, [r3, #36]	; 0x24
 80055d8:	f003 0340 	and.w	r3, r3, #64	; 0x40
 80055dc:	2b00      	cmp	r3, #0
 80055de:	d01a      	beq.n	8005616 <UART_AdvFeatureConfig+0x116>
 80055e0:	687b      	ldr	r3, [r7, #4]
 80055e2:	681b      	ldr	r3, [r3, #0]
 80055e4:	685b      	ldr	r3, [r3, #4]
 80055e6:	f423 1180 	bic.w	r1, r3, #1048576	; 0x100000
 80055ea:	687b      	ldr	r3, [r7, #4]
 80055ec:	6c1a      	ldr	r2, [r3, #64]	; 0x40
 80055ee:	687b      	ldr	r3, [r7, #4]
 80055f0:	681b      	ldr	r3, [r3, #0]
 80055f2:	430a      	orrs	r2, r1
 80055f4:	605a      	str	r2, [r3, #4]
 80055f6:	687b      	ldr	r3, [r7, #4]
 80055f8:	6c1b      	ldr	r3, [r3, #64]	; 0x40
 80055fa:	f5b3 1f80 	cmp.w	r3, #1048576	; 0x100000
 80055fe:	d10a      	bne.n	8005616 <UART_AdvFeatureConfig+0x116>
 8005600:	687b      	ldr	r3, [r7, #4]
 8005602:	681b      	ldr	r3, [r3, #0]
 8005604:	685b      	ldr	r3, [r3, #4]
 8005606:	f423 01c0 	bic.w	r1, r3, #6291456	; 0x600000
 800560a:	687b      	ldr	r3, [r7, #4]
 800560c:	6c5a      	ldr	r2, [r3, #68]	; 0x44
 800560e:	687b      	ldr	r3, [r7, #4]
 8005610:	681b      	ldr	r3, [r3, #0]
 8005612:	430a      	orrs	r2, r1
 8005614:	605a      	str	r2, [r3, #4]
 8005616:	687b      	ldr	r3, [r7, #4]
 8005618:	6a5b      	ldr	r3, [r3, #36]	; 0x24
 800561a:	f003 0380 	and.w	r3, r3, #128	; 0x80
 800561e:	2b00      	cmp	r3, #0
 8005620:	d00a      	beq.n	8005638 <UART_AdvFeatureConfig+0x138>
 8005622:	687b      	ldr	r3, [r7, #4]
 8005624:	681b      	ldr	r3, [r3, #0]
 8005626:	685b      	ldr	r3, [r3, #4]
 8005628:	f423 2100 	bic.w	r1, r3, #524288	; 0x80000
 800562c:	687b      	ldr	r3, [r7, #4]
 800562e:	6c9a      	ldr	r2, [r3, #72]	; 0x48
 8005630:	687b      	ldr	r3, [r7, #4]
 8005632:	681b      	ldr	r3, [r3, #0]
 8005634:	430a      	orrs	r2, r1
 8005636:	605a      	str	r2, [r3, #4]
 8005638:	bf00      	nop
 800563a:	370c      	adds	r7, #12
 800563c:	46bd      	mov	sp, r7
 800563e:	f85d 7b04 	ldr.w	r7, [sp], #4
 8005642:	4770      	bx	lr

08005644 <UART_CheckIdleState>:
 8005644:	b580      	push	{r7, lr}
 8005646:	b086      	sub	sp, #24
 8005648:	af02      	add	r7, sp, #8
 800564a:	6078      	str	r0, [r7, #4]
 800564c:	687b      	ldr	r3, [r7, #4]
 800564e:	2200      	movs	r2, #0
 8005650:	67da      	str	r2, [r3, #124]	; 0x7c
 8005652:	f7fb fbf5 	bl	8000e40 <HAL_GetTick>
 8005656:	60f8      	str	r0, [r7, #12]
 8005658:	687b      	ldr	r3, [r7, #4]
 800565a:	681b      	ldr	r3, [r3, #0]
 800565c:	681b      	ldr	r3, [r3, #0]
 800565e:	f003 0308 	and.w	r3, r3, #8
 8005662:	2b08      	cmp	r3, #8
 8005664:	d10e      	bne.n	8005684 <UART_CheckIdleState+0x40>
 8005666:	f06f 437e 	mvn.w	r3, #4261412864	; 0xfe000000
 800566a:	9300      	str	r3, [sp, #0]
 800566c:	68fb      	ldr	r3, [r7, #12]
 800566e:	2200      	movs	r2, #0
 8005670:	f44f 1100 	mov.w	r1, #2097152	; 0x200000
 8005674:	6878      	ldr	r0, [r7, #4]
 8005676:	f000 f814 	bl	80056a2 <UART_WaitOnFlagUntilTimeout>
 800567a:	4603      	mov	r3, r0
 800567c:	2b00      	cmp	r3, #0
 800567e:	d001      	beq.n	8005684 <UART_CheckIdleState+0x40>
 8005680:	2303      	movs	r3, #3
 8005682:	e00a      	b.n	800569a <UART_CheckIdleState+0x56>
 8005684:	687b      	ldr	r3, [r7, #4]
 8005686:	2220      	movs	r2, #32
 8005688:	675a      	str	r2, [r3, #116]	; 0x74
 800568a:	687b      	ldr	r3, [r7, #4]
 800568c:	2220      	movs	r2, #32
 800568e:	679a      	str	r2, [r3, #120]	; 0x78
 8005690:	687b      	ldr	r3, [r7, #4]
 8005692:	2200      	movs	r2, #0
 8005694:	f883 2070 	strb.w	r2, [r3, #112]	; 0x70
 8005698:	2300      	movs	r3, #0
 800569a:	4618      	mov	r0, r3
 800569c:	3710      	adds	r7, #16
 800569e:	46bd      	mov	sp, r7
 80056a0:	bd80      	pop	{r7, pc}

080056a2 <UART_WaitOnFlagUntilTimeout>:
 80056a2:	b580      	push	{r7, lr}
 80056a4:	b084      	sub	sp, #16
 80056a6:	af00      	add	r7, sp, #0
 80056a8:	60f8      	str	r0, [r7, #12]
 80056aa:	60b9      	str	r1, [r7, #8]
 80056ac:	603b      	str	r3, [r7, #0]
 80056ae:	4613      	mov	r3, r2
 80056b0:	71fb      	strb	r3, [r7, #7]
 80056b2:	e02a      	b.n	800570a <UART_WaitOnFlagUntilTimeout+0x68>
 80056b4:	69bb      	ldr	r3, [r7, #24]
 80056b6:	f1b3 3fff 	cmp.w	r3, #4294967295
 80056ba:	d026      	beq.n	800570a <UART_WaitOnFlagUntilTimeout+0x68>
 80056bc:	f7fb fbc0 	bl	8000e40 <HAL_GetTick>
 80056c0:	4602      	mov	r2, r0
 80056c2:	683b      	ldr	r3, [r7, #0]
 80056c4:	1ad3      	subs	r3, r2, r3
 80056c6:	69ba      	ldr	r2, [r7, #24]
 80056c8:	429a      	cmp	r2, r3
 80056ca:	d302      	bcc.n	80056d2 <UART_WaitOnFlagUntilTimeout+0x30>
 80056cc:	69bb      	ldr	r3, [r7, #24]
 80056ce:	2b00      	cmp	r3, #0
 80056d0:	d11b      	bne.n	800570a <UART_WaitOnFlagUntilTimeout+0x68>
 80056d2:	68fb      	ldr	r3, [r7, #12]
 80056d4:	681b      	ldr	r3, [r3, #0]
 80056d6:	681a      	ldr	r2, [r3, #0]
 80056d8:	68fb      	ldr	r3, [r7, #12]
 80056da:	681b      	ldr	r3, [r3, #0]
 80056dc:	f422 72d0 	bic.w	r2, r2, #416	; 0x1a0
 80056e0:	601a      	str	r2, [r3, #0]
 80056e2:	68fb      	ldr	r3, [r7, #12]
 80056e4:	681b      	ldr	r3, [r3, #0]
 80056e6:	689a      	ldr	r2, [r3, #8]
 80056e8:	68fb      	ldr	r3, [r7, #12]
 80056ea:	681b      	ldr	r3, [r3, #0]
 80056ec:	f022 0201 	bic.w	r2, r2, #1
 80056f0:	609a      	str	r2, [r3, #8]
 80056f2:	68fb      	ldr	r3, [r7, #12]
 80056f4:	2220      	movs	r2, #32
 80056f6:	675a      	str	r2, [r3, #116]	; 0x74
 80056f8:	68fb      	ldr	r3, [r7, #12]
 80056fa:	2220      	movs	r2, #32
 80056fc:	679a      	str	r2, [r3, #120]	; 0x78
 80056fe:	68fb      	ldr	r3, [r7, #12]
 8005700:	2200      	movs	r2, #0
 8005702:	f883 2070 	strb.w	r2, [r3, #112]	; 0x70
 8005706:	2303      	movs	r3, #3
 8005708:	e00f      	b.n	800572a <UART_WaitOnFlagUntilTimeout+0x88>
 800570a:	68fb      	ldr	r3, [r7, #12]
 800570c:	681b      	ldr	r3, [r3, #0]
 800570e:	69da      	ldr	r2, [r3, #28]
 8005710:	68bb      	ldr	r3, [r7, #8]
 8005712:	4013      	ands	r3, r2
 8005714:	68ba      	ldr	r2, [r7, #8]
 8005716:	429a      	cmp	r2, r3
 8005718:	bf0c      	ite	eq
 800571a:	2301      	moveq	r3, #1
 800571c:	2300      	movne	r3, #0
 800571e:	b2db      	uxtb	r3, r3
 8005720:	461a      	mov	r2, r3
 8005722:	79fb      	ldrb	r3, [r7, #7]
 8005724:	429a      	cmp	r2, r3
 8005726:	d0c5      	beq.n	80056b4 <UART_WaitOnFlagUntilTimeout+0x12>
 8005728:	2300      	movs	r3, #0
 800572a:	4618      	mov	r0, r3
 800572c:	3710      	adds	r7, #16
 800572e:	46bd      	mov	sp, r7
 8005730:	bd80      	pop	{r7, pc}

08005732 <UART_EndRxTransfer>:
 8005732:	b480      	push	{r7}
 8005734:	b083      	sub	sp, #12
 8005736:	af00      	add	r7, sp, #0
 8005738:	6078      	str	r0, [r7, #4]
 800573a:	687b      	ldr	r3, [r7, #4]
 800573c:	681b      	ldr	r3, [r3, #0]
 800573e:	681a      	ldr	r2, [r3, #0]
 8005740:	687b      	ldr	r3, [r7, #4]
 8005742:	681b      	ldr	r3, [r3, #0]
 8005744:	f422 7290 	bic.w	r2, r2, #288	; 0x120
 8005748:	601a      	str	r2, [r3, #0]
 800574a:	687b      	ldr	r3, [r7, #4]
 800574c:	681b      	ldr	r3, [r3, #0]
 800574e:	689a      	ldr	r2, [r3, #8]
 8005750:	687b      	ldr	r3, [r7, #4]
 8005752:	681b      	ldr	r3, [r3, #0]
 8005754:	f022 0201 	bic.w	r2, r2, #1
 8005758:	609a      	str	r2, [r3, #8]
 800575a:	687b      	ldr	r3, [r7, #4]
 800575c:	2220      	movs	r2, #32
 800575e:	679a      	str	r2, [r3, #120]	; 0x78
 8005760:	687b      	ldr	r3, [r7, #4]
 8005762:	2200      	movs	r2, #0
 8005764:	661a      	str	r2, [r3, #96]	; 0x60
 8005766:	bf00      	nop
 8005768:	370c      	adds	r7, #12
 800576a:	46bd      	mov	sp, r7
 800576c:	f85d 7b04 	ldr.w	r7, [sp], #4
 8005770:	4770      	bx	lr

08005772 <UART_DMAAbortOnError>:
 8005772:	b580      	push	{r7, lr}
 8005774:	b084      	sub	sp, #16
 8005776:	af00      	add	r7, sp, #0
 8005778:	6078      	str	r0, [r7, #4]
 800577a:	687b      	ldr	r3, [r7, #4]
 800577c:	6b9b      	ldr	r3, [r3, #56]	; 0x38
 800577e:	60fb      	str	r3, [r7, #12]
 8005780:	68fb      	ldr	r3, [r7, #12]
 8005782:	2200      	movs	r2, #0
 8005784:	f8a3 205a 	strh.w	r2, [r3, #90]	; 0x5a
 8005788:	68fb      	ldr	r3, [r7, #12]
 800578a:	2200      	movs	r2, #0
 800578c:	f8a3 2052 	strh.w	r2, [r3, #82]	; 0x52
 8005790:	68f8      	ldr	r0, [r7, #12]
 8005792:	f7ff fc07 	bl	8004fa4 <HAL_UART_ErrorCallback>
 8005796:	bf00      	nop
 8005798:	3710      	adds	r7, #16
 800579a:	46bd      	mov	sp, r7
 800579c:	bd80      	pop	{r7, pc}

0800579e <UART_TxISR_8BIT>:
 800579e:	b480      	push	{r7}
 80057a0:	b083      	sub	sp, #12
 80057a2:	af00      	add	r7, sp, #0
 80057a4:	6078      	str	r0, [r7, #4]
 80057a6:	687b      	ldr	r3, [r7, #4]
 80057a8:	6f5b      	ldr	r3, [r3, #116]	; 0x74
 80057aa:	2b21      	cmp	r3, #33	; 0x21
 80057ac:	d12a      	bne.n	8005804 <UART_TxISR_8BIT+0x66>
 80057ae:	687b      	ldr	r3, [r7, #4]
 80057b0:	f8b3 3052 	ldrh.w	r3, [r3, #82]	; 0x52
 80057b4:	b29b      	uxth	r3, r3
 80057b6:	2b00      	cmp	r3, #0
 80057b8:	d110      	bne.n	80057dc <UART_TxISR_8BIT+0x3e>
 80057ba:	687b      	ldr	r3, [r7, #4]
 80057bc:	681b      	ldr	r3, [r3, #0]
 80057be:	681a      	ldr	r2, [r3, #0]
 80057c0:	687b      	ldr	r3, [r7, #4]
 80057c2:	681b      	ldr	r3, [r3, #0]
 80057c4:	f022 0280 	bic.w	r2, r2, #128	; 0x80
 80057c8:	601a      	str	r2, [r3, #0]
 80057ca:	687b      	ldr	r3, [r7, #4]
 80057cc:	681b      	ldr	r3, [r3, #0]
 80057ce:	681a      	ldr	r2, [r3, #0]
 80057d0:	687b      	ldr	r3, [r7, #4]
 80057d2:	681b      	ldr	r3, [r3, #0]
 80057d4:	f042 0240 	orr.w	r2, r2, #64	; 0x40
 80057d8:	601a      	str	r2, [r3, #0]
 80057da:	e013      	b.n	8005804 <UART_TxISR_8BIT+0x66>
 80057dc:	687b      	ldr	r3, [r7, #4]
 80057de:	6cdb      	ldr	r3, [r3, #76]	; 0x4c
 80057e0:	781a      	ldrb	r2, [r3, #0]
 80057e2:	687b      	ldr	r3, [r7, #4]
 80057e4:	681b      	ldr	r3, [r3, #0]
 80057e6:	629a      	str	r2, [r3, #40]	; 0x28
 80057e8:	687b      	ldr	r3, [r7, #4]
 80057ea:	6cdb      	ldr	r3, [r3, #76]	; 0x4c
 80057ec:	1c5a      	adds	r2, r3, #1
 80057ee:	687b      	ldr	r3, [r7, #4]
 80057f0:	64da      	str	r2, [r3, #76]	; 0x4c
 80057f2:	687b      	ldr	r3, [r7, #4]
 80057f4:	f8b3 3052 	ldrh.w	r3, [r3, #82]	; 0x52
 80057f8:	b29b      	uxth	r3, r3
 80057fa:	3b01      	subs	r3, #1
 80057fc:	b29a      	uxth	r2, r3
 80057fe:	687b      	ldr	r3, [r7, #4]
 8005800:	f8a3 2052 	strh.w	r2, [r3, #82]	; 0x52
 8005804:	bf00      	nop
 8005806:	370c      	adds	r7, #12
 8005808:	46bd      	mov	sp, r7
 800580a:	f85d 7b04 	ldr.w	r7, [sp], #4
 800580e:	4770      	bx	lr

08005810 <UART_TxISR_16BIT>:
 8005810:	b480      	push	{r7}
 8005812:	b085      	sub	sp, #20
 8005814:	af00      	add	r7, sp, #0
 8005816:	6078      	str	r0, [r7, #4]
 8005818:	687b      	ldr	r3, [r7, #4]
 800581a:	6f5b      	ldr	r3, [r3, #116]	; 0x74
 800581c:	2b21      	cmp	r3, #33	; 0x21
 800581e:	d12f      	bne.n	8005880 <UART_TxISR_16BIT+0x70>
 8005820:	687b      	ldr	r3, [r7, #4]
 8005822:	f8b3 3052 	ldrh.w	r3, [r3, #82]	; 0x52
 8005826:	b29b      	uxth	r3, r3
 8005828:	2b00      	cmp	r3, #0
 800582a:	d110      	bne.n	800584e <UART_TxISR_16BIT+0x3e>
 800582c:	687b      	ldr	r3, [r7, #4]
 800582e:	681b      	ldr	r3, [r3, #0]
 8005830:	681a      	ldr	r2, [r3, #0]
 8005832:	687b      	ldr	r3, [r7, #4]
 8005834:	681b      	ldr	r3, [r3, #0]
 8005836:	f022 0280 	bic.w	r2, r2, #128	; 0x80
 800583a:	601a      	str	r2, [r3, #0]
 800583c:	687b      	ldr	r3, [r7, #4]
 800583e:	681b      	ldr	r3, [r3, #0]
 8005840:	681a      	ldr	r2, [r3, #0]
 8005842:	687b      	ldr	r3, [r7, #4]
 8005844:	681b      	ldr	r3, [r3, #0]
 8005846:	f042 0240 	orr.w	r2, r2, #64	; 0x40
 800584a:	601a      	str	r2, [r3, #0]
 800584c:	e018      	b.n	8005880 <UART_TxISR_16BIT+0x70>
 800584e:	687b      	ldr	r3, [r7, #4]
 8005850:	6cdb      	ldr	r3, [r3, #76]	; 0x4c
 8005852:	60fb      	str	r3, [r7, #12]
 8005854:	68fb      	ldr	r3, [r7, #12]
 8005856:	881b      	ldrh	r3, [r3, #0]
 8005858:	461a      	mov	r2, r3
 800585a:	687b      	ldr	r3, [r7, #4]
 800585c:	681b      	ldr	r3, [r3, #0]
 800585e:	f3c2 0208 	ubfx	r2, r2, #0, #9
 8005862:	629a      	str	r2, [r3, #40]	; 0x28
 8005864:	687b      	ldr	r3, [r7, #4]
 8005866:	6cdb      	ldr	r3, [r3, #76]	; 0x4c
 8005868:	1c9a      	adds	r2, r3, #2
 800586a:	687b      	ldr	r3, [r7, #4]
 800586c:	64da      	str	r2, [r3, #76]	; 0x4c
 800586e:	687b      	ldr	r3, [r7, #4]
 8005870:	f8b3 3052 	ldrh.w	r3, [r3, #82]	; 0x52
 8005874:	b29b      	uxth	r3, r3
 8005876:	3b01      	subs	r3, #1
 8005878:	b29a      	uxth	r2, r3
 800587a:	687b      	ldr	r3, [r7, #4]
 800587c:	f8a3 2052 	strh.w	r2, [r3, #82]	; 0x52
 8005880:	bf00      	nop
 8005882:	3714      	adds	r7, #20
 8005884:	46bd      	mov	sp, r7
 8005886:	f85d 7b04 	ldr.w	r7, [sp], #4
 800588a:	4770      	bx	lr

0800588c <UART_EndTransmit_IT>:
 800588c:	b580      	push	{r7, lr}
 800588e:	b082      	sub	sp, #8
 8005890:	af00      	add	r7, sp, #0
 8005892:	6078      	str	r0, [r7, #4]
 8005894:	687b      	ldr	r3, [r7, #4]
 8005896:	681b      	ldr	r3, [r3, #0]
 8005898:	681a      	ldr	r2, [r3, #0]
 800589a:	687b      	ldr	r3, [r7, #4]
 800589c:	681b      	ldr	r3, [r3, #0]
 800589e:	f022 0240 	bic.w	r2, r2, #64	; 0x40
 80058a2:	601a      	str	r2, [r3, #0]
 80058a4:	687b      	ldr	r3, [r7, #4]
 80058a6:	2220      	movs	r2, #32
 80058a8:	675a      	str	r2, [r3, #116]	; 0x74
 80058aa:	687b      	ldr	r3, [r7, #4]
 80058ac:	2200      	movs	r2, #0
 80058ae:	665a      	str	r2, [r3, #100]	; 0x64
 80058b0:	6878      	ldr	r0, [r7, #4]
 80058b2:	f7ff fb6d 	bl	8004f90 <HAL_UART_TxCpltCallback>
 80058b6:	bf00      	nop
 80058b8:	3708      	adds	r7, #8
 80058ba:	46bd      	mov	sp, r7
 80058bc:	bd80      	pop	{r7, pc}

080058be <UART_RxISR_8BIT>:
 80058be:	b580      	push	{r7, lr}
 80058c0:	b084      	sub	sp, #16
 80058c2:	af00      	add	r7, sp, #0
 80058c4:	6078      	str	r0, [r7, #4]
 80058c6:	687b      	ldr	r3, [r7, #4]
 80058c8:	f8b3 305c 	ldrh.w	r3, [r3, #92]	; 0x5c
 80058cc:	81fb      	strh	r3, [r7, #14]
 80058ce:	687b      	ldr	r3, [r7, #4]
 80058d0:	6f9b      	ldr	r3, [r3, #120]	; 0x78
 80058d2:	2b22      	cmp	r3, #34	; 0x22
 80058d4:	d13a      	bne.n	800594c <UART_RxISR_8BIT+0x8e>
 80058d6:	687b      	ldr	r3, [r7, #4]
 80058d8:	681b      	ldr	r3, [r3, #0]
 80058da:	6a5b      	ldr	r3, [r3, #36]	; 0x24
 80058dc:	81bb      	strh	r3, [r7, #12]
 80058de:	89bb      	ldrh	r3, [r7, #12]
 80058e0:	b2d9      	uxtb	r1, r3
 80058e2:	89fb      	ldrh	r3, [r7, #14]
 80058e4:	b2da      	uxtb	r2, r3
 80058e6:	687b      	ldr	r3, [r7, #4]
 80058e8:	6d5b      	ldr	r3, [r3, #84]	; 0x54
 80058ea:	400a      	ands	r2, r1
 80058ec:	b2d2      	uxtb	r2, r2
 80058ee:	701a      	strb	r2, [r3, #0]
 80058f0:	687b      	ldr	r3, [r7, #4]
 80058f2:	6d5b      	ldr	r3, [r3, #84]	; 0x54
 80058f4:	1c5a      	adds	r2, r3, #1
 80058f6:	687b      	ldr	r3, [r7, #4]
 80058f8:	655a      	str	r2, [r3, #84]	; 0x54
 80058fa:	687b      	ldr	r3, [r7, #4]
 80058fc:	f8b3 305a 	ldrh.w	r3, [r3, #90]	; 0x5a
 8005900:	b29b      	uxth	r3, r3
 8005902:	3b01      	subs	r3, #1
 8005904:	b29a      	uxth	r2, r3
 8005906:	687b      	ldr	r3, [r7, #4]
 8005908:	f8a3 205a 	strh.w	r2, [r3, #90]	; 0x5a
 800590c:	687b      	ldr	r3, [r7, #4]
 800590e:	f8b3 305a 	ldrh.w	r3, [r3, #90]	; 0x5a
 8005912:	b29b      	uxth	r3, r3
 8005914:	2b00      	cmp	r3, #0
 8005916:	d121      	bne.n	800595c <UART_RxISR_8BIT+0x9e>
 8005918:	687b      	ldr	r3, [r7, #4]
 800591a:	681b      	ldr	r3, [r3, #0]
 800591c:	681a      	ldr	r2, [r3, #0]
 800591e:	687b      	ldr	r3, [r7, #4]
 8005920:	681b      	ldr	r3, [r3, #0]
 8005922:	f422 7290 	bic.w	r2, r2, #288	; 0x120
 8005926:	601a      	str	r2, [r3, #0]
 8005928:	687b      	ldr	r3, [r7, #4]
 800592a:	681b      	ldr	r3, [r3, #0]
 800592c:	689a      	ldr	r2, [r3, #8]
 800592e:	687b      	ldr	r3, [r7, #4]
 8005930:	681b      	ldr	r3, [r3, #0]
 8005932:	f022 0201 	bic.w	r2, r2, #1
 8005936:	609a      	str	r2, [r3, #8]
 8005938:	687b      	ldr	r3, [r7, #4]
 800593a:	2220      	movs	r2, #32
 800593c:	679a      	str	r2, [r3, #120]	; 0x78
 800593e:	687b      	ldr	r3, [r7, #4]
 8005940:	2200      	movs	r2, #0
 8005942:	661a      	str	r2, [r3, #96]	; 0x60
 8005944:	6878      	ldr	r0, [r7, #4]
 8005946:	f000 fff9 	bl	800693c <HAL_UART_RxCpltCallback>
 800594a:	e007      	b.n	800595c <UART_RxISR_8BIT+0x9e>
 800594c:	687b      	ldr	r3, [r7, #4]
 800594e:	681b      	ldr	r3, [r3, #0]
 8005950:	699a      	ldr	r2, [r3, #24]
 8005952:	687b      	ldr	r3, [r7, #4]
 8005954:	681b      	ldr	r3, [r3, #0]
 8005956:	f042 0208 	orr.w	r2, r2, #8
 800595a:	619a      	str	r2, [r3, #24]
 800595c:	bf00      	nop
 800595e:	3710      	adds	r7, #16
 8005960:	46bd      	mov	sp, r7
 8005962:	bd80      	pop	{r7, pc}

08005964 <UART_RxISR_16BIT>:
 8005964:	b580      	push	{r7, lr}
 8005966:	b084      	sub	sp, #16
 8005968:	af00      	add	r7, sp, #0
 800596a:	6078      	str	r0, [r7, #4]
 800596c:	687b      	ldr	r3, [r7, #4]
 800596e:	f8b3 305c 	ldrh.w	r3, [r3, #92]	; 0x5c
 8005972:	81fb      	strh	r3, [r7, #14]
 8005974:	687b      	ldr	r3, [r7, #4]
 8005976:	6f9b      	ldr	r3, [r3, #120]	; 0x78
 8005978:	2b22      	cmp	r3, #34	; 0x22
 800597a:	d13a      	bne.n	80059f2 <UART_RxISR_16BIT+0x8e>
 800597c:	687b      	ldr	r3, [r7, #4]
 800597e:	681b      	ldr	r3, [r3, #0]
 8005980:	6a5b      	ldr	r3, [r3, #36]	; 0x24
 8005982:	81bb      	strh	r3, [r7, #12]
 8005984:	687b      	ldr	r3, [r7, #4]
 8005986:	6d5b      	ldr	r3, [r3, #84]	; 0x54
 8005988:	60bb      	str	r3, [r7, #8]
 800598a:	89ba      	ldrh	r2, [r7, #12]
 800598c:	89fb      	ldrh	r3, [r7, #14]
 800598e:	4013      	ands	r3, r2
 8005990:	b29a      	uxth	r2, r3
 8005992:	68bb      	ldr	r3, [r7, #8]
 8005994:	801a      	strh	r2, [r3, #0]
 8005996:	687b      	ldr	r3, [r7, #4]
 8005998:	6d5b      	ldr	r3, [r3, #84]	; 0x54
 800599a:	1c9a      	adds	r2, r3, #2
 800599c:	687b      	ldr	r3, [r7, #4]
 800599e:	655a      	str	r2, [r3, #84]	; 0x54
 80059a0:	687b      	ldr	r3, [r7, #4]
 80059a2:	f8b3 305a 	ldrh.w	r3, [r3, #90]	; 0x5a
 80059a6:	b29b      	uxth	r3, r3
 80059a8:	3b01      	subs	r3, #1
 80059aa:	b29a      	uxth	r2, r3
 80059ac:	687b      	ldr	r3, [r7, #4]
 80059ae:	f8a3 205a 	strh.w	r2, [r3, #90]	; 0x5a
 80059b2:	687b      	ldr	r3, [r7, #4]
 80059b4:	f8b3 305a 	ldrh.w	r3, [r3, #90]	; 0x5a
 80059b8:	b29b      	uxth	r3, r3
 80059ba:	2b00      	cmp	r3, #0
 80059bc:	d121      	bne.n	8005a02 <UART_RxISR_16BIT+0x9e>
 80059be:	687b      	ldr	r3, [r7, #4]
 80059c0:	681b      	ldr	r3, [r3, #0]
 80059c2:	681a      	ldr	r2, [r3, #0]
 80059c4:	687b      	ldr	r3, [r7, #4]
 80059c6:	681b      	ldr	r3, [r3, #0]
 80059c8:	f422 7290 	bic.w	r2, r2, #288	; 0x120
 80059cc:	601a      	str	r2, [r3, #0]
 80059ce:	687b      	ldr	r3, [r7, #4]
 80059d0:	681b      	ldr	r3, [r3, #0]
 80059d2:	689a      	ldr	r2, [r3, #8]
 80059d4:	687b      	ldr	r3, [r7, #4]
 80059d6:	681b      	ldr	r3, [r3, #0]
 80059d8:	f022 0201 	bic.w	r2, r2, #1
 80059dc:	609a      	str	r2, [r3, #8]
 80059de:	687b      	ldr	r3, [r7, #4]
 80059e0:	2220      	movs	r2, #32
 80059e2:	679a      	str	r2, [r3, #120]	; 0x78
 80059e4:	687b      	ldr	r3, [r7, #4]
 80059e6:	2200      	movs	r2, #0
 80059e8:	661a      	str	r2, [r3, #96]	; 0x60
 80059ea:	6878      	ldr	r0, [r7, #4]
 80059ec:	f000 ffa6 	bl	800693c <HAL_UART_RxCpltCallback>
 80059f0:	e007      	b.n	8005a02 <UART_RxISR_16BIT+0x9e>
 80059f2:	687b      	ldr	r3, [r7, #4]
 80059f4:	681b      	ldr	r3, [r3, #0]
 80059f6:	699a      	ldr	r2, [r3, #24]
 80059f8:	687b      	ldr	r3, [r7, #4]
 80059fa:	681b      	ldr	r3, [r3, #0]
 80059fc:	f042 0208 	orr.w	r2, r2, #8
 8005a00:	619a      	str	r2, [r3, #24]
 8005a02:	bf00      	nop
 8005a04:	3710      	adds	r7, #16
 8005a06:	46bd      	mov	sp, r7
 8005a08:	bd80      	pop	{r7, pc}
	...

08005a0c <USB_CoreInit>:
 8005a0c:	b084      	sub	sp, #16
 8005a0e:	b580      	push	{r7, lr}
 8005a10:	b084      	sub	sp, #16
 8005a12:	af00      	add	r7, sp, #0
 8005a14:	6078      	str	r0, [r7, #4]
 8005a16:	f107 001c 	add.w	r0, r7, #28
 8005a1a:	e880 000e 	stmia.w	r0, {r1, r2, r3}
 8005a1e:	6b3b      	ldr	r3, [r7, #48]	; 0x30
 8005a20:	2b01      	cmp	r3, #1
 8005a22:	d120      	bne.n	8005a66 <USB_CoreInit+0x5a>
 8005a24:	687b      	ldr	r3, [r7, #4]
 8005a26:	6b9b      	ldr	r3, [r3, #56]	; 0x38
 8005a28:	f423 3280 	bic.w	r2, r3, #65536	; 0x10000
 8005a2c:	687b      	ldr	r3, [r7, #4]
 8005a2e:	639a      	str	r2, [r3, #56]	; 0x38
 8005a30:	687b      	ldr	r3, [r7, #4]
 8005a32:	68da      	ldr	r2, [r3, #12]
 8005a34:	4b20      	ldr	r3, [pc, #128]	; (8005ab8 <USB_CoreInit+0xac>)
 8005a36:	4013      	ands	r3, r2
 8005a38:	687a      	ldr	r2, [r7, #4]
 8005a3a:	60d3      	str	r3, [r2, #12]
 8005a3c:	687b      	ldr	r3, [r7, #4]
 8005a3e:	68db      	ldr	r3, [r3, #12]
 8005a40:	f423 1240 	bic.w	r2, r3, #3145728	; 0x300000
 8005a44:	687b      	ldr	r3, [r7, #4]
 8005a46:	60da      	str	r2, [r3, #12]
 8005a48:	6cfb      	ldr	r3, [r7, #76]	; 0x4c
 8005a4a:	2b01      	cmp	r3, #1
 8005a4c:	d105      	bne.n	8005a5a <USB_CoreInit+0x4e>
 8005a4e:	687b      	ldr	r3, [r7, #4]
 8005a50:	68db      	ldr	r3, [r3, #12]
 8005a52:	f443 1280 	orr.w	r2, r3, #1048576	; 0x100000
 8005a56:	687b      	ldr	r3, [r7, #4]
 8005a58:	60da      	str	r2, [r3, #12]
 8005a5a:	6878      	ldr	r0, [r7, #4]
 8005a5c:	f000 fa60 	bl	8005f20 <USB_CoreReset>
 8005a60:	4603      	mov	r3, r0
 8005a62:	73fb      	strb	r3, [r7, #15]
 8005a64:	e010      	b.n	8005a88 <USB_CoreInit+0x7c>
 8005a66:	687b      	ldr	r3, [r7, #4]
 8005a68:	68db      	ldr	r3, [r3, #12]
 8005a6a:	f043 0240 	orr.w	r2, r3, #64	; 0x40
 8005a6e:	687b      	ldr	r3, [r7, #4]
 8005a70:	60da      	str	r2, [r3, #12]
 8005a72:	6878      	ldr	r0, [r7, #4]
 8005a74:	f000 fa54 	bl	8005f20 <USB_CoreReset>
 8005a78:	4603      	mov	r3, r0
 8005a7a:	73fb      	strb	r3, [r7, #15]
 8005a7c:	687b      	ldr	r3, [r7, #4]
 8005a7e:	6b9b      	ldr	r3, [r3, #56]	; 0x38
 8005a80:	f443 3280 	orr.w	r2, r3, #65536	; 0x10000
 8005a84:	687b      	ldr	r3, [r7, #4]
 8005a86:	639a      	str	r2, [r3, #56]	; 0x38
 8005a88:	6abb      	ldr	r3, [r7, #40]	; 0x28
 8005a8a:	2b01      	cmp	r3, #1
 8005a8c:	d10b      	bne.n	8005aa6 <USB_CoreInit+0x9a>
 8005a8e:	687b      	ldr	r3, [r7, #4]
 8005a90:	689b      	ldr	r3, [r3, #8]
 8005a92:	f043 0206 	orr.w	r2, r3, #6
 8005a96:	687b      	ldr	r3, [r7, #4]
 8005a98:	609a      	str	r2, [r3, #8]
 8005a9a:	687b      	ldr	r3, [r7, #4]
 8005a9c:	689b      	ldr	r3, [r3, #8]
 8005a9e:	f043 0220 	orr.w	r2, r3, #32
 8005aa2:	687b      	ldr	r3, [r7, #4]
 8005aa4:	609a      	str	r2, [r3, #8]
 8005aa6:	7bfb      	ldrb	r3, [r7, #15]
 8005aa8:	4618      	mov	r0, r3
 8005aaa:	3710      	adds	r7, #16
 8005aac:	46bd      	mov	sp, r7
 8005aae:	e8bd 4080 	ldmia.w	sp!, {r7, lr}
 8005ab2:	b004      	add	sp, #16
 8005ab4:	4770      	bx	lr
 8005ab6:	bf00      	nop
 8005ab8:	ffbdffbf 	.word	0xffbdffbf

08005abc <USB_DisableGlobalInt>:
 8005abc:	b480      	push	{r7}
 8005abe:	b083      	sub	sp, #12
 8005ac0:	af00      	add	r7, sp, #0
 8005ac2:	6078      	str	r0, [r7, #4]
 8005ac4:	687b      	ldr	r3, [r7, #4]
 8005ac6:	689b      	ldr	r3, [r3, #8]
 8005ac8:	f023 0201 	bic.w	r2, r3, #1
 8005acc:	687b      	ldr	r3, [r7, #4]
 8005ace:	609a      	str	r2, [r3, #8]
 8005ad0:	2300      	movs	r3, #0
 8005ad2:	4618      	mov	r0, r3
 8005ad4:	370c      	adds	r7, #12
 8005ad6:	46bd      	mov	sp, r7
 8005ad8:	f85d 7b04 	ldr.w	r7, [sp], #4
 8005adc:	4770      	bx	lr

08005ade <USB_SetCurrentMode>:
 8005ade:	b580      	push	{r7, lr}
 8005ae0:	b082      	sub	sp, #8
 8005ae2:	af00      	add	r7, sp, #0
 8005ae4:	6078      	str	r0, [r7, #4]
 8005ae6:	460b      	mov	r3, r1
 8005ae8:	70fb      	strb	r3, [r7, #3]
 8005aea:	687b      	ldr	r3, [r7, #4]
 8005aec:	68db      	ldr	r3, [r3, #12]
 8005aee:	f023 42c0 	bic.w	r2, r3, #1610612736	; 0x60000000
 8005af2:	687b      	ldr	r3, [r7, #4]
 8005af4:	60da      	str	r2, [r3, #12]
 8005af6:	78fb      	ldrb	r3, [r7, #3]
 8005af8:	2b01      	cmp	r3, #1
 8005afa:	d106      	bne.n	8005b0a <USB_SetCurrentMode+0x2c>
 8005afc:	687b      	ldr	r3, [r7, #4]
 8005afe:	68db      	ldr	r3, [r3, #12]
 8005b00:	f043 5200 	orr.w	r2, r3, #536870912	; 0x20000000
 8005b04:	687b      	ldr	r3, [r7, #4]
 8005b06:	60da      	str	r2, [r3, #12]
 8005b08:	e00b      	b.n	8005b22 <USB_SetCurrentMode+0x44>
 8005b0a:	78fb      	ldrb	r3, [r7, #3]
 8005b0c:	2b00      	cmp	r3, #0
 8005b0e:	d106      	bne.n	8005b1e <USB_SetCurrentMode+0x40>
 8005b10:	687b      	ldr	r3, [r7, #4]
 8005b12:	68db      	ldr	r3, [r3, #12]
 8005b14:	f043 4280 	orr.w	r2, r3, #1073741824	; 0x40000000
 8005b18:	687b      	ldr	r3, [r7, #4]
 8005b1a:	60da      	str	r2, [r3, #12]
 8005b1c:	e001      	b.n	8005b22 <USB_SetCurrentMode+0x44>
 8005b1e:	2301      	movs	r3, #1
 8005b20:	e003      	b.n	8005b2a <USB_SetCurrentMode+0x4c>
 8005b22:	2032      	movs	r0, #50	; 0x32
 8005b24:	f7fb f998 	bl	8000e58 <HAL_Delay>
 8005b28:	2300      	movs	r3, #0
 8005b2a:	4618      	mov	r0, r3
 8005b2c:	3708      	adds	r7, #8
 8005b2e:	46bd      	mov	sp, r7
 8005b30:	bd80      	pop	{r7, pc}
	...

08005b34 <USB_DevInit>:
 8005b34:	b084      	sub	sp, #16
 8005b36:	b580      	push	{r7, lr}
 8005b38:	b086      	sub	sp, #24
 8005b3a:	af00      	add	r7, sp, #0
 8005b3c:	6078      	str	r0, [r7, #4]
 8005b3e:	f107 0024 	add.w	r0, r7, #36	; 0x24
 8005b42:	e880 000e 	stmia.w	r0, {r1, r2, r3}
 8005b46:	2300      	movs	r3, #0
 8005b48:	75fb      	strb	r3, [r7, #23]
 8005b4a:	687b      	ldr	r3, [r7, #4]
 8005b4c:	60fb      	str	r3, [r7, #12]
 8005b4e:	2300      	movs	r3, #0
 8005b50:	613b      	str	r3, [r7, #16]
 8005b52:	e009      	b.n	8005b68 <USB_DevInit+0x34>
 8005b54:	687a      	ldr	r2, [r7, #4]
 8005b56:	693b      	ldr	r3, [r7, #16]
 8005b58:	3340      	adds	r3, #64	; 0x40
 8005b5a:	009b      	lsls	r3, r3, #2
 8005b5c:	4413      	add	r3, r2
 8005b5e:	2200      	movs	r2, #0
 8005b60:	605a      	str	r2, [r3, #4]
 8005b62:	693b      	ldr	r3, [r7, #16]
 8005b64:	3301      	adds	r3, #1
 8005b66:	613b      	str	r3, [r7, #16]
 8005b68:	693b      	ldr	r3, [r7, #16]
 8005b6a:	2b0e      	cmp	r3, #14
 8005b6c:	d9f2      	bls.n	8005b54 <USB_DevInit+0x20>
 8005b6e:	6cfb      	ldr	r3, [r7, #76]	; 0x4c
 8005b70:	2b00      	cmp	r3, #0
 8005b72:	d112      	bne.n	8005b9a <USB_DevInit+0x66>
 8005b74:	687b      	ldr	r3, [r7, #4]
 8005b76:	6b9b      	ldr	r3, [r3, #56]	; 0x38
 8005b78:	f423 1200 	bic.w	r2, r3, #2097152	; 0x200000
 8005b7c:	687b      	ldr	r3, [r7, #4]
 8005b7e:	639a      	str	r2, [r3, #56]	; 0x38
 8005b80:	687b      	ldr	r3, [r7, #4]
 8005b82:	681b      	ldr	r3, [r3, #0]
 8005b84:	f043 0240 	orr.w	r2, r3, #64	; 0x40
 8005b88:	687b      	ldr	r3, [r7, #4]
 8005b8a:	601a      	str	r2, [r3, #0]
 8005b8c:	687b      	ldr	r3, [r7, #4]
 8005b8e:	681b      	ldr	r3, [r3, #0]
 8005b90:	f043 0280 	orr.w	r2, r3, #128	; 0x80
 8005b94:	687b      	ldr	r3, [r7, #4]
 8005b96:	601a      	str	r2, [r3, #0]
 8005b98:	e005      	b.n	8005ba6 <USB_DevInit+0x72>
 8005b9a:	687b      	ldr	r3, [r7, #4]
 8005b9c:	6b9b      	ldr	r3, [r3, #56]	; 0x38
 8005b9e:	f443 1200 	orr.w	r2, r3, #2097152	; 0x200000
 8005ba2:	687b      	ldr	r3, [r7, #4]
 8005ba4:	639a      	str	r2, [r3, #56]	; 0x38
 8005ba6:	68fb      	ldr	r3, [r7, #12]
 8005ba8:	f503 6360 	add.w	r3, r3, #3584	; 0xe00
 8005bac:	461a      	mov	r2, r3
 8005bae:	2300      	movs	r3, #0
 8005bb0:	6013      	str	r3, [r2, #0]
 8005bb2:	68fb      	ldr	r3, [r7, #12]
 8005bb4:	f503 6300 	add.w	r3, r3, #2048	; 0x800
 8005bb8:	4619      	mov	r1, r3
 8005bba:	68fb      	ldr	r3, [r7, #12]
 8005bbc:	f503 6300 	add.w	r3, r3, #2048	; 0x800
 8005bc0:	461a      	mov	r2, r3
 8005bc2:	680b      	ldr	r3, [r1, #0]
 8005bc4:	6013      	str	r3, [r2, #0]
 8005bc6:	6bbb      	ldr	r3, [r7, #56]	; 0x38
 8005bc8:	2b01      	cmp	r3, #1
 8005bca:	d10c      	bne.n	8005be6 <USB_DevInit+0xb2>
 8005bcc:	6afb      	ldr	r3, [r7, #44]	; 0x2c
 8005bce:	2b00      	cmp	r3, #0
 8005bd0:	d104      	bne.n	8005bdc <USB_DevInit+0xa8>
 8005bd2:	2100      	movs	r1, #0
 8005bd4:	6878      	ldr	r0, [r7, #4]
 8005bd6:	f000 f971 	bl	8005ebc <USB_SetDevSpeed>
 8005bda:	e018      	b.n	8005c0e <USB_DevInit+0xda>
 8005bdc:	2101      	movs	r1, #1
 8005bde:	6878      	ldr	r0, [r7, #4]
 8005be0:	f000 f96c 	bl	8005ebc <USB_SetDevSpeed>
 8005be4:	e013      	b.n	8005c0e <USB_DevInit+0xda>
 8005be6:	6bbb      	ldr	r3, [r7, #56]	; 0x38
 8005be8:	2b03      	cmp	r3, #3
 8005bea:	d10c      	bne.n	8005c06 <USB_DevInit+0xd2>
 8005bec:	6afb      	ldr	r3, [r7, #44]	; 0x2c
 8005bee:	2b00      	cmp	r3, #0
 8005bf0:	d104      	bne.n	8005bfc <USB_DevInit+0xc8>
 8005bf2:	2100      	movs	r1, #0
 8005bf4:	6878      	ldr	r0, [r7, #4]
 8005bf6:	f000 f961 	bl	8005ebc <USB_SetDevSpeed>
 8005bfa:	e008      	b.n	8005c0e <USB_DevInit+0xda>
 8005bfc:	2101      	movs	r1, #1
 8005bfe:	6878      	ldr	r0, [r7, #4]
 8005c00:	f000 f95c 	bl	8005ebc <USB_SetDevSpeed>
 8005c04:	e003      	b.n	8005c0e <USB_DevInit+0xda>
 8005c06:	2103      	movs	r1, #3
 8005c08:	6878      	ldr	r0, [r7, #4]
 8005c0a:	f000 f957 	bl	8005ebc <USB_SetDevSpeed>
 8005c0e:	2110      	movs	r1, #16
 8005c10:	6878      	ldr	r0, [r7, #4]
 8005c12:	f000 f90b 	bl	8005e2c <USB_FlushTxFifo>
 8005c16:	4603      	mov	r3, r0
 8005c18:	2b00      	cmp	r3, #0
 8005c1a:	d001      	beq.n	8005c20 <USB_DevInit+0xec>
 8005c1c:	2301      	movs	r3, #1
 8005c1e:	75fb      	strb	r3, [r7, #23]
 8005c20:	6878      	ldr	r0, [r7, #4]
 8005c22:	f000 f929 	bl	8005e78 <USB_FlushRxFifo>
 8005c26:	4603      	mov	r3, r0
 8005c28:	2b00      	cmp	r3, #0
 8005c2a:	d001      	beq.n	8005c30 <USB_DevInit+0xfc>
 8005c2c:	2301      	movs	r3, #1
 8005c2e:	75fb      	strb	r3, [r7, #23]
 8005c30:	68fb      	ldr	r3, [r7, #12]
 8005c32:	f503 6300 	add.w	r3, r3, #2048	; 0x800
 8005c36:	461a      	mov	r2, r3
 8005c38:	2300      	movs	r3, #0
 8005c3a:	6113      	str	r3, [r2, #16]
 8005c3c:	68fb      	ldr	r3, [r7, #12]
 8005c3e:	f503 6300 	add.w	r3, r3, #2048	; 0x800
 8005c42:	461a      	mov	r2, r3
 8005c44:	2300      	movs	r3, #0
 8005c46:	6153      	str	r3, [r2, #20]
 8005c48:	68fb      	ldr	r3, [r7, #12]
 8005c4a:	f503 6300 	add.w	r3, r3, #2048	; 0x800
 8005c4e:	461a      	mov	r2, r3
 8005c50:	2300      	movs	r3, #0
 8005c52:	61d3      	str	r3, [r2, #28]
 8005c54:	2300      	movs	r3, #0
 8005c56:	613b      	str	r3, [r7, #16]
 8005c58:	e043      	b.n	8005ce2 <USB_DevInit+0x1ae>
 8005c5a:	693b      	ldr	r3, [r7, #16]
 8005c5c:	015a      	lsls	r2, r3, #5
 8005c5e:	68fb      	ldr	r3, [r7, #12]
 8005c60:	4413      	add	r3, r2
 8005c62:	f503 6310 	add.w	r3, r3, #2304	; 0x900
 8005c66:	681b      	ldr	r3, [r3, #0]
 8005c68:	f003 4300 	and.w	r3, r3, #2147483648	; 0x80000000
 8005c6c:	f1b3 4f00 	cmp.w	r3, #2147483648	; 0x80000000
 8005c70:	d118      	bne.n	8005ca4 <USB_DevInit+0x170>
 8005c72:	693b      	ldr	r3, [r7, #16]
 8005c74:	2b00      	cmp	r3, #0
 8005c76:	d10a      	bne.n	8005c8e <USB_DevInit+0x15a>
 8005c78:	693b      	ldr	r3, [r7, #16]
 8005c7a:	015a      	lsls	r2, r3, #5
 8005c7c:	68fb      	ldr	r3, [r7, #12]
 8005c7e:	4413      	add	r3, r2
 8005c80:	f503 6310 	add.w	r3, r3, #2304	; 0x900
 8005c84:	461a      	mov	r2, r3
 8005c86:	f04f 6300 	mov.w	r3, #134217728	; 0x8000000
 8005c8a:	6013      	str	r3, [r2, #0]
 8005c8c:	e013      	b.n	8005cb6 <USB_DevInit+0x182>
 8005c8e:	693b      	ldr	r3, [r7, #16]
 8005c90:	015a      	lsls	r2, r3, #5
 8005c92:	68fb      	ldr	r3, [r7, #12]
 8005c94:	4413      	add	r3, r2
 8005c96:	f503 6310 	add.w	r3, r3, #2304	; 0x900
 8005c9a:	461a      	mov	r2, r3
 8005c9c:	f04f 4390 	mov.w	r3, #1207959552	; 0x48000000
 8005ca0:	6013      	str	r3, [r2, #0]
 8005ca2:	e008      	b.n	8005cb6 <USB_DevInit+0x182>
 8005ca4:	693b      	ldr	r3, [r7, #16]
 8005ca6:	015a      	lsls	r2, r3, #5
 8005ca8:	68fb      	ldr	r3, [r7, #12]
 8005caa:	4413      	add	r3, r2
 8005cac:	f503 6310 	add.w	r3, r3, #2304	; 0x900
 8005cb0:	461a      	mov	r2, r3
 8005cb2:	2300      	movs	r3, #0
 8005cb4:	6013      	str	r3, [r2, #0]
 8005cb6:	693b      	ldr	r3, [r7, #16]
 8005cb8:	015a      	lsls	r2, r3, #5
 8005cba:	68fb      	ldr	r3, [r7, #12]
 8005cbc:	4413      	add	r3, r2
 8005cbe:	f503 6310 	add.w	r3, r3, #2304	; 0x900
 8005cc2:	461a      	mov	r2, r3
 8005cc4:	2300      	movs	r3, #0
 8005cc6:	6113      	str	r3, [r2, #16]
 8005cc8:	693b      	ldr	r3, [r7, #16]
 8005cca:	015a      	lsls	r2, r3, #5
 8005ccc:	68fb      	ldr	r3, [r7, #12]
 8005cce:	4413      	add	r3, r2
 8005cd0:	f503 6310 	add.w	r3, r3, #2304	; 0x900
 8005cd4:	461a      	mov	r2, r3
 8005cd6:	f64f 337f 	movw	r3, #64383	; 0xfb7f
 8005cda:	6093      	str	r3, [r2, #8]
 8005cdc:	693b      	ldr	r3, [r7, #16]
 8005cde:	3301      	adds	r3, #1
 8005ce0:	613b      	str	r3, [r7, #16]
 8005ce2:	6a7b      	ldr	r3, [r7, #36]	; 0x24
 8005ce4:	693a      	ldr	r2, [r7, #16]
 8005ce6:	429a      	cmp	r2, r3
 8005ce8:	d3b7      	bcc.n	8005c5a <USB_DevInit+0x126>
 8005cea:	2300      	movs	r3, #0
 8005cec:	613b      	str	r3, [r7, #16]
 8005cee:	e043      	b.n	8005d78 <USB_DevInit+0x244>
 8005cf0:	693b      	ldr	r3, [r7, #16]
 8005cf2:	015a      	lsls	r2, r3, #5
 8005cf4:	68fb      	ldr	r3, [r7, #12]
 8005cf6:	4413      	add	r3, r2
 8005cf8:	f503 6330 	add.w	r3, r3, #2816	; 0xb00
 8005cfc:	681b      	ldr	r3, [r3, #0]
 8005cfe:	f003 4300 	and.w	r3, r3, #2147483648	; 0x80000000
 8005d02:	f1b3 4f00 	cmp.w	r3, #2147483648	; 0x80000000
 8005d06:	d118      	bne.n	8005d3a <USB_DevInit+0x206>
 8005d08:	693b      	ldr	r3, [r7, #16]
 8005d0a:	2b00      	cmp	r3, #0
 8005d0c:	d10a      	bne.n	8005d24 <USB_DevInit+0x1f0>
 8005d0e:	693b      	ldr	r3, [r7, #16]
 8005d10:	015a      	lsls	r2, r3, #5
 8005d12:	68fb      	ldr	r3, [r7, #12]
 8005d14:	4413      	add	r3, r2
 8005d16:	f503 6330 	add.w	r3, r3, #2816	; 0xb00
 8005d1a:	461a      	mov	r2, r3
 8005d1c:	f04f 6300 	mov.w	r3, #134217728	; 0x8000000
 8005d20:	6013      	str	r3, [r2, #0]
 8005d22:	e013      	b.n	8005d4c <USB_DevInit+0x218>
 8005d24:	693b      	ldr	r3, [r7, #16]
 8005d26:	015a      	lsls	r2, r3, #5
 8005d28:	68fb      	ldr	r3, [r7, #12]
 8005d2a:	4413      	add	r3, r2
 8005d2c:	f503 6330 	add.w	r3, r3, #2816	; 0xb00
 8005d30:	461a      	mov	r2, r3
 8005d32:	f04f 4390 	mov.w	r3, #1207959552	; 0x48000000
 8005d36:	6013      	str	r3, [r2, #0]
 8005d38:	e008      	b.n	8005d4c <USB_DevInit+0x218>
 8005d3a:	693b      	ldr	r3, [r7, #16]
 8005d3c:	015a      	lsls	r2, r3, #5
 8005d3e:	68fb      	ldr	r3, [r7, #12]
 8005d40:	4413      	add	r3, r2
 8005d42:	f503 6330 	add.w	r3, r3, #2816	; 0xb00
 8005d46:	461a      	mov	r2, r3
 8005d48:	2300      	movs	r3, #0
 8005d4a:	6013      	str	r3, [r2, #0]
 8005d4c:	693b      	ldr	r3, [r7, #16]
 8005d4e:	015a      	lsls	r2, r3, #5
 8005d50:	68fb      	ldr	r3, [r7, #12]
 8005d52:	4413      	add	r3, r2
 8005d54:	f503 6330 	add.w	r3, r3, #2816	; 0xb00
 8005d58:	461a      	mov	r2, r3
 8005d5a:	2300      	movs	r3, #0
 8005d5c:	6113      	str	r3, [r2, #16]
 8005d5e:	693b      	ldr	r3, [r7, #16]
 8005d60:	015a      	lsls	r2, r3, #5
 8005d62:	68fb      	ldr	r3, [r7, #12]
 8005d64:	4413      	add	r3, r2
 8005d66:	f503 6330 	add.w	r3, r3, #2816	; 0xb00
 8005d6a:	461a      	mov	r2, r3
 8005d6c:	f64f 337f 	movw	r3, #64383	; 0xfb7f
 8005d70:	6093      	str	r3, [r2, #8]
 8005d72:	693b      	ldr	r3, [r7, #16]
 8005d74:	3301      	adds	r3, #1
 8005d76:	613b      	str	r3, [r7, #16]
 8005d78:	6a7b      	ldr	r3, [r7, #36]	; 0x24
 8005d7a:	693a      	ldr	r2, [r7, #16]
 8005d7c:	429a      	cmp	r2, r3
 8005d7e:	d3b7      	bcc.n	8005cf0 <USB_DevInit+0x1bc>
 8005d80:	68fb      	ldr	r3, [r7, #12]
 8005d82:	f503 6300 	add.w	r3, r3, #2048	; 0x800
 8005d86:	691b      	ldr	r3, [r3, #16]
 8005d88:	68fa      	ldr	r2, [r7, #12]
 8005d8a:	f502 6200 	add.w	r2, r2, #2048	; 0x800
 8005d8e:	f423 7380 	bic.w	r3, r3, #256	; 0x100
 8005d92:	6113      	str	r3, [r2, #16]
 8005d94:	6b3b      	ldr	r3, [r7, #48]	; 0x30
 8005d96:	2b01      	cmp	r3, #1
 8005d98:	d110      	bne.n	8005dbc <USB_DevInit+0x288>
 8005d9a:	68fb      	ldr	r3, [r7, #12]
 8005d9c:	f503 6300 	add.w	r3, r3, #2048	; 0x800
 8005da0:	461a      	mov	r2, r3
 8005da2:	4b1e      	ldr	r3, [pc, #120]	; (8005e1c <USB_DevInit+0x2e8>)
 8005da4:	6313      	str	r3, [r2, #48]	; 0x30
 8005da6:	68fb      	ldr	r3, [r7, #12]
 8005da8:	f503 6300 	add.w	r3, r3, #2048	; 0x800
 8005dac:	6b1a      	ldr	r2, [r3, #48]	; 0x30
 8005dae:	68fb      	ldr	r3, [r7, #12]
 8005db0:	f503 6300 	add.w	r3, r3, #2048	; 0x800
 8005db4:	4619      	mov	r1, r3
 8005db6:	4b1a      	ldr	r3, [pc, #104]	; (8005e20 <USB_DevInit+0x2ec>)
 8005db8:	4313      	orrs	r3, r2
 8005dba:	630b      	str	r3, [r1, #48]	; 0x30
 8005dbc:	687b      	ldr	r3, [r7, #4]
 8005dbe:	2200      	movs	r2, #0
 8005dc0:	619a      	str	r2, [r3, #24]
 8005dc2:	687b      	ldr	r3, [r7, #4]
 8005dc4:	f06f 4280 	mvn.w	r2, #1073741824	; 0x40000000
 8005dc8:	615a      	str	r2, [r3, #20]
 8005dca:	6b3b      	ldr	r3, [r7, #48]	; 0x30
 8005dcc:	2b00      	cmp	r3, #0
 8005dce:	d105      	bne.n	8005ddc <USB_DevInit+0x2a8>
 8005dd0:	687b      	ldr	r3, [r7, #4]
 8005dd2:	699b      	ldr	r3, [r3, #24]
 8005dd4:	f043 0210 	orr.w	r2, r3, #16
 8005dd8:	687b      	ldr	r3, [r7, #4]
 8005dda:	619a      	str	r2, [r3, #24]
 8005ddc:	687b      	ldr	r3, [r7, #4]
 8005dde:	699a      	ldr	r2, [r3, #24]
 8005de0:	4b10      	ldr	r3, [pc, #64]	; (8005e24 <USB_DevInit+0x2f0>)
 8005de2:	4313      	orrs	r3, r2
 8005de4:	687a      	ldr	r2, [r7, #4]
 8005de6:	6193      	str	r3, [r2, #24]
 8005de8:	6bfb      	ldr	r3, [r7, #60]	; 0x3c
 8005dea:	2b00      	cmp	r3, #0
 8005dec:	d005      	beq.n	8005dfa <USB_DevInit+0x2c6>
 8005dee:	687b      	ldr	r3, [r7, #4]
 8005df0:	699b      	ldr	r3, [r3, #24]
 8005df2:	f043 0208 	orr.w	r2, r3, #8
 8005df6:	687b      	ldr	r3, [r7, #4]
 8005df8:	619a      	str	r2, [r3, #24]
 8005dfa:	6cfb      	ldr	r3, [r7, #76]	; 0x4c
 8005dfc:	2b01      	cmp	r3, #1
 8005dfe:	d105      	bne.n	8005e0c <USB_DevInit+0x2d8>
 8005e00:	687b      	ldr	r3, [r7, #4]
 8005e02:	699a      	ldr	r2, [r3, #24]
 8005e04:	4b08      	ldr	r3, [pc, #32]	; (8005e28 <USB_DevInit+0x2f4>)
 8005e06:	4313      	orrs	r3, r2
 8005e08:	687a      	ldr	r2, [r7, #4]
 8005e0a:	6193      	str	r3, [r2, #24]
 8005e0c:	7dfb      	ldrb	r3, [r7, #23]
 8005e0e:	4618      	mov	r0, r3
 8005e10:	3718      	adds	r7, #24
 8005e12:	46bd      	mov	sp, r7
 8005e14:	e8bd 4080 	ldmia.w	sp!, {r7, lr}
 8005e18:	b004      	add	sp, #16
 8005e1a:	4770      	bx	lr
 8005e1c:	00800100 	.word	0x00800100
 8005e20:	00010003 	.word	0x00010003
 8005e24:	803c3800 	.word	0x803c3800
 8005e28:	40000004 	.word	0x40000004

08005e2c <USB_FlushTxFifo>:
 8005e2c:	b480      	push	{r7}
 8005e2e:	b085      	sub	sp, #20
 8005e30:	af00      	add	r7, sp, #0
 8005e32:	6078      	str	r0, [r7, #4]
 8005e34:	6039      	str	r1, [r7, #0]
 8005e36:	2300      	movs	r3, #0
 8005e38:	60fb      	str	r3, [r7, #12]
 8005e3a:	683b      	ldr	r3, [r7, #0]
 8005e3c:	019b      	lsls	r3, r3, #6
 8005e3e:	f043 0220 	orr.w	r2, r3, #32
 8005e42:	687b      	ldr	r3, [r7, #4]
 8005e44:	611a      	str	r2, [r3, #16]
 8005e46:	68fb      	ldr	r3, [r7, #12]
 8005e48:	3301      	adds	r3, #1
 8005e4a:	60fb      	str	r3, [r7, #12]
 8005e4c:	68fb      	ldr	r3, [r7, #12]
 8005e4e:	4a09      	ldr	r2, [pc, #36]	; (8005e74 <USB_FlushTxFifo+0x48>)
 8005e50:	4293      	cmp	r3, r2
 8005e52:	d901      	bls.n	8005e58 <USB_FlushTxFifo+0x2c>
 8005e54:	2303      	movs	r3, #3
 8005e56:	e006      	b.n	8005e66 <USB_FlushTxFifo+0x3a>
 8005e58:	687b      	ldr	r3, [r7, #4]
 8005e5a:	691b      	ldr	r3, [r3, #16]
 8005e5c:	f003 0320 	and.w	r3, r3, #32
 8005e60:	2b20      	cmp	r3, #32
 8005e62:	d0f0      	beq.n	8005e46 <USB_FlushTxFifo+0x1a>
 8005e64:	2300      	movs	r3, #0
 8005e66:	4618      	mov	r0, r3
 8005e68:	3714      	adds	r7, #20
 8005e6a:	46bd      	mov	sp, r7
 8005e6c:	f85d 7b04 	ldr.w	r7, [sp], #4
 8005e70:	4770      	bx	lr
 8005e72:	bf00      	nop
 8005e74:	00030d40 	.word	0x00030d40

08005e78 <USB_FlushRxFifo>:
 8005e78:	b480      	push	{r7}
 8005e7a:	b085      	sub	sp, #20
 8005e7c:	af00      	add	r7, sp, #0
 8005e7e:	6078      	str	r0, [r7, #4]
 8005e80:	2300      	movs	r3, #0
 8005e82:	60fb      	str	r3, [r7, #12]
 8005e84:	687b      	ldr	r3, [r7, #4]
 8005e86:	2210      	movs	r2, #16
 8005e88:	611a      	str	r2, [r3, #16]
 8005e8a:	68fb      	ldr	r3, [r7, #12]
 8005e8c:	3301      	adds	r3, #1
 8005e8e:	60fb      	str	r3, [r7, #12]
 8005e90:	68fb      	ldr	r3, [r7, #12]
 8005e92:	4a09      	ldr	r2, [pc, #36]	; (8005eb8 <USB_FlushRxFifo+0x40>)
 8005e94:	4293      	cmp	r3, r2
 8005e96:	d901      	bls.n	8005e9c <USB_FlushRxFifo+0x24>
 8005e98:	2303      	movs	r3, #3
 8005e9a:	e006      	b.n	8005eaa <USB_FlushRxFifo+0x32>
 8005e9c:	687b      	ldr	r3, [r7, #4]
 8005e9e:	691b      	ldr	r3, [r3, #16]
 8005ea0:	f003 0310 	and.w	r3, r3, #16
 8005ea4:	2b10      	cmp	r3, #16
 8005ea6:	d0f0      	beq.n	8005e8a <USB_FlushRxFifo+0x12>
 8005ea8:	2300      	movs	r3, #0
 8005eaa:	4618      	mov	r0, r3
 8005eac:	3714      	adds	r7, #20
 8005eae:	46bd      	mov	sp, r7
 8005eb0:	f85d 7b04 	ldr.w	r7, [sp], #4
 8005eb4:	4770      	bx	lr
 8005eb6:	bf00      	nop
 8005eb8:	00030d40 	.word	0x00030d40

08005ebc <USB_SetDevSpeed>:
 8005ebc:	b480      	push	{r7}
 8005ebe:	b085      	sub	sp, #20
 8005ec0:	af00      	add	r7, sp, #0
 8005ec2:	6078      	str	r0, [r7, #4]
 8005ec4:	460b      	mov	r3, r1
 8005ec6:	70fb      	strb	r3, [r7, #3]
 8005ec8:	687b      	ldr	r3, [r7, #4]
 8005eca:	60fb      	str	r3, [r7, #12]
 8005ecc:	68fb      	ldr	r3, [r7, #12]
 8005ece:	f503 6300 	add.w	r3, r3, #2048	; 0x800
 8005ed2:	681a      	ldr	r2, [r3, #0]
 8005ed4:	78fb      	ldrb	r3, [r7, #3]
 8005ed6:	68f9      	ldr	r1, [r7, #12]
 8005ed8:	f501 6100 	add.w	r1, r1, #2048	; 0x800
 8005edc:	4313      	orrs	r3, r2
 8005ede:	600b      	str	r3, [r1, #0]
 8005ee0:	2300      	movs	r3, #0
 8005ee2:	4618      	mov	r0, r3
 8005ee4:	3714      	adds	r7, #20
 8005ee6:	46bd      	mov	sp, r7
 8005ee8:	f85d 7b04 	ldr.w	r7, [sp], #4
 8005eec:	4770      	bx	lr

08005eee <USB_DevDisconnect>:
 8005eee:	b580      	push	{r7, lr}
 8005ef0:	b084      	sub	sp, #16
 8005ef2:	af00      	add	r7, sp, #0
 8005ef4:	6078      	str	r0, [r7, #4]
 8005ef6:	687b      	ldr	r3, [r7, #4]
 8005ef8:	60fb      	str	r3, [r7, #12]
 8005efa:	68fb      	ldr	r3, [r7, #12]
 8005efc:	f503 6300 	add.w	r3, r3, #2048	; 0x800
 8005f00:	685b      	ldr	r3, [r3, #4]
 8005f02:	68fa      	ldr	r2, [r7, #12]
 8005f04:	f502 6200 	add.w	r2, r2, #2048	; 0x800
 8005f08:	f043 0302 	orr.w	r3, r3, #2
 8005f0c:	6053      	str	r3, [r2, #4]
 8005f0e:	2003      	movs	r0, #3
 8005f10:	f7fa ffa2 	bl	8000e58 <HAL_Delay>
 8005f14:	2300      	movs	r3, #0
 8005f16:	4618      	mov	r0, r3
 8005f18:	3710      	adds	r7, #16
 8005f1a:	46bd      	mov	sp, r7
 8005f1c:	bd80      	pop	{r7, pc}
	...

08005f20 <USB_CoreReset>:
 8005f20:	b480      	push	{r7}
 8005f22:	b085      	sub	sp, #20
 8005f24:	af00      	add	r7, sp, #0
 8005f26:	6078      	str	r0, [r7, #4]
 8005f28:	2300      	movs	r3, #0
 8005f2a:	60fb      	str	r3, [r7, #12]
 8005f2c:	68fb      	ldr	r3, [r7, #12]
 8005f2e:	3301      	adds	r3, #1
 8005f30:	60fb      	str	r3, [r7, #12]
 8005f32:	68fb      	ldr	r3, [r7, #12]
 8005f34:	4a13      	ldr	r2, [pc, #76]	; (8005f84 <USB_CoreReset+0x64>)
 8005f36:	4293      	cmp	r3, r2
 8005f38:	d901      	bls.n	8005f3e <USB_CoreReset+0x1e>
 8005f3a:	2303      	movs	r3, #3
 8005f3c:	e01b      	b.n	8005f76 <USB_CoreReset+0x56>
 8005f3e:	687b      	ldr	r3, [r7, #4]
 8005f40:	691b      	ldr	r3, [r3, #16]
 8005f42:	2b00      	cmp	r3, #0
 8005f44:	daf2      	bge.n	8005f2c <USB_CoreReset+0xc>
 8005f46:	2300      	movs	r3, #0
 8005f48:	60fb      	str	r3, [r7, #12]
 8005f4a:	687b      	ldr	r3, [r7, #4]
 8005f4c:	691b      	ldr	r3, [r3, #16]
 8005f4e:	f043 0201 	orr.w	r2, r3, #1
 8005f52:	687b      	ldr	r3, [r7, #4]
 8005f54:	611a      	str	r2, [r3, #16]
 8005f56:	68fb      	ldr	r3, [r7, #12]
 8005f58:	3301      	adds	r3, #1
 8005f5a:	60fb      	str	r3, [r7, #12]
 8005f5c:	68fb      	ldr	r3, [r7, #12]
 8005f5e:	4a09      	ldr	r2, [pc, #36]	; (8005f84 <USB_CoreReset+0x64>)
 8005f60:	4293      	cmp	r3, r2
 8005f62:	d901      	bls.n	8005f68 <USB_CoreReset+0x48>
 8005f64:	2303      	movs	r3, #3
 8005f66:	e006      	b.n	8005f76 <USB_CoreReset+0x56>
 8005f68:	687b      	ldr	r3, [r7, #4]
 8005f6a:	691b      	ldr	r3, [r3, #16]
 8005f6c:	f003 0301 	and.w	r3, r3, #1
 8005f70:	2b01      	cmp	r3, #1
 8005f72:	d0f0      	beq.n	8005f56 <USB_CoreReset+0x36>
 8005f74:	2300      	movs	r3, #0
 8005f76:	4618      	mov	r0, r3
 8005f78:	3714      	adds	r7, #20
 8005f7a:	46bd      	mov	sp, r7
 8005f7c:	f85d 7b04 	ldr.w	r7, [sp], #4
 8005f80:	4770      	bx	lr
 8005f82:	bf00      	nop
 8005f84:	00030d40 	.word	0x00030d40

08005f88 <BH1750_Init>:
 8005f88:	b580      	push	{r7, lr}
 8005f8a:	b082      	sub	sp, #8
 8005f8c:	af00      	add	r7, sp, #0
 8005f8e:	6078      	str	r0, [r7, #4]
 8005f90:	4a0a      	ldr	r2, [pc, #40]	; (8005fbc <BH1750_Init+0x34>)
 8005f92:	687b      	ldr	r3, [r7, #4]
 8005f94:	6013      	str	r3, [r2, #0]
 8005f96:	f000 f813 	bl	8005fc0 <BH1750_Reset>
 8005f9a:	4603      	mov	r3, r0
 8005f9c:	2b00      	cmp	r3, #0
 8005f9e:	d107      	bne.n	8005fb0 <BH1750_Init+0x28>
 8005fa0:	2045      	movs	r0, #69	; 0x45
 8005fa2:	f000 f859 	bl	8006058 <BH1750_SetMtreg>
 8005fa6:	4603      	mov	r3, r0
 8005fa8:	2b00      	cmp	r3, #0
 8005faa:	d101      	bne.n	8005fb0 <BH1750_Init+0x28>
 8005fac:	2300      	movs	r3, #0
 8005fae:	e000      	b.n	8005fb2 <BH1750_Init+0x2a>
 8005fb0:	2301      	movs	r3, #1
 8005fb2:	4618      	mov	r0, r3
 8005fb4:	3708      	adds	r7, #8
 8005fb6:	46bd      	mov	sp, r7
 8005fb8:	bd80      	pop	{r7, pc}
 8005fba:	bf00      	nop
 8005fbc:	20000210 	.word	0x20000210

08005fc0 <BH1750_Reset>:
 8005fc0:	b580      	push	{r7, lr}
 8005fc2:	b084      	sub	sp, #16
 8005fc4:	af02      	add	r7, sp, #8
 8005fc6:	2307      	movs	r3, #7
 8005fc8:	71fb      	strb	r3, [r7, #7]
 8005fca:	4b09      	ldr	r3, [pc, #36]	; (8005ff0 <BH1750_Reset+0x30>)
 8005fcc:	6818      	ldr	r0, [r3, #0]
 8005fce:	1dfa      	adds	r2, r7, #7
 8005fd0:	230a      	movs	r3, #10
 8005fd2:	9300      	str	r3, [sp, #0]
 8005fd4:	2301      	movs	r3, #1
 8005fd6:	2146      	movs	r1, #70	; 0x46
 8005fd8:	f7fb fae8 	bl	80015ac <HAL_I2C_Master_Transmit>
 8005fdc:	4603      	mov	r3, r0
 8005fde:	2b00      	cmp	r3, #0
 8005fe0:	d101      	bne.n	8005fe6 <BH1750_Reset+0x26>
 8005fe2:	2300      	movs	r3, #0
 8005fe4:	e000      	b.n	8005fe8 <BH1750_Reset+0x28>
 8005fe6:	2301      	movs	r3, #1
 8005fe8:	4618      	mov	r0, r3
 8005fea:	3708      	adds	r7, #8
 8005fec:	46bd      	mov	sp, r7
 8005fee:	bd80      	pop	{r7, pc}
 8005ff0:	20000210 	.word	0x20000210

08005ff4 <BH1750_SetMode>:
 8005ff4:	b580      	push	{r7, lr}
 8005ff6:	b084      	sub	sp, #16
 8005ff8:	af02      	add	r7, sp, #8
 8005ffa:	4603      	mov	r3, r0
 8005ffc:	71fb      	strb	r3, [r7, #7]
 8005ffe:	79fb      	ldrb	r3, [r7, #7]
 8006000:	091b      	lsrs	r3, r3, #4
 8006002:	b2db      	uxtb	r3, r3
 8006004:	2b00      	cmp	r3, #0
 8006006:	d106      	bne.n	8006016 <BH1750_SetMode+0x22>
 8006008:	79fb      	ldrb	r3, [r7, #7]
 800600a:	095b      	lsrs	r3, r3, #5
 800600c:	b2db      	uxtb	r3, r3
 800600e:	2b00      	cmp	r3, #0
 8006010:	d101      	bne.n	8006016 <BH1750_SetMode+0x22>
 8006012:	2301      	movs	r3, #1
 8006014:	e018      	b.n	8006048 <BH1750_SetMode+0x54>
 8006016:	79fb      	ldrb	r3, [r7, #7]
 8006018:	f003 030f 	and.w	r3, r3, #15
 800601c:	2b03      	cmp	r3, #3
 800601e:	dd01      	ble.n	8006024 <BH1750_SetMode+0x30>
 8006020:	2301      	movs	r3, #1
 8006022:	e011      	b.n	8006048 <BH1750_SetMode+0x54>
 8006024:	79fa      	ldrb	r2, [r7, #7]
 8006026:	4b0a      	ldr	r3, [pc, #40]	; (8006050 <BH1750_SetMode+0x5c>)
 8006028:	701a      	strb	r2, [r3, #0]
 800602a:	4b0a      	ldr	r3, [pc, #40]	; (8006054 <BH1750_SetMode+0x60>)
 800602c:	6818      	ldr	r0, [r3, #0]
 800602e:	1dfa      	adds	r2, r7, #7
 8006030:	230a      	movs	r3, #10
 8006032:	9300      	str	r3, [sp, #0]
 8006034:	2301      	movs	r3, #1
 8006036:	2146      	movs	r1, #70	; 0x46
 8006038:	f7fb fab8 	bl	80015ac <HAL_I2C_Master_Transmit>
 800603c:	4603      	mov	r3, r0
 800603e:	2b00      	cmp	r3, #0
 8006040:	d101      	bne.n	8006046 <BH1750_SetMode+0x52>
 8006042:	2300      	movs	r3, #0
 8006044:	e000      	b.n	8006048 <BH1750_SetMode+0x54>
 8006046:	2301      	movs	r3, #1
 8006048:	4618      	mov	r0, r3
 800604a:	3708      	adds	r7, #8
 800604c:	46bd      	mov	sp, r7
 800604e:	bd80      	pop	{r7, pc}
 8006050:	2000020c 	.word	0x2000020c
 8006054:	20000210 	.word	0x20000210

08006058 <BH1750_SetMtreg>:
 8006058:	b580      	push	{r7, lr}
 800605a:	b086      	sub	sp, #24
 800605c:	af02      	add	r7, sp, #8
 800605e:	4603      	mov	r3, r0
 8006060:	71fb      	strb	r3, [r7, #7]
 8006062:	79fb      	ldrb	r3, [r7, #7]
 8006064:	2b1e      	cmp	r3, #30
 8006066:	d902      	bls.n	800606e <BH1750_SetMtreg+0x16>
 8006068:	79fb      	ldrb	r3, [r7, #7]
 800606a:	2bff      	cmp	r3, #255	; 0xff
 800606c:	d101      	bne.n	8006072 <BH1750_SetMtreg+0x1a>
 800606e:	2301      	movs	r3, #1
 8006070:	e037      	b.n	80060e2 <BH1750_SetMtreg+0x8a>
 8006072:	4a1e      	ldr	r2, [pc, #120]	; (80060ec <BH1750_SetMtreg+0x94>)
 8006074:	79fb      	ldrb	r3, [r7, #7]
 8006076:	7013      	strb	r3, [r2, #0]
 8006078:	79fb      	ldrb	r3, [r7, #7]
 800607a:	095b      	lsrs	r3, r3, #5
 800607c:	b2db      	uxtb	r3, r3
 800607e:	f043 0340 	orr.w	r3, r3, #64	; 0x40
 8006082:	b2db      	uxtb	r3, r3
 8006084:	733b      	strb	r3, [r7, #12]
 8006086:	f997 3007 	ldrsb.w	r3, [r7, #7]
 800608a:	f003 031f 	and.w	r3, r3, #31
 800608e:	b25b      	sxtb	r3, r3
 8006090:	f043 0360 	orr.w	r3, r3, #96	; 0x60
 8006094:	b25b      	sxtb	r3, r3
 8006096:	b2db      	uxtb	r3, r3
 8006098:	737b      	strb	r3, [r7, #13]
 800609a:	4b15      	ldr	r3, [pc, #84]	; (80060f0 <BH1750_SetMtreg+0x98>)
 800609c:	6818      	ldr	r0, [r3, #0]
 800609e:	f107 020c 	add.w	r2, r7, #12
 80060a2:	230a      	movs	r3, #10
 80060a4:	9300      	str	r3, [sp, #0]
 80060a6:	2301      	movs	r3, #1
 80060a8:	2146      	movs	r1, #70	; 0x46
 80060aa:	f7fb fa7f 	bl	80015ac <HAL_I2C_Master_Transmit>
 80060ae:	4603      	mov	r3, r0
 80060b0:	73fb      	strb	r3, [r7, #15]
 80060b2:	7bfb      	ldrb	r3, [r7, #15]
 80060b4:	2b00      	cmp	r3, #0
 80060b6:	d001      	beq.n	80060bc <BH1750_SetMtreg+0x64>
 80060b8:	2301      	movs	r3, #1
 80060ba:	e012      	b.n	80060e2 <BH1750_SetMtreg+0x8a>
 80060bc:	4b0c      	ldr	r3, [pc, #48]	; (80060f0 <BH1750_SetMtreg+0x98>)
 80060be:	6818      	ldr	r0, [r3, #0]
 80060c0:	f107 030c 	add.w	r3, r7, #12
 80060c4:	1c5a      	adds	r2, r3, #1
 80060c6:	230a      	movs	r3, #10
 80060c8:	9300      	str	r3, [sp, #0]
 80060ca:	2301      	movs	r3, #1
 80060cc:	2146      	movs	r1, #70	; 0x46
 80060ce:	f7fb fa6d 	bl	80015ac <HAL_I2C_Master_Transmit>
 80060d2:	4603      	mov	r3, r0
 80060d4:	73fb      	strb	r3, [r7, #15]
 80060d6:	7bfb      	ldrb	r3, [r7, #15]
 80060d8:	2b00      	cmp	r3, #0
 80060da:	d101      	bne.n	80060e0 <BH1750_SetMtreg+0x88>
 80060dc:	2300      	movs	r3, #0
 80060de:	e000      	b.n	80060e2 <BH1750_SetMtreg+0x8a>
 80060e0:	2301      	movs	r3, #1
 80060e2:	4618      	mov	r0, r3
 80060e4:	3710      	adds	r7, #16
 80060e6:	46bd      	mov	sp, r7
 80060e8:	bd80      	pop	{r7, pc}
 80060ea:	bf00      	nop
 80060ec:	20000214 	.word	0x20000214
 80060f0:	20000210 	.word	0x20000210

080060f4 <BH1750_ReadLight>:
 80060f4:	b580      	push	{r7, lr}
 80060f6:	b086      	sub	sp, #24
 80060f8:	af02      	add	r7, sp, #8
 80060fa:	6078      	str	r0, [r7, #4]
 80060fc:	4b25      	ldr	r3, [pc, #148]	; (8006194 <BH1750_ReadLight+0xa0>)
 80060fe:	6818      	ldr	r0, [r3, #0]
 8006100:	f107 0208 	add.w	r2, r7, #8
 8006104:	230a      	movs	r3, #10
 8006106:	9300      	str	r3, [sp, #0]
 8006108:	2302      	movs	r3, #2
 800610a:	2146      	movs	r1, #70	; 0x46
 800610c:	f7fb fb42 	bl	8001794 <HAL_I2C_Master_Receive>
 8006110:	4603      	mov	r3, r0
 8006112:	2b00      	cmp	r3, #0
 8006114:	d138      	bne.n	8006188 <BH1750_ReadLight+0x94>
 8006116:	7a3b      	ldrb	r3, [r7, #8]
 8006118:	021b      	lsls	r3, r3, #8
 800611a:	7a7a      	ldrb	r2, [r7, #9]
 800611c:	4313      	orrs	r3, r2
 800611e:	ee07 3a90 	vmov	s15, r3
 8006122:	eef8 7ae7 	vcvt.f32.s32	s15, s15
 8006126:	edc7 7a03 	vstr	s15, [r7, #12]
 800612a:	4b1b      	ldr	r3, [pc, #108]	; (8006198 <BH1750_ReadLight+0xa4>)
 800612c:	781b      	ldrb	r3, [r3, #0]
 800612e:	2b45      	cmp	r3, #69	; 0x45
 8006130:	d00f      	beq.n	8006152 <BH1750_ReadLight+0x5e>
 8006132:	4b19      	ldr	r3, [pc, #100]	; (8006198 <BH1750_ReadLight+0xa4>)
 8006134:	781b      	ldrb	r3, [r3, #0]
 8006136:	ee07 3a90 	vmov	s15, r3
 800613a:	eeb8 7a67 	vcvt.f32.u32	s14, s15
 800613e:	eddf 6a17 	vldr	s13, [pc, #92]	; 800619c <BH1750_ReadLight+0xa8>
 8006142:	eec6 7a87 	vdiv.f32	s15, s13, s14
 8006146:	ed97 7a03 	vldr	s14, [r7, #12]
 800614a:	ee67 7a27 	vmul.f32	s15, s14, s15
 800614e:	edc7 7a03 	vstr	s15, [r7, #12]
 8006152:	4b13      	ldr	r3, [pc, #76]	; (80061a0 <BH1750_ReadLight+0xac>)
 8006154:	781b      	ldrb	r3, [r3, #0]
 8006156:	2b21      	cmp	r3, #33	; 0x21
 8006158:	d003      	beq.n	8006162 <BH1750_ReadLight+0x6e>
 800615a:	4b11      	ldr	r3, [pc, #68]	; (80061a0 <BH1750_ReadLight+0xac>)
 800615c:	781b      	ldrb	r3, [r3, #0]
 800615e:	2b11      	cmp	r3, #17
 8006160:	d107      	bne.n	8006172 <BH1750_ReadLight+0x7e>
 8006162:	ed97 7a03 	vldr	s14, [r7, #12]
 8006166:	eef0 6a00 	vmov.f32	s13, #0	; 0x40000000  2.0
 800616a:	eec7 7a26 	vdiv.f32	s15, s14, s13
 800616e:	edc7 7a03 	vstr	s15, [r7, #12]
 8006172:	ed97 7a03 	vldr	s14, [r7, #12]
 8006176:	eddf 6a0b 	vldr	s13, [pc, #44]	; 80061a4 <BH1750_ReadLight+0xb0>
 800617a:	eec7 7a26 	vdiv.f32	s15, s14, s13
 800617e:	687b      	ldr	r3, [r7, #4]
 8006180:	edc3 7a00 	vstr	s15, [r3]
 8006184:	2300      	movs	r3, #0
 8006186:	e000      	b.n	800618a <BH1750_ReadLight+0x96>
 8006188:	2301      	movs	r3, #1
 800618a:	4618      	mov	r0, r3
 800618c:	3710      	adds	r7, #16
 800618e:	46bd      	mov	sp, r7
 8006190:	bd80      	pop	{r7, pc}
 8006192:	bf00      	nop
 8006194:	20000210 	.word	0x20000210
 8006198:	20000214 	.word	0x20000214
 800619c:	428a0000 	.word	0x428a0000
 80061a0:	2000020c 	.word	0x2000020c
 80061a4:	3f99999a 	.word	0x3f99999a

080061a8 <MX_GPIO_Init>:
 80061a8:	b580      	push	{r7, lr}
 80061aa:	b08e      	sub	sp, #56	; 0x38
 80061ac:	af00      	add	r7, sp, #0
 80061ae:	f107 0324 	add.w	r3, r7, #36	; 0x24
 80061b2:	2200      	movs	r2, #0
 80061b4:	601a      	str	r2, [r3, #0]
 80061b6:	605a      	str	r2, [r3, #4]
 80061b8:	609a      	str	r2, [r3, #8]
 80061ba:	60da      	str	r2, [r3, #12]
 80061bc:	611a      	str	r2, [r3, #16]
 80061be:	4b73      	ldr	r3, [pc, #460]	; (800638c <MX_GPIO_Init+0x1e4>)
 80061c0:	6b1b      	ldr	r3, [r3, #48]	; 0x30
 80061c2:	4a72      	ldr	r2, [pc, #456]	; (800638c <MX_GPIO_Init+0x1e4>)
 80061c4:	f043 0304 	orr.w	r3, r3, #4
 80061c8:	6313      	str	r3, [r2, #48]	; 0x30
 80061ca:	4b70      	ldr	r3, [pc, #448]	; (800638c <MX_GPIO_Init+0x1e4>)
 80061cc:	6b1b      	ldr	r3, [r3, #48]	; 0x30
 80061ce:	f003 0304 	and.w	r3, r3, #4
 80061d2:	623b      	str	r3, [r7, #32]
 80061d4:	6a3b      	ldr	r3, [r7, #32]
 80061d6:	4b6d      	ldr	r3, [pc, #436]	; (800638c <MX_GPIO_Init+0x1e4>)
 80061d8:	6b1b      	ldr	r3, [r3, #48]	; 0x30
 80061da:	4a6c      	ldr	r2, [pc, #432]	; (800638c <MX_GPIO_Init+0x1e4>)
 80061dc:	f043 0320 	orr.w	r3, r3, #32
 80061e0:	6313      	str	r3, [r2, #48]	; 0x30
 80061e2:	4b6a      	ldr	r3, [pc, #424]	; (800638c <MX_GPIO_Init+0x1e4>)
 80061e4:	6b1b      	ldr	r3, [r3, #48]	; 0x30
 80061e6:	f003 0320 	and.w	r3, r3, #32
 80061ea:	61fb      	str	r3, [r7, #28]
 80061ec:	69fb      	ldr	r3, [r7, #28]
 80061ee:	4b67      	ldr	r3, [pc, #412]	; (800638c <MX_GPIO_Init+0x1e4>)
 80061f0:	6b1b      	ldr	r3, [r3, #48]	; 0x30
 80061f2:	4a66      	ldr	r2, [pc, #408]	; (800638c <MX_GPIO_Init+0x1e4>)
 80061f4:	f043 0380 	orr.w	r3, r3, #128	; 0x80
 80061f8:	6313      	str	r3, [r2, #48]	; 0x30
 80061fa:	4b64      	ldr	r3, [pc, #400]	; (800638c <MX_GPIO_Init+0x1e4>)
 80061fc:	6b1b      	ldr	r3, [r3, #48]	; 0x30
 80061fe:	f003 0380 	and.w	r3, r3, #128	; 0x80
 8006202:	61bb      	str	r3, [r7, #24]
 8006204:	69bb      	ldr	r3, [r7, #24]
 8006206:	4b61      	ldr	r3, [pc, #388]	; (800638c <MX_GPIO_Init+0x1e4>)
 8006208:	6b1b      	ldr	r3, [r3, #48]	; 0x30
 800620a:	4a60      	ldr	r2, [pc, #384]	; (800638c <MX_GPIO_Init+0x1e4>)
 800620c:	f043 0301 	orr.w	r3, r3, #1
 8006210:	6313      	str	r3, [r2, #48]	; 0x30
 8006212:	4b5e      	ldr	r3, [pc, #376]	; (800638c <MX_GPIO_Init+0x1e4>)
 8006214:	6b1b      	ldr	r3, [r3, #48]	; 0x30
 8006216:	f003 0301 	and.w	r3, r3, #1
 800621a:	617b      	str	r3, [r7, #20]
 800621c:	697b      	ldr	r3, [r7, #20]
 800621e:	4b5b      	ldr	r3, [pc, #364]	; (800638c <MX_GPIO_Init+0x1e4>)
 8006220:	6b1b      	ldr	r3, [r3, #48]	; 0x30
 8006222:	4a5a      	ldr	r2, [pc, #360]	; (800638c <MX_GPIO_Init+0x1e4>)
 8006224:	f043 0302 	orr.w	r3, r3, #2
 8006228:	6313      	str	r3, [r2, #48]	; 0x30
 800622a:	4b58      	ldr	r3, [pc, #352]	; (800638c <MX_GPIO_Init+0x1e4>)
 800622c:	6b1b      	ldr	r3, [r3, #48]	; 0x30
 800622e:	f003 0302 	and.w	r3, r3, #2
 8006232:	613b      	str	r3, [r7, #16]
 8006234:	693b      	ldr	r3, [r7, #16]
 8006236:	4b55      	ldr	r3, [pc, #340]	; (800638c <MX_GPIO_Init+0x1e4>)
 8006238:	6b1b      	ldr	r3, [r3, #48]	; 0x30
 800623a:	4a54      	ldr	r2, [pc, #336]	; (800638c <MX_GPIO_Init+0x1e4>)
 800623c:	f043 0310 	orr.w	r3, r3, #16
 8006240:	6313      	str	r3, [r2, #48]	; 0x30
 8006242:	4b52      	ldr	r3, [pc, #328]	; (800638c <MX_GPIO_Init+0x1e4>)
 8006244:	6b1b      	ldr	r3, [r3, #48]	; 0x30
 8006246:	f003 0310 	and.w	r3, r3, #16
 800624a:	60fb      	str	r3, [r7, #12]
 800624c:	68fb      	ldr	r3, [r7, #12]
 800624e:	4b4f      	ldr	r3, [pc, #316]	; (800638c <MX_GPIO_Init+0x1e4>)
 8006250:	6b1b      	ldr	r3, [r3, #48]	; 0x30
 8006252:	4a4e      	ldr	r2, [pc, #312]	; (800638c <MX_GPIO_Init+0x1e4>)
 8006254:	f043 0308 	orr.w	r3, r3, #8
 8006258:	6313      	str	r3, [r2, #48]	; 0x30
 800625a:	4b4c      	ldr	r3, [pc, #304]	; (800638c <MX_GPIO_Init+0x1e4>)
 800625c:	6b1b      	ldr	r3, [r3, #48]	; 0x30
 800625e:	f003 0308 	and.w	r3, r3, #8
 8006262:	60bb      	str	r3, [r7, #8]
 8006264:	68bb      	ldr	r3, [r7, #8]
 8006266:	4b49      	ldr	r3, [pc, #292]	; (800638c <MX_GPIO_Init+0x1e4>)
 8006268:	6b1b      	ldr	r3, [r3, #48]	; 0x30
 800626a:	4a48      	ldr	r2, [pc, #288]	; (800638c <MX_GPIO_Init+0x1e4>)
 800626c:	f043 0340 	orr.w	r3, r3, #64	; 0x40
 8006270:	6313      	str	r3, [r2, #48]	; 0x30
 8006272:	4b46      	ldr	r3, [pc, #280]	; (800638c <MX_GPIO_Init+0x1e4>)
 8006274:	6b1b      	ldr	r3, [r3, #48]	; 0x30
 8006276:	f003 0340 	and.w	r3, r3, #64	; 0x40
 800627a:	607b      	str	r3, [r7, #4]
 800627c:	687b      	ldr	r3, [r7, #4]
 800627e:	2200      	movs	r2, #0
 8006280:	f244 0181 	movw	r1, #16513	; 0x4081
 8006284:	4842      	ldr	r0, [pc, #264]	; (8006390 <MX_GPIO_Init+0x1e8>)
 8006286:	f7fb f8e7 	bl	8001458 <HAL_GPIO_WritePin>
 800628a:	2200      	movs	r2, #0
 800628c:	2140      	movs	r1, #64	; 0x40
 800628e:	4841      	ldr	r0, [pc, #260]	; (8006394 <MX_GPIO_Init+0x1ec>)
 8006290:	f7fb f8e2 	bl	8001458 <HAL_GPIO_WritePin>
 8006294:	f44f 5304 	mov.w	r3, #8448	; 0x2100
 8006298:	627b      	str	r3, [r7, #36]	; 0x24
 800629a:	4b3f      	ldr	r3, [pc, #252]	; (8006398 <MX_GPIO_Init+0x1f0>)
 800629c:	62bb      	str	r3, [r7, #40]	; 0x28
 800629e:	2300      	movs	r3, #0
 80062a0:	62fb      	str	r3, [r7, #44]	; 0x2c
 80062a2:	f107 0324 	add.w	r3, r7, #36	; 0x24
 80062a6:	4619      	mov	r1, r3
 80062a8:	483c      	ldr	r0, [pc, #240]	; (800639c <MX_GPIO_Init+0x1f4>)
 80062aa:	f7fa ff2b 	bl	8001104 <HAL_GPIO_Init>
 80062ae:	2332      	movs	r3, #50	; 0x32
 80062b0:	627b      	str	r3, [r7, #36]	; 0x24
 80062b2:	2302      	movs	r3, #2
 80062b4:	62bb      	str	r3, [r7, #40]	; 0x28
 80062b6:	2300      	movs	r3, #0
 80062b8:	62fb      	str	r3, [r7, #44]	; 0x2c
 80062ba:	2303      	movs	r3, #3
 80062bc:	633b      	str	r3, [r7, #48]	; 0x30
 80062be:	230b      	movs	r3, #11
 80062c0:	637b      	str	r3, [r7, #52]	; 0x34
 80062c2:	f107 0324 	add.w	r3, r7, #36	; 0x24
 80062c6:	4619      	mov	r1, r3
 80062c8:	4834      	ldr	r0, [pc, #208]	; (800639c <MX_GPIO_Init+0x1f4>)
 80062ca:	f7fa ff1b 	bl	8001104 <HAL_GPIO_Init>
 80062ce:	2386      	movs	r3, #134	; 0x86
 80062d0:	627b      	str	r3, [r7, #36]	; 0x24
 80062d2:	2302      	movs	r3, #2
 80062d4:	62bb      	str	r3, [r7, #40]	; 0x28
 80062d6:	2300      	movs	r3, #0
 80062d8:	62fb      	str	r3, [r7, #44]	; 0x2c
 80062da:	2303      	movs	r3, #3
 80062dc:	633b      	str	r3, [r7, #48]	; 0x30
 80062de:	230b      	movs	r3, #11
 80062e0:	637b      	str	r3, [r7, #52]	; 0x34
 80062e2:	f107 0324 	add.w	r3, r7, #36	; 0x24
 80062e6:	4619      	mov	r1, r3
 80062e8:	482d      	ldr	r0, [pc, #180]	; (80063a0 <MX_GPIO_Init+0x1f8>)
 80062ea:	f7fa ff0b 	bl	8001104 <HAL_GPIO_Init>
 80062ee:	f244 0381 	movw	r3, #16513	; 0x4081
 80062f2:	627b      	str	r3, [r7, #36]	; 0x24
 80062f4:	2301      	movs	r3, #1
 80062f6:	62bb      	str	r3, [r7, #40]	; 0x28
 80062f8:	2300      	movs	r3, #0
 80062fa:	62fb      	str	r3, [r7, #44]	; 0x2c
 80062fc:	2300      	movs	r3, #0
 80062fe:	633b      	str	r3, [r7, #48]	; 0x30
 8006300:	f107 0324 	add.w	r3, r7, #36	; 0x24
 8006304:	4619      	mov	r1, r3
 8006306:	4822      	ldr	r0, [pc, #136]	; (8006390 <MX_GPIO_Init+0x1e8>)
 8006308:	f7fa fefc 	bl	8001104 <HAL_GPIO_Init>
 800630c:	f44f 5300 	mov.w	r3, #8192	; 0x2000
 8006310:	627b      	str	r3, [r7, #36]	; 0x24
 8006312:	2302      	movs	r3, #2
 8006314:	62bb      	str	r3, [r7, #40]	; 0x28
 8006316:	2300      	movs	r3, #0
 8006318:	62fb      	str	r3, [r7, #44]	; 0x2c
 800631a:	2303      	movs	r3, #3
 800631c:	633b      	str	r3, [r7, #48]	; 0x30
 800631e:	230b      	movs	r3, #11
 8006320:	637b      	str	r3, [r7, #52]	; 0x34
 8006322:	f107 0324 	add.w	r3, r7, #36	; 0x24
 8006326:	4619      	mov	r1, r3
 8006328:	4819      	ldr	r0, [pc, #100]	; (8006390 <MX_GPIO_Init+0x1e8>)
 800632a:	f7fa feeb 	bl	8001104 <HAL_GPIO_Init>
 800632e:	2340      	movs	r3, #64	; 0x40
 8006330:	627b      	str	r3, [r7, #36]	; 0x24
 8006332:	2301      	movs	r3, #1
 8006334:	62bb      	str	r3, [r7, #40]	; 0x28
 8006336:	2300      	movs	r3, #0
 8006338:	62fb      	str	r3, [r7, #44]	; 0x2c
 800633a:	2300      	movs	r3, #0
 800633c:	633b      	str	r3, [r7, #48]	; 0x30
 800633e:	f107 0324 	add.w	r3, r7, #36	; 0x24
 8006342:	4619      	mov	r1, r3
 8006344:	4813      	ldr	r0, [pc, #76]	; (8006394 <MX_GPIO_Init+0x1ec>)
 8006346:	f7fa fedd 	bl	8001104 <HAL_GPIO_Init>
 800634a:	2380      	movs	r3, #128	; 0x80
 800634c:	627b      	str	r3, [r7, #36]	; 0x24
 800634e:	2300      	movs	r3, #0
 8006350:	62bb      	str	r3, [r7, #40]	; 0x28
 8006352:	2300      	movs	r3, #0
 8006354:	62fb      	str	r3, [r7, #44]	; 0x2c
 8006356:	f107 0324 	add.w	r3, r7, #36	; 0x24
 800635a:	4619      	mov	r1, r3
 800635c:	480d      	ldr	r0, [pc, #52]	; (8006394 <MX_GPIO_Init+0x1ec>)
 800635e:	f7fa fed1 	bl	8001104 <HAL_GPIO_Init>
 8006362:	f44f 5320 	mov.w	r3, #10240	; 0x2800
 8006366:	627b      	str	r3, [r7, #36]	; 0x24
 8006368:	2302      	movs	r3, #2
 800636a:	62bb      	str	r3, [r7, #40]	; 0x28
 800636c:	2300      	movs	r3, #0
 800636e:	62fb      	str	r3, [r7, #44]	; 0x2c
 8006370:	2303      	movs	r3, #3
 8006372:	633b      	str	r3, [r7, #48]	; 0x30
 8006374:	230b      	movs	r3, #11
 8006376:	637b      	str	r3, [r7, #52]	; 0x34
 8006378:	f107 0324 	add.w	r3, r7, #36	; 0x24
 800637c:	4619      	mov	r1, r3
 800637e:	4805      	ldr	r0, [pc, #20]	; (8006394 <MX_GPIO_Init+0x1ec>)
 8006380:	f7fa fec0 	bl	8001104 <HAL_GPIO_Init>
 8006384:	bf00      	nop
 8006386:	3738      	adds	r7, #56	; 0x38
 8006388:	46bd      	mov	sp, r7
 800638a:	bd80      	pop	{r7, pc}
 800638c:	40023800 	.word	0x40023800
 8006390:	40020400 	.word	0x40020400
 8006394:	40021800 	.word	0x40021800
 8006398:	10110000 	.word	0x10110000
 800639c:	40020800 	.word	0x40020800
 80063a0:	40020000 	.word	0x40020000

080063a4 <MX_I2C1_Init>:
 80063a4:	b580      	push	{r7, lr}
 80063a6:	af00      	add	r7, sp, #0
 80063a8:	4b1b      	ldr	r3, [pc, #108]	; (8006418 <MX_I2C1_Init+0x74>)
 80063aa:	4a1c      	ldr	r2, [pc, #112]	; (800641c <MX_I2C1_Init+0x78>)
 80063ac:	601a      	str	r2, [r3, #0]
 80063ae:	4b1a      	ldr	r3, [pc, #104]	; (8006418 <MX_I2C1_Init+0x74>)
 80063b0:	4a1b      	ldr	r2, [pc, #108]	; (8006420 <MX_I2C1_Init+0x7c>)
 80063b2:	605a      	str	r2, [r3, #4]
 80063b4:	4b18      	ldr	r3, [pc, #96]	; (8006418 <MX_I2C1_Init+0x74>)
 80063b6:	2200      	movs	r2, #0
 80063b8:	609a      	str	r2, [r3, #8]
 80063ba:	4b17      	ldr	r3, [pc, #92]	; (8006418 <MX_I2C1_Init+0x74>)
 80063bc:	2201      	movs	r2, #1
 80063be:	60da      	str	r2, [r3, #12]
 80063c0:	4b15      	ldr	r3, [pc, #84]	; (8006418 <MX_I2C1_Init+0x74>)
 80063c2:	2200      	movs	r2, #0
 80063c4:	611a      	str	r2, [r3, #16]
 80063c6:	4b14      	ldr	r3, [pc, #80]	; (8006418 <MX_I2C1_Init+0x74>)
 80063c8:	2200      	movs	r2, #0
 80063ca:	615a      	str	r2, [r3, #20]
 80063cc:	4b12      	ldr	r3, [pc, #72]	; (8006418 <MX_I2C1_Init+0x74>)
 80063ce:	2200      	movs	r2, #0
 80063d0:	619a      	str	r2, [r3, #24]
 80063d2:	4b11      	ldr	r3, [pc, #68]	; (8006418 <MX_I2C1_Init+0x74>)
 80063d4:	2200      	movs	r2, #0
 80063d6:	61da      	str	r2, [r3, #28]
 80063d8:	4b0f      	ldr	r3, [pc, #60]	; (8006418 <MX_I2C1_Init+0x74>)
 80063da:	2200      	movs	r2, #0
 80063dc:	621a      	str	r2, [r3, #32]
 80063de:	480e      	ldr	r0, [pc, #56]	; (8006418 <MX_I2C1_Init+0x74>)
 80063e0:	f7fb f854 	bl	800148c <HAL_I2C_Init>
 80063e4:	4603      	mov	r3, r0
 80063e6:	2b00      	cmp	r3, #0
 80063e8:	d001      	beq.n	80063ee <MX_I2C1_Init+0x4a>
 80063ea:	f000 fbfd 	bl	8006be8 <Error_Handler>
 80063ee:	2100      	movs	r1, #0
 80063f0:	4809      	ldr	r0, [pc, #36]	; (8006418 <MX_I2C1_Init+0x74>)
 80063f2:	f7fc f99a 	bl	800272a <HAL_I2CEx_ConfigAnalogFilter>
 80063f6:	4603      	mov	r3, r0
 80063f8:	2b00      	cmp	r3, #0
 80063fa:	d001      	beq.n	8006400 <MX_I2C1_Init+0x5c>
 80063fc:	f000 fbf4 	bl	8006be8 <Error_Handler>
 8006400:	2100      	movs	r1, #0
 8006402:	4805      	ldr	r0, [pc, #20]	; (8006418 <MX_I2C1_Init+0x74>)
 8006404:	f7fc f9dc 	bl	80027c0 <HAL_I2CEx_ConfigDigitalFilter>
 8006408:	4603      	mov	r3, r0
 800640a:	2b00      	cmp	r3, #0
 800640c:	d001      	beq.n	8006412 <MX_I2C1_Init+0x6e>
 800640e:	f000 fbeb 	bl	8006be8 <Error_Handler>
 8006412:	bf00      	nop
 8006414:	bd80      	pop	{r7, pc}
 8006416:	bf00      	nop
 8006418:	20000218 	.word	0x20000218
 800641c:	40005400 	.word	0x40005400
 8006420:	00808cd2 	.word	0x00808cd2

08006424 <MX_I2C2_Init>:
 8006424:	b580      	push	{r7, lr}
 8006426:	af00      	add	r7, sp, #0
 8006428:	4b1b      	ldr	r3, [pc, #108]	; (8006498 <MX_I2C2_Init+0x74>)
 800642a:	4a1c      	ldr	r2, [pc, #112]	; (800649c <MX_I2C2_Init+0x78>)
 800642c:	601a      	str	r2, [r3, #0]
 800642e:	4b1a      	ldr	r3, [pc, #104]	; (8006498 <MX_I2C2_Init+0x74>)
 8006430:	4a1b      	ldr	r2, [pc, #108]	; (80064a0 <MX_I2C2_Init+0x7c>)
 8006432:	605a      	str	r2, [r3, #4]
 8006434:	4b18      	ldr	r3, [pc, #96]	; (8006498 <MX_I2C2_Init+0x74>)
 8006436:	2200      	movs	r2, #0
 8006438:	609a      	str	r2, [r3, #8]
 800643a:	4b17      	ldr	r3, [pc, #92]	; (8006498 <MX_I2C2_Init+0x74>)
 800643c:	2201      	movs	r2, #1
 800643e:	60da      	str	r2, [r3, #12]
 8006440:	4b15      	ldr	r3, [pc, #84]	; (8006498 <MX_I2C2_Init+0x74>)
 8006442:	2200      	movs	r2, #0
 8006444:	611a      	str	r2, [r3, #16]
 8006446:	4b14      	ldr	r3, [pc, #80]	; (8006498 <MX_I2C2_Init+0x74>)
 8006448:	2200      	movs	r2, #0
 800644a:	615a      	str	r2, [r3, #20]
 800644c:	4b12      	ldr	r3, [pc, #72]	; (8006498 <MX_I2C2_Init+0x74>)
 800644e:	2200      	movs	r2, #0
 8006450:	619a      	str	r2, [r3, #24]
 8006452:	4b11      	ldr	r3, [pc, #68]	; (8006498 <MX_I2C2_Init+0x74>)
 8006454:	2200      	movs	r2, #0
 8006456:	61da      	str	r2, [r3, #28]
 8006458:	4b0f      	ldr	r3, [pc, #60]	; (8006498 <MX_I2C2_Init+0x74>)
 800645a:	2200      	movs	r2, #0
 800645c:	621a      	str	r2, [r3, #32]
 800645e:	480e      	ldr	r0, [pc, #56]	; (8006498 <MX_I2C2_Init+0x74>)
 8006460:	f7fb f814 	bl	800148c <HAL_I2C_Init>
 8006464:	4603      	mov	r3, r0
 8006466:	2b00      	cmp	r3, #0
 8006468:	d001      	beq.n	800646e <MX_I2C2_Init+0x4a>
 800646a:	f000 fbbd 	bl	8006be8 <Error_Handler>
 800646e:	2100      	movs	r1, #0
 8006470:	4809      	ldr	r0, [pc, #36]	; (8006498 <MX_I2C2_Init+0x74>)
 8006472:	f7fc f95a 	bl	800272a <HAL_I2CEx_ConfigAnalogFilter>
 8006476:	4603      	mov	r3, r0
 8006478:	2b00      	cmp	r3, #0
 800647a:	d001      	beq.n	8006480 <MX_I2C2_Init+0x5c>
 800647c:	f000 fbb4 	bl	8006be8 <Error_Handler>
 8006480:	2100      	movs	r1, #0
 8006482:	4805      	ldr	r0, [pc, #20]	; (8006498 <MX_I2C2_Init+0x74>)
 8006484:	f7fc f99c 	bl	80027c0 <HAL_I2CEx_ConfigDigitalFilter>
 8006488:	4603      	mov	r3, r0
 800648a:	2b00      	cmp	r3, #0
 800648c:	d001      	beq.n	8006492 <MX_I2C2_Init+0x6e>
 800648e:	f000 fbab 	bl	8006be8 <Error_Handler>
 8006492:	bf00      	nop
 8006494:	bd80      	pop	{r7, pc}
 8006496:	bf00      	nop
 8006498:	20000264 	.word	0x20000264
 800649c:	40005800 	.word	0x40005800
 80064a0:	00808cd2 	.word	0x00808cd2

080064a4 <HAL_I2C_MspInit>:
 80064a4:	b580      	push	{r7, lr}
 80064a6:	b08c      	sub	sp, #48	; 0x30
 80064a8:	af00      	add	r7, sp, #0
 80064aa:	6078      	str	r0, [r7, #4]
 80064ac:	f107 031c 	add.w	r3, r7, #28
 80064b0:	2200      	movs	r2, #0
 80064b2:	601a      	str	r2, [r3, #0]
 80064b4:	605a      	str	r2, [r3, #4]
 80064b6:	609a      	str	r2, [r3, #8]
 80064b8:	60da      	str	r2, [r3, #12]
 80064ba:	611a      	str	r2, [r3, #16]
 80064bc:	687b      	ldr	r3, [r7, #4]
 80064be:	681b      	ldr	r3, [r3, #0]
 80064c0:	4a3e      	ldr	r2, [pc, #248]	; (80065bc <HAL_I2C_MspInit+0x118>)
 80064c2:	4293      	cmp	r3, r2
 80064c4:	d139      	bne.n	800653a <HAL_I2C_MspInit+0x96>
 80064c6:	4b3e      	ldr	r3, [pc, #248]	; (80065c0 <HAL_I2C_MspInit+0x11c>)
 80064c8:	6b1b      	ldr	r3, [r3, #48]	; 0x30
 80064ca:	4a3d      	ldr	r2, [pc, #244]	; (80065c0 <HAL_I2C_MspInit+0x11c>)
 80064cc:	f043 0302 	orr.w	r3, r3, #2
 80064d0:	6313      	str	r3, [r2, #48]	; 0x30
 80064d2:	4b3b      	ldr	r3, [pc, #236]	; (80065c0 <HAL_I2C_MspInit+0x11c>)
 80064d4:	6b1b      	ldr	r3, [r3, #48]	; 0x30
 80064d6:	f003 0302 	and.w	r3, r3, #2
 80064da:	61bb      	str	r3, [r7, #24]
 80064dc:	69bb      	ldr	r3, [r7, #24]
 80064de:	f44f 7310 	mov.w	r3, #576	; 0x240
 80064e2:	61fb      	str	r3, [r7, #28]
 80064e4:	2312      	movs	r3, #18
 80064e6:	623b      	str	r3, [r7, #32]
 80064e8:	2301      	movs	r3, #1
 80064ea:	627b      	str	r3, [r7, #36]	; 0x24
 80064ec:	2303      	movs	r3, #3
 80064ee:	62bb      	str	r3, [r7, #40]	; 0x28
 80064f0:	2304      	movs	r3, #4
 80064f2:	62fb      	str	r3, [r7, #44]	; 0x2c
 80064f4:	f107 031c 	add.w	r3, r7, #28
 80064f8:	4619      	mov	r1, r3
 80064fa:	4832      	ldr	r0, [pc, #200]	; (80065c4 <HAL_I2C_MspInit+0x120>)
 80064fc:	f7fa fe02 	bl	8001104 <HAL_GPIO_Init>
 8006500:	4b2f      	ldr	r3, [pc, #188]	; (80065c0 <HAL_I2C_MspInit+0x11c>)
 8006502:	6c1b      	ldr	r3, [r3, #64]	; 0x40
 8006504:	4a2e      	ldr	r2, [pc, #184]	; (80065c0 <HAL_I2C_MspInit+0x11c>)
 8006506:	f443 1300 	orr.w	r3, r3, #2097152	; 0x200000
 800650a:	6413      	str	r3, [r2, #64]	; 0x40
 800650c:	4b2c      	ldr	r3, [pc, #176]	; (80065c0 <HAL_I2C_MspInit+0x11c>)
 800650e:	6c1b      	ldr	r3, [r3, #64]	; 0x40
 8006510:	f403 1300 	and.w	r3, r3, #2097152	; 0x200000
 8006514:	617b      	str	r3, [r7, #20]
 8006516:	697b      	ldr	r3, [r7, #20]
 8006518:	2200      	movs	r2, #0
 800651a:	2100      	movs	r1, #0
 800651c:	201f      	movs	r0, #31
 800651e:	f7fa fd98 	bl	8001052 <HAL_NVIC_SetPriority>
 8006522:	201f      	movs	r0, #31
 8006524:	f7fa fdb1 	bl	800108a <HAL_NVIC_EnableIRQ>
 8006528:	2200      	movs	r2, #0
 800652a:	2100      	movs	r1, #0
 800652c:	2020      	movs	r0, #32
 800652e:	f7fa fd90 	bl	8001052 <HAL_NVIC_SetPriority>
 8006532:	2020      	movs	r0, #32
 8006534:	f7fa fda9 	bl	800108a <HAL_NVIC_EnableIRQ>
 8006538:	e03c      	b.n	80065b4 <HAL_I2C_MspInit+0x110>
 800653a:	687b      	ldr	r3, [r7, #4]
 800653c:	681b      	ldr	r3, [r3, #0]
 800653e:	4a22      	ldr	r2, [pc, #136]	; (80065c8 <HAL_I2C_MspInit+0x124>)
 8006540:	4293      	cmp	r3, r2
 8006542:	d137      	bne.n	80065b4 <HAL_I2C_MspInit+0x110>
 8006544:	4b1e      	ldr	r3, [pc, #120]	; (80065c0 <HAL_I2C_MspInit+0x11c>)
 8006546:	6b1b      	ldr	r3, [r3, #48]	; 0x30
 8006548:	4a1d      	ldr	r2, [pc, #116]	; (80065c0 <HAL_I2C_MspInit+0x11c>)
 800654a:	f043 0320 	orr.w	r3, r3, #32
 800654e:	6313      	str	r3, [r2, #48]	; 0x30
 8006550:	4b1b      	ldr	r3, [pc, #108]	; (80065c0 <HAL_I2C_MspInit+0x11c>)
 8006552:	6b1b      	ldr	r3, [r3, #48]	; 0x30
 8006554:	f003 0320 	and.w	r3, r3, #32
 8006558:	613b      	str	r3, [r7, #16]
 800655a:	693b      	ldr	r3, [r7, #16]
 800655c:	2303      	movs	r3, #3
 800655e:	61fb      	str	r3, [r7, #28]
 8006560:	2312      	movs	r3, #18
 8006562:	623b      	str	r3, [r7, #32]
 8006564:	2301      	movs	r3, #1
 8006566:	627b      	str	r3, [r7, #36]	; 0x24
 8006568:	2303      	movs	r3, #3
 800656a:	62bb      	str	r3, [r7, #40]	; 0x28
 800656c:	2304      	movs	r3, #4
 800656e:	62fb      	str	r3, [r7, #44]	; 0x2c
 8006570:	f107 031c 	add.w	r3, r7, #28
 8006574:	4619      	mov	r1, r3
 8006576:	4815      	ldr	r0, [pc, #84]	; (80065cc <HAL_I2C_MspInit+0x128>)
 8006578:	f7fa fdc4 	bl	8001104 <HAL_GPIO_Init>
 800657c:	4b10      	ldr	r3, [pc, #64]	; (80065c0 <HAL_I2C_MspInit+0x11c>)
 800657e:	6c1b      	ldr	r3, [r3, #64]	; 0x40
 8006580:	4a0f      	ldr	r2, [pc, #60]	; (80065c0 <HAL_I2C_MspInit+0x11c>)
 8006582:	f443 0380 	orr.w	r3, r3, #4194304	; 0x400000
 8006586:	6413      	str	r3, [r2, #64]	; 0x40
 8006588:	4b0d      	ldr	r3, [pc, #52]	; (80065c0 <HAL_I2C_MspInit+0x11c>)
 800658a:	6c1b      	ldr	r3, [r3, #64]	; 0x40
 800658c:	f403 0380 	and.w	r3, r3, #4194304	; 0x400000
 8006590:	60fb      	str	r3, [r7, #12]
 8006592:	68fb      	ldr	r3, [r7, #12]
 8006594:	2200      	movs	r2, #0
 8006596:	2100      	movs	r1, #0
 8006598:	2021      	movs	r0, #33	; 0x21
 800659a:	f7fa fd5a 	bl	8001052 <HAL_NVIC_SetPriority>
 800659e:	2021      	movs	r0, #33	; 0x21
 80065a0:	f7fa fd73 	bl	800108a <HAL_NVIC_EnableIRQ>
 80065a4:	2200      	movs	r2, #0
 80065a6:	2100      	movs	r1, #0
 80065a8:	2022      	movs	r0, #34	; 0x22
 80065aa:	f7fa fd52 	bl	8001052 <HAL_NVIC_SetPriority>
 80065ae:	2022      	movs	r0, #34	; 0x22
 80065b0:	f7fa fd6b 	bl	800108a <HAL_NVIC_EnableIRQ>
 80065b4:	bf00      	nop
 80065b6:	3730      	adds	r7, #48	; 0x30
 80065b8:	46bd      	mov	sp, r7
 80065ba:	bd80      	pop	{r7, pc}
 80065bc:	40005400 	.word	0x40005400
 80065c0:	40023800 	.word	0x40023800
 80065c4:	40020400 	.word	0x40020400
 80065c8:	40005800 	.word	0x40005800
 80065cc:	40021400 	.word	0x40021400

080065d0 <main>:
/**
  * @brief  The application entry point.
  * @retval int
  */
int main(void)
{
 80065d0:	b598      	push	{r3, r4, r7, lr}
 80065d2:	af00      	add	r7, sp, #0
  

  /* MCU Configuration--------------------------------------------------------*/

  /* Reset of all peripherals, Initializes the Flash interface and the Systick. */
  HAL_Init();
 80065d4:	f7fa fbe2 	bl	8000d9c <HAL_Init>
  /* USER CODE BEGIN Init */

  /* USER CODE END Init */

  /* Configure the system clock */
  SystemClock_Config();
 80065d8:	f000 f91c 	bl	8006814 <SystemClock_Config>
  /* USER CODE BEGIN SysInit */

  /* USER CODE END SysInit */

  /* Initialize all configured peripherals */
  MX_GPIO_Init();
 80065dc:	f7ff fde4 	bl	80061a8 <MX_GPIO_Init>
  MX_USART3_UART_Init();
 80065e0:	f000 fdd8 	bl	8007194 <MX_USART3_UART_Init>
  MX_USB_OTG_FS_PCD_Init();
 80065e4:	f000 fe52 	bl	800728c <MX_USB_OTG_FS_PCD_Init>
  MX_I2C1_Init();
 80065e8:	f7ff fedc 	bl	80063a4 <MX_I2C1_Init>
  MX_I2C2_Init();
 80065ec:	f7ff ff1a 	bl	8006424 <MX_I2C2_Init>
  MX_TIM3_Init();
 80065f0:	f000 fcae 	bl	8006f50 <MX_TIM3_Init>
  MX_TIM1_Init();
 80065f4:	f000 fbe6 	bl	8006dc4 <MX_TIM1_Init>
  /* USER CODE BEGIN 2 */
  HAL_UART_Receive_IT(&huart3, msg, 3);
 80065f8:	2203      	movs	r2, #3
 80065fa:	4976      	ldr	r1, [pc, #472]	; (80067d4 <main+0x204>)
 80065fc:	4876      	ldr	r0, [pc, #472]	; (80067d8 <main+0x208>)
 80065fe:	f7fe fb09 	bl	8004c14 <HAL_UART_Receive_IT>
  BH1750_Init(&hi2c2);
 8006602:	4876      	ldr	r0, [pc, #472]	; (80067dc <main+0x20c>)
 8006604:	f7ff fcc0 	bl	8005f88 <BH1750_Init>
  BH1750_SetMode(CONTINUOUS_HIGH_RES_MODE_2);
 8006608:	2011      	movs	r0, #17
 800660a:	f7ff fcf3 	bl	8005ff4 <BH1750_SetMode>
  HAL_TIM_PWM_Start(&htim1, TIM_CHANNEL_1);
 800660e:	2100      	movs	r1, #0
 8006610:	4873      	ldr	r0, [pc, #460]	; (80067e0 <main+0x210>)
 8006612:	f7fd fb15 	bl	8003c40 <HAL_TIM_PWM_Start>
  HAL_TIM_PWM_Start(&htim1, TIM_CHANNEL_2);
 8006616:	2104      	movs	r1, #4
 8006618:	4871      	ldr	r0, [pc, #452]	; (80067e0 <main+0x210>)
 800661a:	f7fd fb11 	bl	8003c40 <HAL_TIM_PWM_Start>
  HAL_TIM_PWM_Start(&htim1, TIM_CHANNEL_3);
 800661e:	2108      	movs	r1, #8
 8006620:	486f      	ldr	r0, [pc, #444]	; (80067e0 <main+0x210>)
 8006622:	f7fd fb0d 	bl	8003c40 <HAL_TIM_PWM_Start>

  /* USER CODE END 2 */

  /* Infinite loop */
  /* USER CODE BEGIN WHILE */
  J_z=__HAL_TIM_GET_COMPARE(&htim1, TIM_CHANNEL_1);
 8006626:	4b6e      	ldr	r3, [pc, #440]	; (80067e0 <main+0x210>)
 8006628:	681b      	ldr	r3, [r3, #0]
 800662a:	6b5b      	ldr	r3, [r3, #52]	; 0x34
 800662c:	ee07 3a90 	vmov	s15, r3
 8006630:	eef8 7a67 	vcvt.f32.u32	s15, s15
 8006634:	4b6b      	ldr	r3, [pc, #428]	; (80067e4 <main+0x214>)
 8006636:	edc3 7a00 	vstr	s15, [r3]
//	  	  {
//	  		__HAL_TIM_SET_COMPARE(&htim1, TIM_CHANNEL_1, jasnosc);
//	  		__HAL_TIM_SET_COMPARE(&htim1, TIM_CHANNEL_2, jasnosc);
//	  		__HAL_TIM_SET_COMPARE(&htim1, TIM_CHANNEL_3, jasnosc);
//	  		HAL_Delay(100);
	 	  if(BH1750_OK == BH1750_ReadLight(&BH1750_lux_1))
 800663a:	486b      	ldr	r0, [pc, #428]	; (80067e8 <main+0x218>)
 800663c:	f7ff fd5a 	bl	80060f4 <BH1750_ReadLight>
 8006640:	4603      	mov	r3, r0
 8006642:	2b00      	cmp	r3, #0
 8006644:	d1f9      	bne.n	800663a <main+0x6a>
	 	  {
	 		 BH1750_lux_int_1 = BH1750_lux_1;
 8006646:	4b68      	ldr	r3, [pc, #416]	; (80067e8 <main+0x218>)
 8006648:	edd3 7a00 	vldr	s15, [r3]
 800664c:	eefd 7ae7 	vcvt.s32.f32	s15, s15
 8006650:	ee17 2a90 	vmov	r2, s15
 8006654:	4b65      	ldr	r3, [pc, #404]	; (80067ec <main+0x21c>)
 8006656:	601a      	str	r2, [r3, #0]

	 		 J_f=J_z*((2000-BH1750_lux_1)/2000);
 8006658:	4b63      	ldr	r3, [pc, #396]	; (80067e8 <main+0x218>)
 800665a:	edd3 7a00 	vldr	s15, [r3]
 800665e:	ed9f 7a64 	vldr	s14, [pc, #400]	; 80067f0 <main+0x220>
 8006662:	ee77 7a67 	vsub.f32	s15, s14, s15
 8006666:	eddf 6a62 	vldr	s13, [pc, #392]	; 80067f0 <main+0x220>
 800666a:	ee87 7aa6 	vdiv.f32	s14, s15, s13
 800666e:	4b5d      	ldr	r3, [pc, #372]	; (80067e4 <main+0x214>)
 8006670:	edd3 7a00 	vldr	s15, [r3]
 8006674:	ee67 7a27 	vmul.f32	s15, s14, s15
 8006678:	4b5e      	ldr	r3, [pc, #376]	; (80067f4 <main+0x224>)
 800667a:	edc3 7a00 	vstr	s15, [r3]
	 		 wyp=J_f/(0.75);
 800667e:	4b5d      	ldr	r3, [pc, #372]	; (80067f4 <main+0x224>)
 8006680:	681b      	ldr	r3, [r3, #0]
 8006682:	4618      	mov	r0, r3
 8006684:	f7f9 ff78 	bl	8000578 <__aeabi_f2d>
 8006688:	f04f 0200 	mov.w	r2, #0
 800668c:	4b5a      	ldr	r3, [pc, #360]	; (80067f8 <main+0x228>)
 800668e:	f7fa f8f5 	bl	800087c <__aeabi_ddiv>
 8006692:	4603      	mov	r3, r0
 8006694:	460c      	mov	r4, r1
 8006696:	4618      	mov	r0, r3
 8006698:	4621      	mov	r1, r4
 800669a:	f7fa f9d7 	bl	8000a4c <__aeabi_d2iz>
 800669e:	4602      	mov	r2, r0
 80066a0:	4b56      	ldr	r3, [pc, #344]	; (80067fc <main+0x22c>)
 80066a2:	601a      	str	r2, [r3, #0]

	 		 if(wyp>0 && wyp <=1000)
 80066a4:	4b55      	ldr	r3, [pc, #340]	; (80067fc <main+0x22c>)
 80066a6:	681b      	ldr	r3, [r3, #0]
 80066a8:	2b00      	cmp	r3, #0
 80066aa:	dd28      	ble.n	80066fe <main+0x12e>
 80066ac:	4b53      	ldr	r3, [pc, #332]	; (80067fc <main+0x22c>)
 80066ae:	681b      	ldr	r3, [r3, #0]
 80066b0:	f5b3 7f7a 	cmp.w	r3, #1000	; 0x3e8
 80066b4:	dc23      	bgt.n	80066fe <main+0x12e>
	 		 {
	 			__HAL_TIM_SET_COMPARE(&htim1, TIM_CHANNEL_1, wyp);
 80066b6:	4b51      	ldr	r3, [pc, #324]	; (80067fc <main+0x22c>)
 80066b8:	681a      	ldr	r2, [r3, #0]
 80066ba:	4b49      	ldr	r3, [pc, #292]	; (80067e0 <main+0x210>)
 80066bc:	681b      	ldr	r3, [r3, #0]
 80066be:	635a      	str	r2, [r3, #52]	; 0x34
	 			__HAL_TIM_SET_COMPARE(&htim1, TIM_CHANNEL_2, wyp*NightMode/10);
 80066c0:	4b4e      	ldr	r3, [pc, #312]	; (80067fc <main+0x22c>)
 80066c2:	681b      	ldr	r3, [r3, #0]
 80066c4:	4a4e      	ldr	r2, [pc, #312]	; (8006800 <main+0x230>)
 80066c6:	6812      	ldr	r2, [r2, #0]
 80066c8:	fb02 f303 	mul.w	r3, r2, r3
 80066cc:	4a4d      	ldr	r2, [pc, #308]	; (8006804 <main+0x234>)
 80066ce:	fb82 1203 	smull	r1, r2, r2, r3
 80066d2:	1092      	asrs	r2, r2, #2
 80066d4:	17db      	asrs	r3, r3, #31
 80066d6:	1ad2      	subs	r2, r2, r3
 80066d8:	4b41      	ldr	r3, [pc, #260]	; (80067e0 <main+0x210>)
 80066da:	681b      	ldr	r3, [r3, #0]
 80066dc:	639a      	str	r2, [r3, #56]	; 0x38
	 			__HAL_TIM_SET_COMPARE(&htim1, TIM_CHANNEL_3, wyp*NightMode/10);
 80066de:	4b47      	ldr	r3, [pc, #284]	; (80067fc <main+0x22c>)
 80066e0:	681b      	ldr	r3, [r3, #0]
 80066e2:	4a47      	ldr	r2, [pc, #284]	; (8006800 <main+0x230>)
 80066e4:	6812      	ldr	r2, [r2, #0]
 80066e6:	fb02 f303 	mul.w	r3, r2, r3
 80066ea:	4a46      	ldr	r2, [pc, #280]	; (8006804 <main+0x234>)
 80066ec:	fb82 1203 	smull	r1, r2, r2, r3
 80066f0:	1092      	asrs	r2, r2, #2
 80066f2:	17db      	asrs	r3, r3, #31
 80066f4:	1ad2      	subs	r2, r2, r3
 80066f6:	4b3a      	ldr	r3, [pc, #232]	; (80067e0 <main+0x210>)
 80066f8:	681b      	ldr	r3, [r3, #0]
 80066fa:	63da      	str	r2, [r3, #60]	; 0x3c
 80066fc:	e052      	b.n	80067a4 <main+0x1d4>
	 		 }
	 		 else if(wyp>1000)
 80066fe:	4b3f      	ldr	r3, [pc, #252]	; (80067fc <main+0x22c>)
 8006700:	681b      	ldr	r3, [r3, #0]
 8006702:	f5b3 7f7a 	cmp.w	r3, #1000	; 0x3e8
 8006706:	dd27      	ble.n	8006758 <main+0x188>
	 		 {
	 			 wyp=1000;
 8006708:	4b3c      	ldr	r3, [pc, #240]	; (80067fc <main+0x22c>)
 800670a:	f44f 727a 	mov.w	r2, #1000	; 0x3e8
 800670e:	601a      	str	r2, [r3, #0]
	 			__HAL_TIM_SET_COMPARE(&htim1, TIM_CHANNEL_1, wyp);
 8006710:	4b3a      	ldr	r3, [pc, #232]	; (80067fc <main+0x22c>)
 8006712:	681a      	ldr	r2, [r3, #0]
 8006714:	4b32      	ldr	r3, [pc, #200]	; (80067e0 <main+0x210>)
 8006716:	681b      	ldr	r3, [r3, #0]
 8006718:	635a      	str	r2, [r3, #52]	; 0x34
	 			__HAL_TIM_SET_COMPARE(&htim1, TIM_CHANNEL_2, wyp*NightMode/10);
 800671a:	4b38      	ldr	r3, [pc, #224]	; (80067fc <main+0x22c>)
 800671c:	681b      	ldr	r3, [r3, #0]
 800671e:	4a38      	ldr	r2, [pc, #224]	; (8006800 <main+0x230>)
 8006720:	6812      	ldr	r2, [r2, #0]
 8006722:	fb02 f303 	mul.w	r3, r2, r3
 8006726:	4a37      	ldr	r2, [pc, #220]	; (8006804 <main+0x234>)
 8006728:	fb82 1203 	smull	r1, r2, r2, r3
 800672c:	1092      	asrs	r2, r2, #2
 800672e:	17db      	asrs	r3, r3, #31
 8006730:	1ad2      	subs	r2, r2, r3
 8006732:	4b2b      	ldr	r3, [pc, #172]	; (80067e0 <main+0x210>)
 8006734:	681b      	ldr	r3, [r3, #0]
 8006736:	639a      	str	r2, [r3, #56]	; 0x38
	 			__HAL_TIM_SET_COMPARE(&htim1, TIM_CHANNEL_3, wyp*NightMode/10);
 8006738:	4b30      	ldr	r3, [pc, #192]	; (80067fc <main+0x22c>)
 800673a:	681b      	ldr	r3, [r3, #0]
 800673c:	4a30      	ldr	r2, [pc, #192]	; (8006800 <main+0x230>)
 800673e:	6812      	ldr	r2, [r2, #0]
 8006740:	fb02 f303 	mul.w	r3, r2, r3
 8006744:	4a2f      	ldr	r2, [pc, #188]	; (8006804 <main+0x234>)
 8006746:	fb82 1203 	smull	r1, r2, r2, r3
 800674a:	1092      	asrs	r2, r2, #2
 800674c:	17db      	asrs	r3, r3, #31
 800674e:	1ad2      	subs	r2, r2, r3
 8006750:	4b23      	ldr	r3, [pc, #140]	; (80067e0 <main+0x210>)
 8006752:	681b      	ldr	r3, [r3, #0]
 8006754:	63da      	str	r2, [r3, #60]	; 0x3c
 8006756:	e025      	b.n	80067a4 <main+0x1d4>
	 		 }
	 		 else
	 		 {
	 			 wyp=0;
 8006758:	4b28      	ldr	r3, [pc, #160]	; (80067fc <main+0x22c>)
 800675a:	2200      	movs	r2, #0
 800675c:	601a      	str	r2, [r3, #0]
	 			__HAL_TIM_SET_COMPARE(&htim1, TIM_CHANNEL_1, wyp);
 800675e:	4b27      	ldr	r3, [pc, #156]	; (80067fc <main+0x22c>)
 8006760:	681a      	ldr	r2, [r3, #0]
 8006762:	4b1f      	ldr	r3, [pc, #124]	; (80067e0 <main+0x210>)
 8006764:	681b      	ldr	r3, [r3, #0]
 8006766:	635a      	str	r2, [r3, #52]	; 0x34
	 			__HAL_TIM_SET_COMPARE(&htim1, TIM_CHANNEL_2, wyp*NightMode/10);
 8006768:	4b24      	ldr	r3, [pc, #144]	; (80067fc <main+0x22c>)
 800676a:	681b      	ldr	r3, [r3, #0]
 800676c:	4a24      	ldr	r2, [pc, #144]	; (8006800 <main+0x230>)
 800676e:	6812      	ldr	r2, [r2, #0]
 8006770:	fb02 f303 	mul.w	r3, r2, r3
 8006774:	4a23      	ldr	r2, [pc, #140]	; (8006804 <main+0x234>)
 8006776:	fb82 1203 	smull	r1, r2, r2, r3
 800677a:	1092      	asrs	r2, r2, #2
 800677c:	17db      	asrs	r3, r3, #31
 800677e:	1ad2      	subs	r2, r2, r3
 8006780:	4b17      	ldr	r3, [pc, #92]	; (80067e0 <main+0x210>)
 8006782:	681b      	ldr	r3, [r3, #0]
 8006784:	639a      	str	r2, [r3, #56]	; 0x38
	 			__HAL_TIM_SET_COMPARE(&htim1, TIM_CHANNEL_3, wyp*NightMode/10);
 8006786:	4b1d      	ldr	r3, [pc, #116]	; (80067fc <main+0x22c>)
 8006788:	681b      	ldr	r3, [r3, #0]
 800678a:	4a1d      	ldr	r2, [pc, #116]	; (8006800 <main+0x230>)
 800678c:	6812      	ldr	r2, [r2, #0]
 800678e:	fb02 f303 	mul.w	r3, r2, r3
 8006792:	4a1c      	ldr	r2, [pc, #112]	; (8006804 <main+0x234>)
 8006794:	fb82 1203 	smull	r1, r2, r2, r3
 8006798:	1092      	asrs	r2, r2, #2
 800679a:	17db      	asrs	r3, r3, #31
 800679c:	1ad2      	subs	r2, r2, r3
 800679e:	4b10      	ldr	r3, [pc, #64]	; (80067e0 <main+0x210>)
 80067a0:	681b      	ldr	r3, [r3, #0]
 80067a2:	63da      	str	r2, [r3, #60]	; 0x3c
	 		 }
	 		HAL_Delay(10);
 80067a4:	200a      	movs	r0, #10
 80067a6:	f7fa fb57 	bl	8000e58 <HAL_Delay>
	 		size = sprintf(buffer, "%d, %d;\n\r", BH1750_lux_int_1,wyp);
 80067aa:	4b10      	ldr	r3, [pc, #64]	; (80067ec <main+0x21c>)
 80067ac:	681a      	ldr	r2, [r3, #0]
 80067ae:	4b13      	ldr	r3, [pc, #76]	; (80067fc <main+0x22c>)
 80067b0:	681b      	ldr	r3, [r3, #0]
 80067b2:	4915      	ldr	r1, [pc, #84]	; (8006808 <main+0x238>)
 80067b4:	4815      	ldr	r0, [pc, #84]	; (800680c <main+0x23c>)
 80067b6:	f000 fe53 	bl	8007460 <siprintf>
 80067ba:	4603      	mov	r3, r0
 80067bc:	b2da      	uxtb	r2, r3
 80067be:	4b14      	ldr	r3, [pc, #80]	; (8006810 <main+0x240>)
 80067c0:	701a      	strb	r2, [r3, #0]
	 		HAL_UART_Transmit(&huart3, (uint8_t*)buffer, size, 200);
 80067c2:	4b13      	ldr	r3, [pc, #76]	; (8006810 <main+0x240>)
 80067c4:	781b      	ldrb	r3, [r3, #0]
 80067c6:	b29a      	uxth	r2, r3
 80067c8:	23c8      	movs	r3, #200	; 0xc8
 80067ca:	4910      	ldr	r1, [pc, #64]	; (800680c <main+0x23c>)
 80067cc:	4802      	ldr	r0, [pc, #8]	; (80067d8 <main+0x208>)
 80067ce:	f7fe f933 	bl	8004a38 <HAL_UART_Transmit>
	 	  if(BH1750_OK == BH1750_ReadLight(&BH1750_lux_1))
 80067d2:	e732      	b.n	800663a <main+0x6a>
 80067d4:	200002bc 	.word	0x200002bc
 80067d8:	20000380 	.word	0x20000380
 80067dc:	20000264 	.word	0x20000264
 80067e0:	20000340 	.word	0x20000340
 80067e4:	200002c0 	.word	0x200002c0
 80067e8:	200002ec 	.word	0x200002ec
 80067ec:	200002fc 	.word	0x200002fc
 80067f0:	44fa0000 	.word	0x44fa0000
 80067f4:	200002f8 	.word	0x200002f8
 80067f8:	3fe80000 	.word	0x3fe80000
 80067fc:	200002b0 	.word	0x200002b0
 8006800:	20000008 	.word	0x20000008
 8006804:	66666667 	.word	0x66666667
 8006808:	08007df0 	.word	0x08007df0
 800680c:	200002c4 	.word	0x200002c4
 8006810:	200002f0 	.word	0x200002f0

08006814 <SystemClock_Config>:
/**
  * @brief System Clock Configuration
  * @retval None
  */
void SystemClock_Config(void)
{
 8006814:	b580      	push	{r7, lr}
 8006816:	b0b4      	sub	sp, #208	; 0xd0
 8006818:	af00      	add	r7, sp, #0
  RCC_OscInitTypeDef RCC_OscInitStruct = {0};
 800681a:	f107 03a0 	add.w	r3, r7, #160	; 0xa0
 800681e:	2230      	movs	r2, #48	; 0x30
 8006820:	2100      	movs	r1, #0
 8006822:	4618      	mov	r0, r3
 8006824:	f000 fe14 	bl	8007450 <memset>
  RCC_ClkInitTypeDef RCC_ClkInitStruct = {0};
 8006828:	f107 038c 	add.w	r3, r7, #140	; 0x8c
 800682c:	2200      	movs	r2, #0
 800682e:	601a      	str	r2, [r3, #0]
 8006830:	605a      	str	r2, [r3, #4]
 8006832:	609a      	str	r2, [r3, #8]
 8006834:	60da      	str	r2, [r3, #12]
 8006836:	611a      	str	r2, [r3, #16]
  RCC_PeriphCLKInitTypeDef PeriphClkInitStruct = {0};
 8006838:	f107 0308 	add.w	r3, r7, #8
 800683c:	2284      	movs	r2, #132	; 0x84
 800683e:	2100      	movs	r1, #0
 8006840:	4618      	mov	r0, r3
 8006842:	f000 fe05 	bl	8007450 <memset>

  /** Configure LSE Drive Capability 
  */
  HAL_PWR_EnableBkUpAccess();
 8006846:	f7fc f943 	bl	8002ad0 <HAL_PWR_EnableBkUpAccess>
  /** Configure the main internal regulator output voltage 
  */
  __HAL_RCC_PWR_CLK_ENABLE();
 800684a:	4b39      	ldr	r3, [pc, #228]	; (8006930 <SystemClock_Config+0x11c>)
 800684c:	6c1b      	ldr	r3, [r3, #64]	; 0x40
 800684e:	4a38      	ldr	r2, [pc, #224]	; (8006930 <SystemClock_Config+0x11c>)
 8006850:	f043 5380 	orr.w	r3, r3, #268435456	; 0x10000000
 8006854:	6413      	str	r3, [r2, #64]	; 0x40
 8006856:	4b36      	ldr	r3, [pc, #216]	; (8006930 <SystemClock_Config+0x11c>)
 8006858:	6c1b      	ldr	r3, [r3, #64]	; 0x40
 800685a:	f003 5380 	and.w	r3, r3, #268435456	; 0x10000000
 800685e:	607b      	str	r3, [r7, #4]
 8006860:	687b      	ldr	r3, [r7, #4]
  __HAL_PWR_VOLTAGESCALING_CONFIG(PWR_REGULATOR_VOLTAGE_SCALE3);
 8006862:	4b34      	ldr	r3, [pc, #208]	; (8006934 <SystemClock_Config+0x120>)
 8006864:	681b      	ldr	r3, [r3, #0]
 8006866:	f423 4340 	bic.w	r3, r3, #49152	; 0xc000
 800686a:	4a32      	ldr	r2, [pc, #200]	; (8006934 <SystemClock_Config+0x120>)
 800686c:	f443 4380 	orr.w	r3, r3, #16384	; 0x4000
 8006870:	6013      	str	r3, [r2, #0]
 8006872:	4b30      	ldr	r3, [pc, #192]	; (8006934 <SystemClock_Config+0x120>)
 8006874:	681b      	ldr	r3, [r3, #0]
 8006876:	f403 4340 	and.w	r3, r3, #49152	; 0xc000
 800687a:	603b      	str	r3, [r7, #0]
 800687c:	683b      	ldr	r3, [r7, #0]
  /** Initializes the CPU, AHB and APB busses clocks 
  */
  RCC_OscInitStruct.OscillatorType = RCC_OSCILLATORTYPE_HSE;
 800687e:	2301      	movs	r3, #1
 8006880:	f8c7 30a0 	str.w	r3, [r7, #160]	; 0xa0
  RCC_OscInitStruct.HSEState = RCC_HSE_BYPASS;
 8006884:	f44f 23a0 	mov.w	r3, #327680	; 0x50000
 8006888:	f8c7 30a4 	str.w	r3, [r7, #164]	; 0xa4
  RCC_OscInitStruct.PLL.PLLState = RCC_PLL_ON;
 800688c:	2302      	movs	r3, #2
 800688e:	f8c7 30b8 	str.w	r3, [r7, #184]	; 0xb8
  RCC_OscInitStruct.PLL.PLLSource = RCC_PLLSOURCE_HSE;
 8006892:	f44f 0380 	mov.w	r3, #4194304	; 0x400000
 8006896:	f8c7 30bc 	str.w	r3, [r7, #188]	; 0xbc
  RCC_OscInitStruct.PLL.PLLM = 4;
 800689a:	2304      	movs	r3, #4
 800689c:	f8c7 30c0 	str.w	r3, [r7, #192]	; 0xc0
  RCC_OscInitStruct.PLL.PLLN = 72;
 80068a0:	2348      	movs	r3, #72	; 0x48
 80068a2:	f8c7 30c4 	str.w	r3, [r7, #196]	; 0xc4
  RCC_OscInitStruct.PLL.PLLP = RCC_PLLP_DIV2;
 80068a6:	2302      	movs	r3, #2
 80068a8:	f8c7 30c8 	str.w	r3, [r7, #200]	; 0xc8
  RCC_OscInitStruct.PLL.PLLQ = 3;
 80068ac:	2303      	movs	r3, #3
 80068ae:	f8c7 30cc 	str.w	r3, [r7, #204]	; 0xcc
  if (HAL_RCC_OscConfig(&RCC_OscInitStruct) != HAL_OK)
 80068b2:	f107 03a0 	add.w	r3, r7, #160	; 0xa0
 80068b6:	4618      	mov	r0, r3
 80068b8:	f7fc f91a 	bl	8002af0 <HAL_RCC_OscConfig>
 80068bc:	4603      	mov	r3, r0
 80068be:	2b00      	cmp	r3, #0
 80068c0:	d001      	beq.n	80068c6 <SystemClock_Config+0xb2>
  {
    Error_Handler();
 80068c2:	f000 f991 	bl	8006be8 <Error_Handler>
  }
  /** Initializes the CPU, AHB and APB busses clocks 
  */
  RCC_ClkInitStruct.ClockType = RCC_CLOCKTYPE_HCLK|RCC_CLOCKTYPE_SYSCLK
 80068c6:	230f      	movs	r3, #15
 80068c8:	f8c7 308c 	str.w	r3, [r7, #140]	; 0x8c
                              |RCC_CLOCKTYPE_PCLK1|RCC_CLOCKTYPE_PCLK2;
  RCC_ClkInitStruct.SYSCLKSource = RCC_SYSCLKSOURCE_PLLCLK;
 80068cc:	2302      	movs	r3, #2
 80068ce:	f8c7 3090 	str.w	r3, [r7, #144]	; 0x90
  RCC_ClkInitStruct.AHBCLKDivider = RCC_SYSCLK_DIV1;
 80068d2:	2300      	movs	r3, #0
 80068d4:	f8c7 3094 	str.w	r3, [r7, #148]	; 0x94
  RCC_ClkInitStruct.APB1CLKDivider = RCC_HCLK_DIV2;
 80068d8:	f44f 5380 	mov.w	r3, #4096	; 0x1000
 80068dc:	f8c7 3098 	str.w	r3, [r7, #152]	; 0x98
  RCC_ClkInitStruct.APB2CLKDivider = RCC_HCLK_DIV1;
 80068e0:	2300      	movs	r3, #0
 80068e2:	f8c7 309c 	str.w	r3, [r7, #156]	; 0x9c

  if (HAL_RCC_ClockConfig(&RCC_ClkInitStruct, FLASH_LATENCY_2) != HAL_OK)
 80068e6:	f107 038c 	add.w	r3, r7, #140	; 0x8c
 80068ea:	2102      	movs	r1, #2
 80068ec:	4618      	mov	r0, r3
 80068ee:	f7fc fb6f 	bl	8002fd0 <HAL_RCC_ClockConfig>
 80068f2:	4603      	mov	r3, r0
 80068f4:	2b00      	cmp	r3, #0
 80068f6:	d001      	beq.n	80068fc <SystemClock_Config+0xe8>
  {
    Error_Handler();
 80068f8:	f000 f976 	bl	8006be8 <Error_Handler>
  }
  PeriphClkInitStruct.PeriphClockSelection = RCC_PERIPHCLK_USART3|RCC_PERIPHCLK_I2C1
 80068fc:	4b0e      	ldr	r3, [pc, #56]	; (8006938 <SystemClock_Config+0x124>)
 80068fe:	60bb      	str	r3, [r7, #8]
                              |RCC_PERIPHCLK_I2C2|RCC_PERIPHCLK_CLK48;
  PeriphClkInitStruct.Usart3ClockSelection = RCC_USART3CLKSOURCE_PCLK1;
 8006900:	2300      	movs	r3, #0
 8006902:	657b      	str	r3, [r7, #84]	; 0x54
  PeriphClkInitStruct.I2c1ClockSelection = RCC_I2C1CLKSOURCE_PCLK1;
 8006904:	2300      	movs	r3, #0
 8006906:	66fb      	str	r3, [r7, #108]	; 0x6c
  PeriphClkInitStruct.I2c2ClockSelection = RCC_I2C2CLKSOURCE_PCLK1;
 8006908:	2300      	movs	r3, #0
 800690a:	673b      	str	r3, [r7, #112]	; 0x70
  PeriphClkInitStruct.Clk48ClockSelection = RCC_CLK48SOURCE_PLL;
 800690c:	2300      	movs	r3, #0
 800690e:	f8c7 3084 	str.w	r3, [r7, #132]	; 0x84
  if (HAL_RCCEx_PeriphCLKConfig(&PeriphClkInitStruct) != HAL_OK)
 8006912:	f107 0308 	add.w	r3, r7, #8
 8006916:	4618      	mov	r0, r3
 8006918:	f7fc fd4e 	bl	80033b8 <HAL_RCCEx_PeriphCLKConfig>
 800691c:	4603      	mov	r3, r0
 800691e:	2b00      	cmp	r3, #0
 8006920:	d001      	beq.n	8006926 <SystemClock_Config+0x112>
  {
    Error_Handler();
 8006922:	f000 f961 	bl	8006be8 <Error_Handler>
  }
}
 8006926:	bf00      	nop
 8006928:	37d0      	adds	r7, #208	; 0xd0
 800692a:	46bd      	mov	sp, r7
 800692c:	bd80      	pop	{r7, pc}
 800692e:	bf00      	nop
 8006930:	40023800 	.word	0x40023800
 8006934:	40007000 	.word	0x40007000
 8006938:	0020c100 	.word	0x0020c100

0800693c <HAL_UART_RxCpltCallback>:

/* USER CODE BEGIN 4 */
//! przerwanie od USARTA sterujce tymczasowo diodami na pytce
void HAL_UART_RxCpltCallback(UART_HandleTypeDef *huart)
{
 800693c:	b5b0      	push	{r4, r5, r7, lr}
 800693e:	b086      	sub	sp, #24
 8006940:	af00      	add	r7, sp, #0
 8006942:	6078      	str	r0, [r7, #4]
	if(huart->Instance == USART3)
 8006944:	687b      	ldr	r3, [r7, #4]
 8006946:	681b      	ldr	r3, [r3, #0]
 8006948:	4a96      	ldr	r2, [pc, #600]	; (8006ba4 <HAL_UART_RxCpltCallback+0x268>)
 800694a:	4293      	cmp	r3, r2
 800694c:	f040 8125 	bne.w	8006b9a <HAL_UART_RxCpltCallback+0x25e>
//   char value2[3];
//	char value3[3];
	int value_i1;//,value_i2,value_i3;
	// HAL_UART_Receive(&huart3, &msg, 12, 100);//odebranie znaku

	value1[0] = msg[0];
 8006950:	4b95      	ldr	r3, [pc, #596]	; (8006ba8 <HAL_UART_RxCpltCallback+0x26c>)
 8006952:	781b      	ldrb	r3, [r3, #0]
 8006954:	733b      	strb	r3, [r7, #12]
	value1[1] = msg[1];
 8006956:	4b94      	ldr	r3, [pc, #592]	; (8006ba8 <HAL_UART_RxCpltCallback+0x26c>)
 8006958:	785b      	ldrb	r3, [r3, #1]
 800695a:	737b      	strb	r3, [r7, #13]
	value1[2] = msg[2];
 800695c:	4b92      	ldr	r3, [pc, #584]	; (8006ba8 <HAL_UART_RxCpltCallback+0x26c>)
 800695e:	789b      	ldrb	r3, [r3, #2]
 8006960:	73bb      	strb	r3, [r7, #14]

	value_i1 = 10*(atoi(value1));
 8006962:	f107 030c 	add.w	r3, r7, #12
 8006966:	4618      	mov	r0, r3
 8006968:	f000 fd43 	bl	80073f2 <atoi>
 800696c:	4602      	mov	r2, r0
 800696e:	4613      	mov	r3, r2
 8006970:	009b      	lsls	r3, r3, #2
 8006972:	4413      	add	r3, r2
 8006974:	005b      	lsls	r3, r3, #1
 8006976:	617b      	str	r3, [r7, #20]

	if(atoi(value1) <=100)
 8006978:	f107 030c 	add.w	r3, r7, #12
 800697c:	4618      	mov	r0, r3
 800697e:	f000 fd38 	bl	80073f2 <atoi>
 8006982:	4603      	mov	r3, r0
 8006984:	2b64      	cmp	r3, #100	; 0x64
 8006986:	dc07      	bgt.n	8006998 <HAL_UART_RxCpltCallback+0x5c>
	{
		J_z=value_i1;
 8006988:	697b      	ldr	r3, [r7, #20]
 800698a:	ee07 3a90 	vmov	s15, r3
 800698e:	eef8 7ae7 	vcvt.f32.s32	s15, s15
 8006992:	4b86      	ldr	r3, [pc, #536]	; (8006bac <HAL_UART_RxCpltCallback+0x270>)
 8006994:	edc3 7a00 	vstr	s15, [r3]
	}

	if(atoi(value1) == 999) //Night mode on
 8006998:	f107 030c 	add.w	r3, r7, #12
 800699c:	4618      	mov	r0, r3
 800699e:	f000 fd28 	bl	80073f2 <atoi>
 80069a2:	4602      	mov	r2, r0
 80069a4:	f240 33e7 	movw	r3, #999	; 0x3e7
 80069a8:	429a      	cmp	r2, r3
 80069aa:	d145      	bne.n	8006a38 <HAL_UART_RxCpltCallback+0xfc>
	{
		HAL_GPIO_WritePin(LD2_GPIO_Port, LD2_Pin, GPIO_PIN_SET);
 80069ac:	2201      	movs	r2, #1
 80069ae:	2180      	movs	r1, #128	; 0x80
 80069b0:	487f      	ldr	r0, [pc, #508]	; (8006bb0 <HAL_UART_RxCpltCallback+0x274>)
 80069b2:	f7fa fd51 	bl	8001458 <HAL_GPIO_WritePin>
		NightMode=4;
 80069b6:	4b7f      	ldr	r3, [pc, #508]	; (8006bb4 <HAL_UART_RxCpltCallback+0x278>)
 80069b8:	2204      	movs	r2, #4
 80069ba:	601a      	str	r2, [r3, #0]
		wyp=__HAL_TIM_GET_COMPARE(&htim1, TIM_CHANNEL_1);
 80069bc:	4b7e      	ldr	r3, [pc, #504]	; (8006bb8 <HAL_UART_RxCpltCallback+0x27c>)
 80069be:	681b      	ldr	r3, [r3, #0]
 80069c0:	6b5b      	ldr	r3, [r3, #52]	; 0x34
 80069c2:	461a      	mov	r2, r3
 80069c4:	4b7d      	ldr	r3, [pc, #500]	; (8006bbc <HAL_UART_RxCpltCallback+0x280>)
 80069c6:	601a      	str	r2, [r3, #0]
		size=sprintf(buffer,"NIGHT MODE ON\n\r");
 80069c8:	4a7d      	ldr	r2, [pc, #500]	; (8006bc0 <HAL_UART_RxCpltCallback+0x284>)
 80069ca:	4b7e      	ldr	r3, [pc, #504]	; (8006bc4 <HAL_UART_RxCpltCallback+0x288>)
 80069cc:	4614      	mov	r4, r2
 80069ce:	461d      	mov	r5, r3
 80069d0:	cd0f      	ldmia	r5!, {r0, r1, r2, r3}
 80069d2:	6020      	str	r0, [r4, #0]
 80069d4:	6061      	str	r1, [r4, #4]
 80069d6:	60a2      	str	r2, [r4, #8]
 80069d8:	60e3      	str	r3, [r4, #12]
 80069da:	230f      	movs	r3, #15
 80069dc:	b2da      	uxtb	r2, r3
 80069de:	4b7a      	ldr	r3, [pc, #488]	; (8006bc8 <HAL_UART_RxCpltCallback+0x28c>)
 80069e0:	701a      	strb	r2, [r3, #0]
		HAL_UART_Transmit_IT(&huart3, buffer, size);
 80069e2:	4b79      	ldr	r3, [pc, #484]	; (8006bc8 <HAL_UART_RxCpltCallback+0x28c>)
 80069e4:	781b      	ldrb	r3, [r3, #0]
 80069e6:	b29b      	uxth	r3, r3
 80069e8:	461a      	mov	r2, r3
 80069ea:	4975      	ldr	r1, [pc, #468]	; (8006bc0 <HAL_UART_RxCpltCallback+0x284>)
 80069ec:	4877      	ldr	r0, [pc, #476]	; (8006bcc <HAL_UART_RxCpltCallback+0x290>)
 80069ee:	f7fe f8b5 	bl	8004b5c <HAL_UART_Transmit_IT>
		__HAL_TIM_SET_COMPARE(&htim1, TIM_CHANNEL_1, wyp);
 80069f2:	4b72      	ldr	r3, [pc, #456]	; (8006bbc <HAL_UART_RxCpltCallback+0x280>)
 80069f4:	681a      	ldr	r2, [r3, #0]
 80069f6:	4b70      	ldr	r3, [pc, #448]	; (8006bb8 <HAL_UART_RxCpltCallback+0x27c>)
 80069f8:	681b      	ldr	r3, [r3, #0]
 80069fa:	635a      	str	r2, [r3, #52]	; 0x34
		__HAL_TIM_SET_COMPARE(&htim1, TIM_CHANNEL_2, wyp*NightMode/10);
 80069fc:	4b6f      	ldr	r3, [pc, #444]	; (8006bbc <HAL_UART_RxCpltCallback+0x280>)
 80069fe:	681b      	ldr	r3, [r3, #0]
 8006a00:	4a6c      	ldr	r2, [pc, #432]	; (8006bb4 <HAL_UART_RxCpltCallback+0x278>)
 8006a02:	6812      	ldr	r2, [r2, #0]
 8006a04:	fb02 f303 	mul.w	r3, r2, r3
 8006a08:	4a71      	ldr	r2, [pc, #452]	; (8006bd0 <HAL_UART_RxCpltCallback+0x294>)
 8006a0a:	fb82 1203 	smull	r1, r2, r2, r3
 8006a0e:	1092      	asrs	r2, r2, #2
 8006a10:	17db      	asrs	r3, r3, #31
 8006a12:	1ad2      	subs	r2, r2, r3
 8006a14:	4b68      	ldr	r3, [pc, #416]	; (8006bb8 <HAL_UART_RxCpltCallback+0x27c>)
 8006a16:	681b      	ldr	r3, [r3, #0]
 8006a18:	639a      	str	r2, [r3, #56]	; 0x38
		__HAL_TIM_SET_COMPARE(&htim1, TIM_CHANNEL_3, wyp*NightMode/10);
 8006a1a:	4b68      	ldr	r3, [pc, #416]	; (8006bbc <HAL_UART_RxCpltCallback+0x280>)
 8006a1c:	681b      	ldr	r3, [r3, #0]
 8006a1e:	4a65      	ldr	r2, [pc, #404]	; (8006bb4 <HAL_UART_RxCpltCallback+0x278>)
 8006a20:	6812      	ldr	r2, [r2, #0]
 8006a22:	fb02 f303 	mul.w	r3, r2, r3
 8006a26:	4a6a      	ldr	r2, [pc, #424]	; (8006bd0 <HAL_UART_RxCpltCallback+0x294>)
 8006a28:	fb82 1203 	smull	r1, r2, r2, r3
 8006a2c:	1092      	asrs	r2, r2, #2
 8006a2e:	17db      	asrs	r3, r3, #31
 8006a30:	1ad2      	subs	r2, r2, r3
 8006a32:	4b61      	ldr	r3, [pc, #388]	; (8006bb8 <HAL_UART_RxCpltCallback+0x27c>)
 8006a34:	681b      	ldr	r3, [r3, #0]
 8006a36:	63da      	str	r2, [r3, #60]	; 0x3c
	}
	if(atoi(value1) == 998) //Night mode off
 8006a38:	f107 030c 	add.w	r3, r7, #12
 8006a3c:	4618      	mov	r0, r3
 8006a3e:	f000 fcd8 	bl	80073f2 <atoi>
 8006a42:	4602      	mov	r2, r0
 8006a44:	f240 33e6 	movw	r3, #998	; 0x3e6
 8006a48:	429a      	cmp	r2, r3
 8006a4a:	d147      	bne.n	8006adc <HAL_UART_RxCpltCallback+0x1a0>
	{
		HAL_GPIO_WritePin(LD2_GPIO_Port, LD2_Pin, GPIO_PIN_RESET);
 8006a4c:	2200      	movs	r2, #0
 8006a4e:	2180      	movs	r1, #128	; 0x80
 8006a50:	4857      	ldr	r0, [pc, #348]	; (8006bb0 <HAL_UART_RxCpltCallback+0x274>)
 8006a52:	f7fa fd01 	bl	8001458 <HAL_GPIO_WritePin>
		NightMode=10;
 8006a56:	4b57      	ldr	r3, [pc, #348]	; (8006bb4 <HAL_UART_RxCpltCallback+0x278>)
 8006a58:	220a      	movs	r2, #10
 8006a5a:	601a      	str	r2, [r3, #0]
		wyp=__HAL_TIM_GET_COMPARE(&htim1, TIM_CHANNEL_1);
 8006a5c:	4b56      	ldr	r3, [pc, #344]	; (8006bb8 <HAL_UART_RxCpltCallback+0x27c>)
 8006a5e:	681b      	ldr	r3, [r3, #0]
 8006a60:	6b5b      	ldr	r3, [r3, #52]	; 0x34
 8006a62:	461a      	mov	r2, r3
 8006a64:	4b55      	ldr	r3, [pc, #340]	; (8006bbc <HAL_UART_RxCpltCallback+0x280>)
 8006a66:	601a      	str	r2, [r3, #0]
		size=sprintf(buffer,"NIGHT MODE OFF\n\r");
 8006a68:	4a55      	ldr	r2, [pc, #340]	; (8006bc0 <HAL_UART_RxCpltCallback+0x284>)
 8006a6a:	4b5a      	ldr	r3, [pc, #360]	; (8006bd4 <HAL_UART_RxCpltCallback+0x298>)
 8006a6c:	4615      	mov	r5, r2
 8006a6e:	461c      	mov	r4, r3
 8006a70:	cc0f      	ldmia	r4!, {r0, r1, r2, r3}
 8006a72:	6028      	str	r0, [r5, #0]
 8006a74:	6069      	str	r1, [r5, #4]
 8006a76:	60aa      	str	r2, [r5, #8]
 8006a78:	60eb      	str	r3, [r5, #12]
 8006a7a:	7823      	ldrb	r3, [r4, #0]
 8006a7c:	742b      	strb	r3, [r5, #16]
 8006a7e:	2310      	movs	r3, #16
 8006a80:	b2da      	uxtb	r2, r3
 8006a82:	4b51      	ldr	r3, [pc, #324]	; (8006bc8 <HAL_UART_RxCpltCallback+0x28c>)
 8006a84:	701a      	strb	r2, [r3, #0]
		HAL_UART_Transmit_IT(&huart3, buffer, size);
 8006a86:	4b50      	ldr	r3, [pc, #320]	; (8006bc8 <HAL_UART_RxCpltCallback+0x28c>)
 8006a88:	781b      	ldrb	r3, [r3, #0]
 8006a8a:	b29b      	uxth	r3, r3
 8006a8c:	461a      	mov	r2, r3
 8006a8e:	494c      	ldr	r1, [pc, #304]	; (8006bc0 <HAL_UART_RxCpltCallback+0x284>)
 8006a90:	484e      	ldr	r0, [pc, #312]	; (8006bcc <HAL_UART_RxCpltCallback+0x290>)
 8006a92:	f7fe f863 	bl	8004b5c <HAL_UART_Transmit_IT>
		__HAL_TIM_SET_COMPARE(&htim1, TIM_CHANNEL_1, wyp);
 8006a96:	4b49      	ldr	r3, [pc, #292]	; (8006bbc <HAL_UART_RxCpltCallback+0x280>)
 8006a98:	681a      	ldr	r2, [r3, #0]
 8006a9a:	4b47      	ldr	r3, [pc, #284]	; (8006bb8 <HAL_UART_RxCpltCallback+0x27c>)
 8006a9c:	681b      	ldr	r3, [r3, #0]
 8006a9e:	635a      	str	r2, [r3, #52]	; 0x34
		__HAL_TIM_SET_COMPARE(&htim1, TIM_CHANNEL_2, wyp*NightMode/10);
 8006aa0:	4b46      	ldr	r3, [pc, #280]	; (8006bbc <HAL_UART_RxCpltCallback+0x280>)
 8006aa2:	681b      	ldr	r3, [r3, #0]
 8006aa4:	4a43      	ldr	r2, [pc, #268]	; (8006bb4 <HAL_UART_RxCpltCallback+0x278>)
 8006aa6:	6812      	ldr	r2, [r2, #0]
 8006aa8:	fb02 f303 	mul.w	r3, r2, r3
 8006aac:	4a48      	ldr	r2, [pc, #288]	; (8006bd0 <HAL_UART_RxCpltCallback+0x294>)
 8006aae:	fb82 1203 	smull	r1, r2, r2, r3
 8006ab2:	1092      	asrs	r2, r2, #2
 8006ab4:	17db      	asrs	r3, r3, #31
 8006ab6:	1ad2      	subs	r2, r2, r3
 8006ab8:	4b3f      	ldr	r3, [pc, #252]	; (8006bb8 <HAL_UART_RxCpltCallback+0x27c>)
 8006aba:	681b      	ldr	r3, [r3, #0]
 8006abc:	639a      	str	r2, [r3, #56]	; 0x38
		__HAL_TIM_SET_COMPARE(&htim1, TIM_CHANNEL_3, wyp*NightMode/10);
 8006abe:	4b3f      	ldr	r3, [pc, #252]	; (8006bbc <HAL_UART_RxCpltCallback+0x280>)
 8006ac0:	681b      	ldr	r3, [r3, #0]
 8006ac2:	4a3c      	ldr	r2, [pc, #240]	; (8006bb4 <HAL_UART_RxCpltCallback+0x278>)
 8006ac4:	6812      	ldr	r2, [r2, #0]
 8006ac6:	fb02 f303 	mul.w	r3, r2, r3
 8006aca:	4a41      	ldr	r2, [pc, #260]	; (8006bd0 <HAL_UART_RxCpltCallback+0x294>)
 8006acc:	fb82 1203 	smull	r1, r2, r2, r3
 8006ad0:	1092      	asrs	r2, r2, #2
 8006ad2:	17db      	asrs	r3, r3, #31
 8006ad4:	1ad2      	subs	r2, r2, r3
 8006ad6:	4b38      	ldr	r3, [pc, #224]	; (8006bb8 <HAL_UART_RxCpltCallback+0x27c>)
 8006ad8:	681b      	ldr	r3, [r3, #0]
 8006ada:	63da      	str	r2, [r3, #60]	; 0x3c
	}
	if(atoi(value1) == 997) //State check
 8006adc:	f107 030c 	add.w	r3, r7, #12
 8006ae0:	4618      	mov	r0, r3
 8006ae2:	f000 fc86 	bl	80073f2 <atoi>
 8006ae6:	4602      	mov	r2, r0
 8006ae8:	f240 33e5 	movw	r3, #997	; 0x3e5
 8006aec:	429a      	cmp	r2, r3
 8006aee:	d125      	bne.n	8006b3c <HAL_UART_RxCpltCallback+0x200>
	{
		if(BH1750_OK == BH1750_ReadLight(&BH1750_lux_1))
 8006af0:	4839      	ldr	r0, [pc, #228]	; (8006bd8 <HAL_UART_RxCpltCallback+0x29c>)
 8006af2:	f7ff faff 	bl	80060f4 <BH1750_ReadLight>
 8006af6:	4603      	mov	r3, r0
 8006af8:	2b00      	cmp	r3, #0
 8006afa:	d108      	bne.n	8006b0e <HAL_UART_RxCpltCallback+0x1d2>
		{
			BH1750_lux_int_1 = BH1750_lux_1;
 8006afc:	4b36      	ldr	r3, [pc, #216]	; (8006bd8 <HAL_UART_RxCpltCallback+0x29c>)
 8006afe:	edd3 7a00 	vldr	s15, [r3]
 8006b02:	eefd 7ae7 	vcvt.s32.f32	s15, s15
 8006b06:	ee17 2a90 	vmov	r2, s15
 8006b0a:	4b34      	ldr	r3, [pc, #208]	; (8006bdc <HAL_UART_RxCpltCallback+0x2a0>)
 8006b0c:	601a      	str	r2, [r3, #0]
		}
		int state=__HAL_TIM_GET_COMPARE(&htim1, TIM_CHANNEL_1);
 8006b0e:	4b2a      	ldr	r3, [pc, #168]	; (8006bb8 <HAL_UART_RxCpltCallback+0x27c>)
 8006b10:	681b      	ldr	r3, [r3, #0]
 8006b12:	6b5b      	ldr	r3, [r3, #52]	; 0x34
 8006b14:	613b      	str	r3, [r7, #16]
		size = sprintf(buffer, "%d, %d;\n\r", BH1750_lux_int_1,state);
 8006b16:	4b31      	ldr	r3, [pc, #196]	; (8006bdc <HAL_UART_RxCpltCallback+0x2a0>)
 8006b18:	681a      	ldr	r2, [r3, #0]
 8006b1a:	693b      	ldr	r3, [r7, #16]
 8006b1c:	4930      	ldr	r1, [pc, #192]	; (8006be0 <HAL_UART_RxCpltCallback+0x2a4>)
 8006b1e:	4828      	ldr	r0, [pc, #160]	; (8006bc0 <HAL_UART_RxCpltCallback+0x284>)
 8006b20:	f000 fc9e 	bl	8007460 <siprintf>
 8006b24:	4603      	mov	r3, r0
 8006b26:	b2da      	uxtb	r2, r3
 8006b28:	4b27      	ldr	r3, [pc, #156]	; (8006bc8 <HAL_UART_RxCpltCallback+0x28c>)
 8006b2a:	701a      	strb	r2, [r3, #0]
		HAL_UART_Transmit_IT(&huart3,buffer, size);
 8006b2c:	4b26      	ldr	r3, [pc, #152]	; (8006bc8 <HAL_UART_RxCpltCallback+0x28c>)
 8006b2e:	781b      	ldrb	r3, [r3, #0]
 8006b30:	b29b      	uxth	r3, r3
 8006b32:	461a      	mov	r2, r3
 8006b34:	4922      	ldr	r1, [pc, #136]	; (8006bc0 <HAL_UART_RxCpltCallback+0x284>)
 8006b36:	4825      	ldr	r0, [pc, #148]	; (8006bcc <HAL_UART_RxCpltCallback+0x290>)
 8006b38:	f7fe f810 	bl	8004b5c <HAL_UART_Transmit_IT>
	}
	if(atoi(value1) >100 && atoi(value1) < 997)
 8006b3c:	f107 030c 	add.w	r3, r7, #12
 8006b40:	4618      	mov	r0, r3
 8006b42:	f000 fc56 	bl	80073f2 <atoi>
 8006b46:	4603      	mov	r3, r0
 8006b48:	2b64      	cmp	r3, #100	; 0x64
 8006b4a:	dd21      	ble.n	8006b90 <HAL_UART_RxCpltCallback+0x254>
 8006b4c:	f107 030c 	add.w	r3, r7, #12
 8006b50:	4618      	mov	r0, r3
 8006b52:	f000 fc4e 	bl	80073f2 <atoi>
 8006b56:	4603      	mov	r3, r0
 8006b58:	f5b3 7f79 	cmp.w	r3, #996	; 0x3e4
 8006b5c:	dc18      	bgt.n	8006b90 <HAL_UART_RxCpltCallback+0x254>
	{
		value_i1=__HAL_TIM_GET_COMPARE(&htim1, TIM_CHANNEL_1);
 8006b5e:	4b16      	ldr	r3, [pc, #88]	; (8006bb8 <HAL_UART_RxCpltCallback+0x27c>)
 8006b60:	681b      	ldr	r3, [r3, #0]
 8006b62:	6b5b      	ldr	r3, [r3, #52]	; 0x34
 8006b64:	617b      	str	r3, [r7, #20]
		size=sprintf(buffer,"WRONG VALUE\n\r");
 8006b66:	4a16      	ldr	r2, [pc, #88]	; (8006bc0 <HAL_UART_RxCpltCallback+0x284>)
 8006b68:	4b1e      	ldr	r3, [pc, #120]	; (8006be4 <HAL_UART_RxCpltCallback+0x2a8>)
 8006b6a:	4614      	mov	r4, r2
 8006b6c:	cb07      	ldmia	r3!, {r0, r1, r2}
 8006b6e:	6020      	str	r0, [r4, #0]
 8006b70:	6061      	str	r1, [r4, #4]
 8006b72:	60a2      	str	r2, [r4, #8]
 8006b74:	881b      	ldrh	r3, [r3, #0]
 8006b76:	81a3      	strh	r3, [r4, #12]
 8006b78:	230d      	movs	r3, #13
 8006b7a:	b2da      	uxtb	r2, r3
 8006b7c:	4b12      	ldr	r3, [pc, #72]	; (8006bc8 <HAL_UART_RxCpltCallback+0x28c>)
 8006b7e:	701a      	strb	r2, [r3, #0]
		HAL_UART_Transmit_IT(&huart3, buffer, size);
 8006b80:	4b11      	ldr	r3, [pc, #68]	; (8006bc8 <HAL_UART_RxCpltCallback+0x28c>)
 8006b82:	781b      	ldrb	r3, [r3, #0]
 8006b84:	b29b      	uxth	r3, r3
 8006b86:	461a      	mov	r2, r3
 8006b88:	490d      	ldr	r1, [pc, #52]	; (8006bc0 <HAL_UART_RxCpltCallback+0x284>)
 8006b8a:	4810      	ldr	r0, [pc, #64]	; (8006bcc <HAL_UART_RxCpltCallback+0x290>)
 8006b8c:	f7fd ffe6 	bl	8004b5c <HAL_UART_Transmit_IT>

//__HAL_TIM_SET_COMPARE(&htim1, TIM_CHANNEL_1, value_i1);
//__HAL_TIM_SET_COMPARE(&htim1, TIM_CHANNEL_2, value_i1*NightMode/10);
//__HAL_TIM_SET_COMPARE(&htim1, TIM_CHANNEL_3, value_i1*NightMode/10);

HAL_UART_Receive_IT(&huart3, msg, 3);
 8006b90:	2203      	movs	r2, #3
 8006b92:	4905      	ldr	r1, [pc, #20]	; (8006ba8 <HAL_UART_RxCpltCallback+0x26c>)
 8006b94:	480d      	ldr	r0, [pc, #52]	; (8006bcc <HAL_UART_RxCpltCallback+0x290>)
 8006b96:	f7fe f83d 	bl	8004c14 <HAL_UART_Receive_IT>
	}
}
 8006b9a:	bf00      	nop
 8006b9c:	3718      	adds	r7, #24
 8006b9e:	46bd      	mov	sp, r7
 8006ba0:	bdb0      	pop	{r4, r5, r7, pc}
 8006ba2:	bf00      	nop
 8006ba4:	40004800 	.word	0x40004800
 8006ba8:	200002bc 	.word	0x200002bc
 8006bac:	200002c0 	.word	0x200002c0
 8006bb0:	40020400 	.word	0x40020400
 8006bb4:	20000008 	.word	0x20000008
 8006bb8:	20000340 	.word	0x20000340
 8006bbc:	200002b0 	.word	0x200002b0
 8006bc0:	200002c4 	.word	0x200002c4
 8006bc4:	08007dfc 	.word	0x08007dfc
 8006bc8:	200002f0 	.word	0x200002f0
 8006bcc:	20000380 	.word	0x20000380
 8006bd0:	66666667 	.word	0x66666667
 8006bd4:	08007e0c 	.word	0x08007e0c
 8006bd8:	200002ec 	.word	0x200002ec
 8006bdc:	200002fc 	.word	0x200002fc
 8006be0:	08007df0 	.word	0x08007df0
 8006be4:	08007e20 	.word	0x08007e20

08006be8 <Error_Handler>:
/**
  * @brief  This function is executed in case of error occurrence.
  * @retval None
  */
void Error_Handler(void)
{
 8006be8:	b480      	push	{r7}
 8006bea:	af00      	add	r7, sp, #0
  /* USER CODE BEGIN Error_Handler_Debug */
  /* User can add his own implementation to report the HAL error return state */

  /* USER CODE END Error_Handler_Debug */
}
 8006bec:	bf00      	nop
 8006bee:	46bd      	mov	sp, r7
 8006bf0:	f85d 7b04 	ldr.w	r7, [sp], #4
 8006bf4:	4770      	bx	lr
	...

08006bf8 <HAL_MspInit>:
 8006bf8:	b480      	push	{r7}
 8006bfa:	b083      	sub	sp, #12
 8006bfc:	af00      	add	r7, sp, #0
 8006bfe:	4b0f      	ldr	r3, [pc, #60]	; (8006c3c <HAL_MspInit+0x44>)
 8006c00:	6c1b      	ldr	r3, [r3, #64]	; 0x40
 8006c02:	4a0e      	ldr	r2, [pc, #56]	; (8006c3c <HAL_MspInit+0x44>)
 8006c04:	f043 5380 	orr.w	r3, r3, #268435456	; 0x10000000
 8006c08:	6413      	str	r3, [r2, #64]	; 0x40
 8006c0a:	4b0c      	ldr	r3, [pc, #48]	; (8006c3c <HAL_MspInit+0x44>)
 8006c0c:	6c1b      	ldr	r3, [r3, #64]	; 0x40
 8006c0e:	f003 5380 	and.w	r3, r3, #268435456	; 0x10000000
 8006c12:	607b      	str	r3, [r7, #4]
 8006c14:	687b      	ldr	r3, [r7, #4]
 8006c16:	4b09      	ldr	r3, [pc, #36]	; (8006c3c <HAL_MspInit+0x44>)
 8006c18:	6c5b      	ldr	r3, [r3, #68]	; 0x44
 8006c1a:	4a08      	ldr	r2, [pc, #32]	; (8006c3c <HAL_MspInit+0x44>)
 8006c1c:	f443 4380 	orr.w	r3, r3, #16384	; 0x4000
 8006c20:	6453      	str	r3, [r2, #68]	; 0x44
 8006c22:	4b06      	ldr	r3, [pc, #24]	; (8006c3c <HAL_MspInit+0x44>)
 8006c24:	6c5b      	ldr	r3, [r3, #68]	; 0x44
 8006c26:	f403 4380 	and.w	r3, r3, #16384	; 0x4000
 8006c2a:	603b      	str	r3, [r7, #0]
 8006c2c:	683b      	ldr	r3, [r7, #0]
 8006c2e:	bf00      	nop
 8006c30:	370c      	adds	r7, #12
 8006c32:	46bd      	mov	sp, r7
 8006c34:	f85d 7b04 	ldr.w	r7, [sp], #4
 8006c38:	4770      	bx	lr
 8006c3a:	bf00      	nop
 8006c3c:	40023800 	.word	0x40023800

08006c40 <NMI_Handler>:
 8006c40:	b480      	push	{r7}
 8006c42:	af00      	add	r7, sp, #0
 8006c44:	bf00      	nop
 8006c46:	46bd      	mov	sp, r7
 8006c48:	f85d 7b04 	ldr.w	r7, [sp], #4
 8006c4c:	4770      	bx	lr

08006c4e <HardFault_Handler>:
 8006c4e:	b480      	push	{r7}
 8006c50:	af00      	add	r7, sp, #0
 8006c52:	e7fe      	b.n	8006c52 <HardFault_Handler+0x4>

08006c54 <MemManage_Handler>:
 8006c54:	b480      	push	{r7}
 8006c56:	af00      	add	r7, sp, #0
 8006c58:	e7fe      	b.n	8006c58 <MemManage_Handler+0x4>

08006c5a <BusFault_Handler>:
 8006c5a:	b480      	push	{r7}
 8006c5c:	af00      	add	r7, sp, #0
 8006c5e:	e7fe      	b.n	8006c5e <BusFault_Handler+0x4>

08006c60 <UsageFault_Handler>:
 8006c60:	b480      	push	{r7}
 8006c62:	af00      	add	r7, sp, #0
 8006c64:	e7fe      	b.n	8006c64 <UsageFault_Handler+0x4>

08006c66 <SVC_Handler>:
 8006c66:	b480      	push	{r7}
 8006c68:	af00      	add	r7, sp, #0
 8006c6a:	bf00      	nop
 8006c6c:	46bd      	mov	sp, r7
 8006c6e:	f85d 7b04 	ldr.w	r7, [sp], #4
 8006c72:	4770      	bx	lr

08006c74 <DebugMon_Handler>:
 8006c74:	b480      	push	{r7}
 8006c76:	af00      	add	r7, sp, #0
 8006c78:	bf00      	nop
 8006c7a:	46bd      	mov	sp, r7
 8006c7c:	f85d 7b04 	ldr.w	r7, [sp], #4
 8006c80:	4770      	bx	lr

08006c82 <PendSV_Handler>:
 8006c82:	b480      	push	{r7}
 8006c84:	af00      	add	r7, sp, #0
 8006c86:	bf00      	nop
 8006c88:	46bd      	mov	sp, r7
 8006c8a:	f85d 7b04 	ldr.w	r7, [sp], #4
 8006c8e:	4770      	bx	lr

08006c90 <SysTick_Handler>:
 8006c90:	b580      	push	{r7, lr}
 8006c92:	af00      	add	r7, sp, #0
 8006c94:	f7fa f8c0 	bl	8000e18 <HAL_IncTick>
 8006c98:	bf00      	nop
 8006c9a:	bd80      	pop	{r7, pc}

08006c9c <I2C1_EV_IRQHandler>:
 8006c9c:	b580      	push	{r7, lr}
 8006c9e:	af00      	add	r7, sp, #0
 8006ca0:	4802      	ldr	r0, [pc, #8]	; (8006cac <I2C1_EV_IRQHandler+0x10>)
 8006ca2:	f7fa fe6d 	bl	8001980 <HAL_I2C_EV_IRQHandler>
 8006ca6:	bf00      	nop
 8006ca8:	bd80      	pop	{r7, pc}
 8006caa:	bf00      	nop
 8006cac:	20000218 	.word	0x20000218

08006cb0 <I2C1_ER_IRQHandler>:
 8006cb0:	b580      	push	{r7, lr}
 8006cb2:	af00      	add	r7, sp, #0
 8006cb4:	4802      	ldr	r0, [pc, #8]	; (8006cc0 <I2C1_ER_IRQHandler+0x10>)
 8006cb6:	f7fa fe7d 	bl	80019b4 <HAL_I2C_ER_IRQHandler>
 8006cba:	bf00      	nop
 8006cbc:	bd80      	pop	{r7, pc}
 8006cbe:	bf00      	nop
 8006cc0:	20000218 	.word	0x20000218

08006cc4 <I2C2_EV_IRQHandler>:
 8006cc4:	b580      	push	{r7, lr}
 8006cc6:	af00      	add	r7, sp, #0
 8006cc8:	4802      	ldr	r0, [pc, #8]	; (8006cd4 <I2C2_EV_IRQHandler+0x10>)
 8006cca:	f7fa fe59 	bl	8001980 <HAL_I2C_EV_IRQHandler>
 8006cce:	bf00      	nop
 8006cd0:	bd80      	pop	{r7, pc}
 8006cd2:	bf00      	nop
 8006cd4:	20000264 	.word	0x20000264

08006cd8 <I2C2_ER_IRQHandler>:
 8006cd8:	b580      	push	{r7, lr}
 8006cda:	af00      	add	r7, sp, #0
 8006cdc:	4802      	ldr	r0, [pc, #8]	; (8006ce8 <I2C2_ER_IRQHandler+0x10>)
 8006cde:	f7fa fe69 	bl	80019b4 <HAL_I2C_ER_IRQHandler>
 8006ce2:	bf00      	nop
 8006ce4:	bd80      	pop	{r7, pc}
 8006ce6:	bf00      	nop
 8006ce8:	20000264 	.word	0x20000264

08006cec <USART3_IRQHandler>:
 8006cec:	b580      	push	{r7, lr}
 8006cee:	af00      	add	r7, sp, #0
 8006cf0:	4802      	ldr	r0, [pc, #8]	; (8006cfc <USART3_IRQHandler+0x10>)
 8006cf2:	f7fe f831 	bl	8004d58 <HAL_UART_IRQHandler>
 8006cf6:	bf00      	nop
 8006cf8:	bd80      	pop	{r7, pc}
 8006cfa:	bf00      	nop
 8006cfc:	20000380 	.word	0x20000380

08006d00 <_sbrk>:
 8006d00:	b580      	push	{r7, lr}
 8006d02:	b084      	sub	sp, #16
 8006d04:	af00      	add	r7, sp, #0
 8006d06:	6078      	str	r0, [r7, #4]
 8006d08:	4b11      	ldr	r3, [pc, #68]	; (8006d50 <_sbrk+0x50>)
 8006d0a:	681b      	ldr	r3, [r3, #0]
 8006d0c:	2b00      	cmp	r3, #0
 8006d0e:	d102      	bne.n	8006d16 <_sbrk+0x16>
 8006d10:	4b0f      	ldr	r3, [pc, #60]	; (8006d50 <_sbrk+0x50>)
 8006d12:	4a10      	ldr	r2, [pc, #64]	; (8006d54 <_sbrk+0x54>)
 8006d14:	601a      	str	r2, [r3, #0]
 8006d16:	4b0e      	ldr	r3, [pc, #56]	; (8006d50 <_sbrk+0x50>)
 8006d18:	681b      	ldr	r3, [r3, #0]
 8006d1a:	60fb      	str	r3, [r7, #12]
 8006d1c:	4b0c      	ldr	r3, [pc, #48]	; (8006d50 <_sbrk+0x50>)
 8006d1e:	681a      	ldr	r2, [r3, #0]
 8006d20:	687b      	ldr	r3, [r7, #4]
 8006d22:	4413      	add	r3, r2
 8006d24:	466a      	mov	r2, sp
 8006d26:	4293      	cmp	r3, r2
 8006d28:	d907      	bls.n	8006d3a <_sbrk+0x3a>
 8006d2a:	f000 fb67 	bl	80073fc <__errno>
 8006d2e:	4602      	mov	r2, r0
 8006d30:	230c      	movs	r3, #12
 8006d32:	6013      	str	r3, [r2, #0]
 8006d34:	f04f 33ff 	mov.w	r3, #4294967295
 8006d38:	e006      	b.n	8006d48 <_sbrk+0x48>
 8006d3a:	4b05      	ldr	r3, [pc, #20]	; (8006d50 <_sbrk+0x50>)
 8006d3c:	681a      	ldr	r2, [r3, #0]
 8006d3e:	687b      	ldr	r3, [r7, #4]
 8006d40:	4413      	add	r3, r2
 8006d42:	4a03      	ldr	r2, [pc, #12]	; (8006d50 <_sbrk+0x50>)
 8006d44:	6013      	str	r3, [r2, #0]
 8006d46:	68fb      	ldr	r3, [r7, #12]
 8006d48:	4618      	mov	r0, r3
 8006d4a:	3710      	adds	r7, #16
 8006d4c:	46bd      	mov	sp, r7
 8006d4e:	bd80      	pop	{r7, pc}
 8006d50:	200001fc 	.word	0x200001fc
 8006d54:	20000808 	.word	0x20000808

08006d58 <SystemInit>:
 8006d58:	b480      	push	{r7}
 8006d5a:	af00      	add	r7, sp, #0
 8006d5c:	4b15      	ldr	r3, [pc, #84]	; (8006db4 <SystemInit+0x5c>)
 8006d5e:	f8d3 3088 	ldr.w	r3, [r3, #136]	; 0x88
 8006d62:	4a14      	ldr	r2, [pc, #80]	; (8006db4 <SystemInit+0x5c>)
 8006d64:	f443 0370 	orr.w	r3, r3, #15728640	; 0xf00000
 8006d68:	f8c2 3088 	str.w	r3, [r2, #136]	; 0x88
 8006d6c:	4b12      	ldr	r3, [pc, #72]	; (8006db8 <SystemInit+0x60>)
 8006d6e:	681b      	ldr	r3, [r3, #0]
 8006d70:	4a11      	ldr	r2, [pc, #68]	; (8006db8 <SystemInit+0x60>)
 8006d72:	f043 0301 	orr.w	r3, r3, #1
 8006d76:	6013      	str	r3, [r2, #0]
 8006d78:	4b0f      	ldr	r3, [pc, #60]	; (8006db8 <SystemInit+0x60>)
 8006d7a:	2200      	movs	r2, #0
 8006d7c:	609a      	str	r2, [r3, #8]
 8006d7e:	4b0e      	ldr	r3, [pc, #56]	; (8006db8 <SystemInit+0x60>)
 8006d80:	681a      	ldr	r2, [r3, #0]
 8006d82:	490d      	ldr	r1, [pc, #52]	; (8006db8 <SystemInit+0x60>)
 8006d84:	4b0d      	ldr	r3, [pc, #52]	; (8006dbc <SystemInit+0x64>)
 8006d86:	4013      	ands	r3, r2
 8006d88:	600b      	str	r3, [r1, #0]
 8006d8a:	4b0b      	ldr	r3, [pc, #44]	; (8006db8 <SystemInit+0x60>)
 8006d8c:	4a0c      	ldr	r2, [pc, #48]	; (8006dc0 <SystemInit+0x68>)
 8006d8e:	605a      	str	r2, [r3, #4]
 8006d90:	4b09      	ldr	r3, [pc, #36]	; (8006db8 <SystemInit+0x60>)
 8006d92:	681b      	ldr	r3, [r3, #0]
 8006d94:	4a08      	ldr	r2, [pc, #32]	; (8006db8 <SystemInit+0x60>)
 8006d96:	f423 2380 	bic.w	r3, r3, #262144	; 0x40000
 8006d9a:	6013      	str	r3, [r2, #0]
 8006d9c:	4b06      	ldr	r3, [pc, #24]	; (8006db8 <SystemInit+0x60>)
 8006d9e:	2200      	movs	r2, #0
 8006da0:	60da      	str	r2, [r3, #12]
 8006da2:	4b04      	ldr	r3, [pc, #16]	; (8006db4 <SystemInit+0x5c>)
 8006da4:	f04f 6200 	mov.w	r2, #134217728	; 0x8000000
 8006da8:	609a      	str	r2, [r3, #8]
 8006daa:	bf00      	nop
 8006dac:	46bd      	mov	sp, r7
 8006dae:	f85d 7b04 	ldr.w	r7, [sp], #4
 8006db2:	4770      	bx	lr
 8006db4:	e000ed00 	.word	0xe000ed00
 8006db8:	40023800 	.word	0x40023800
 8006dbc:	fef6ffff 	.word	0xfef6ffff
 8006dc0:	24003010 	.word	0x24003010

08006dc4 <MX_TIM1_Init>:
 8006dc4:	b580      	push	{r7, lr}
 8006dc6:	b09a      	sub	sp, #104	; 0x68
 8006dc8:	af00      	add	r7, sp, #0
 8006dca:	f107 0358 	add.w	r3, r7, #88	; 0x58
 8006dce:	2200      	movs	r2, #0
 8006dd0:	601a      	str	r2, [r3, #0]
 8006dd2:	605a      	str	r2, [r3, #4]
 8006dd4:	609a      	str	r2, [r3, #8]
 8006dd6:	60da      	str	r2, [r3, #12]
 8006dd8:	f107 034c 	add.w	r3, r7, #76	; 0x4c
 8006ddc:	2200      	movs	r2, #0
 8006dde:	601a      	str	r2, [r3, #0]
 8006de0:	605a      	str	r2, [r3, #4]
 8006de2:	609a      	str	r2, [r3, #8]
 8006de4:	f107 0330 	add.w	r3, r7, #48	; 0x30
 8006de8:	2200      	movs	r2, #0
 8006dea:	601a      	str	r2, [r3, #0]
 8006dec:	605a      	str	r2, [r3, #4]
 8006dee:	609a      	str	r2, [r3, #8]
 8006df0:	60da      	str	r2, [r3, #12]
 8006df2:	611a      	str	r2, [r3, #16]
 8006df4:	615a      	str	r2, [r3, #20]
 8006df6:	619a      	str	r2, [r3, #24]
 8006df8:	1d3b      	adds	r3, r7, #4
 8006dfa:	222c      	movs	r2, #44	; 0x2c
 8006dfc:	2100      	movs	r1, #0
 8006dfe:	4618      	mov	r0, r3
 8006e00:	f000 fb26 	bl	8007450 <memset>
 8006e04:	4b50      	ldr	r3, [pc, #320]	; (8006f48 <MX_TIM1_Init+0x184>)
 8006e06:	4a51      	ldr	r2, [pc, #324]	; (8006f4c <MX_TIM1_Init+0x188>)
 8006e08:	601a      	str	r2, [r3, #0]
 8006e0a:	4b4f      	ldr	r3, [pc, #316]	; (8006f48 <MX_TIM1_Init+0x184>)
 8006e0c:	2247      	movs	r2, #71	; 0x47
 8006e0e:	605a      	str	r2, [r3, #4]
 8006e10:	4b4d      	ldr	r3, [pc, #308]	; (8006f48 <MX_TIM1_Init+0x184>)
 8006e12:	2200      	movs	r2, #0
 8006e14:	609a      	str	r2, [r3, #8]
 8006e16:	4b4c      	ldr	r3, [pc, #304]	; (8006f48 <MX_TIM1_Init+0x184>)
 8006e18:	f240 32e7 	movw	r2, #999	; 0x3e7
 8006e1c:	60da      	str	r2, [r3, #12]
 8006e1e:	4b4a      	ldr	r3, [pc, #296]	; (8006f48 <MX_TIM1_Init+0x184>)
 8006e20:	2200      	movs	r2, #0
 8006e22:	611a      	str	r2, [r3, #16]
 8006e24:	4b48      	ldr	r3, [pc, #288]	; (8006f48 <MX_TIM1_Init+0x184>)
 8006e26:	2200      	movs	r2, #0
 8006e28:	615a      	str	r2, [r3, #20]
 8006e2a:	4b47      	ldr	r3, [pc, #284]	; (8006f48 <MX_TIM1_Init+0x184>)
 8006e2c:	2200      	movs	r2, #0
 8006e2e:	619a      	str	r2, [r3, #24]
 8006e30:	4845      	ldr	r0, [pc, #276]	; (8006f48 <MX_TIM1_Init+0x184>)
 8006e32:	f7fc feaf 	bl	8003b94 <HAL_TIM_Base_Init>
 8006e36:	4603      	mov	r3, r0
 8006e38:	2b00      	cmp	r3, #0
 8006e3a:	d001      	beq.n	8006e40 <MX_TIM1_Init+0x7c>
 8006e3c:	f7ff fed4 	bl	8006be8 <Error_Handler>
 8006e40:	f44f 5380 	mov.w	r3, #4096	; 0x1000
 8006e44:	65bb      	str	r3, [r7, #88]	; 0x58
 8006e46:	f107 0358 	add.w	r3, r7, #88	; 0x58
 8006e4a:	4619      	mov	r1, r3
 8006e4c:	483e      	ldr	r0, [pc, #248]	; (8006f48 <MX_TIM1_Init+0x184>)
 8006e4e:	f7fd f853 	bl	8003ef8 <HAL_TIM_ConfigClockSource>
 8006e52:	4603      	mov	r3, r0
 8006e54:	2b00      	cmp	r3, #0
 8006e56:	d001      	beq.n	8006e5c <MX_TIM1_Init+0x98>
 8006e58:	f7ff fec6 	bl	8006be8 <Error_Handler>
 8006e5c:	483a      	ldr	r0, [pc, #232]	; (8006f48 <MX_TIM1_Init+0x184>)
 8006e5e:	f7fc fec4 	bl	8003bea <HAL_TIM_PWM_Init>
 8006e62:	4603      	mov	r3, r0
 8006e64:	2b00      	cmp	r3, #0
 8006e66:	d001      	beq.n	8006e6c <MX_TIM1_Init+0xa8>
 8006e68:	f7ff febe 	bl	8006be8 <Error_Handler>
 8006e6c:	2300      	movs	r3, #0
 8006e6e:	64fb      	str	r3, [r7, #76]	; 0x4c
 8006e70:	2300      	movs	r3, #0
 8006e72:	653b      	str	r3, [r7, #80]	; 0x50
 8006e74:	2300      	movs	r3, #0
 8006e76:	657b      	str	r3, [r7, #84]	; 0x54
 8006e78:	f107 034c 	add.w	r3, r7, #76	; 0x4c
 8006e7c:	4619      	mov	r1, r3
 8006e7e:	4832      	ldr	r0, [pc, #200]	; (8006f48 <MX_TIM1_Init+0x184>)
 8006e80:	f7fd fcb2 	bl	80047e8 <HAL_TIMEx_MasterConfigSynchronization>
 8006e84:	4603      	mov	r3, r0
 8006e86:	2b00      	cmp	r3, #0
 8006e88:	d001      	beq.n	8006e8e <MX_TIM1_Init+0xca>
 8006e8a:	f7ff fead 	bl	8006be8 <Error_Handler>
 8006e8e:	2360      	movs	r3, #96	; 0x60
 8006e90:	633b      	str	r3, [r7, #48]	; 0x30
 8006e92:	f44f 73fa 	mov.w	r3, #500	; 0x1f4
 8006e96:	637b      	str	r3, [r7, #52]	; 0x34
 8006e98:	2300      	movs	r3, #0
 8006e9a:	63bb      	str	r3, [r7, #56]	; 0x38
 8006e9c:	2300      	movs	r3, #0
 8006e9e:	63fb      	str	r3, [r7, #60]	; 0x3c
 8006ea0:	2300      	movs	r3, #0
 8006ea2:	643b      	str	r3, [r7, #64]	; 0x40
 8006ea4:	2300      	movs	r3, #0
 8006ea6:	647b      	str	r3, [r7, #68]	; 0x44
 8006ea8:	2300      	movs	r3, #0
 8006eaa:	64bb      	str	r3, [r7, #72]	; 0x48
 8006eac:	f107 0330 	add.w	r3, r7, #48	; 0x30
 8006eb0:	2200      	movs	r2, #0
 8006eb2:	4619      	mov	r1, r3
 8006eb4:	4824      	ldr	r0, [pc, #144]	; (8006f48 <MX_TIM1_Init+0x184>)
 8006eb6:	f7fc ff07 	bl	8003cc8 <HAL_TIM_PWM_ConfigChannel>
 8006eba:	4603      	mov	r3, r0
 8006ebc:	2b00      	cmp	r3, #0
 8006ebe:	d001      	beq.n	8006ec4 <MX_TIM1_Init+0x100>
 8006ec0:	f7ff fe92 	bl	8006be8 <Error_Handler>
 8006ec4:	f107 0330 	add.w	r3, r7, #48	; 0x30
 8006ec8:	2204      	movs	r2, #4
 8006eca:	4619      	mov	r1, r3
 8006ecc:	481e      	ldr	r0, [pc, #120]	; (8006f48 <MX_TIM1_Init+0x184>)
 8006ece:	f7fc fefb 	bl	8003cc8 <HAL_TIM_PWM_ConfigChannel>
 8006ed2:	4603      	mov	r3, r0
 8006ed4:	2b00      	cmp	r3, #0
 8006ed6:	d001      	beq.n	8006edc <MX_TIM1_Init+0x118>
 8006ed8:	f7ff fe86 	bl	8006be8 <Error_Handler>
 8006edc:	f107 0330 	add.w	r3, r7, #48	; 0x30
 8006ee0:	2208      	movs	r2, #8
 8006ee2:	4619      	mov	r1, r3
 8006ee4:	4818      	ldr	r0, [pc, #96]	; (8006f48 <MX_TIM1_Init+0x184>)
 8006ee6:	f7fc feef 	bl	8003cc8 <HAL_TIM_PWM_ConfigChannel>
 8006eea:	4603      	mov	r3, r0
 8006eec:	2b00      	cmp	r3, #0
 8006eee:	d001      	beq.n	8006ef4 <MX_TIM1_Init+0x130>
 8006ef0:	f7ff fe7a 	bl	8006be8 <Error_Handler>
 8006ef4:	2300      	movs	r3, #0
 8006ef6:	607b      	str	r3, [r7, #4]
 8006ef8:	2300      	movs	r3, #0
 8006efa:	60bb      	str	r3, [r7, #8]
 8006efc:	2300      	movs	r3, #0
 8006efe:	60fb      	str	r3, [r7, #12]
 8006f00:	2300      	movs	r3, #0
 8006f02:	613b      	str	r3, [r7, #16]
 8006f04:	2300      	movs	r3, #0
 8006f06:	617b      	str	r3, [r7, #20]
 8006f08:	f44f 5300 	mov.w	r3, #8192	; 0x2000
 8006f0c:	61bb      	str	r3, [r7, #24]
 8006f0e:	2300      	movs	r3, #0
 8006f10:	61fb      	str	r3, [r7, #28]
 8006f12:	2300      	movs	r3, #0
 8006f14:	623b      	str	r3, [r7, #32]
 8006f16:	f04f 7300 	mov.w	r3, #33554432	; 0x2000000
 8006f1a:	627b      	str	r3, [r7, #36]	; 0x24
 8006f1c:	2300      	movs	r3, #0
 8006f1e:	62bb      	str	r3, [r7, #40]	; 0x28
 8006f20:	2300      	movs	r3, #0
 8006f22:	62fb      	str	r3, [r7, #44]	; 0x2c
 8006f24:	1d3b      	adds	r3, r7, #4
 8006f26:	4619      	mov	r1, r3
 8006f28:	4807      	ldr	r0, [pc, #28]	; (8006f48 <MX_TIM1_Init+0x184>)
 8006f2a:	f7fd fcb9 	bl	80048a0 <HAL_TIMEx_ConfigBreakDeadTime>
 8006f2e:	4603      	mov	r3, r0
 8006f30:	2b00      	cmp	r3, #0
 8006f32:	d001      	beq.n	8006f38 <MX_TIM1_Init+0x174>
 8006f34:	f7ff fe58 	bl	8006be8 <Error_Handler>
 8006f38:	4803      	ldr	r0, [pc, #12]	; (8006f48 <MX_TIM1_Init+0x184>)
 8006f3a:	f000 f8af 	bl	800709c <HAL_TIM_MspPostInit>
 8006f3e:	bf00      	nop
 8006f40:	3768      	adds	r7, #104	; 0x68
 8006f42:	46bd      	mov	sp, r7
 8006f44:	bd80      	pop	{r7, pc}
 8006f46:	bf00      	nop
 8006f48:	20000340 	.word	0x20000340
 8006f4c:	40010000 	.word	0x40010000

08006f50 <MX_TIM3_Init>:
 8006f50:	b580      	push	{r7, lr}
 8006f52:	b08a      	sub	sp, #40	; 0x28
 8006f54:	af00      	add	r7, sp, #0
 8006f56:	f107 031c 	add.w	r3, r7, #28
 8006f5a:	2200      	movs	r2, #0
 8006f5c:	601a      	str	r2, [r3, #0]
 8006f5e:	605a      	str	r2, [r3, #4]
 8006f60:	609a      	str	r2, [r3, #8]
 8006f62:	463b      	mov	r3, r7
 8006f64:	2200      	movs	r2, #0
 8006f66:	601a      	str	r2, [r3, #0]
 8006f68:	605a      	str	r2, [r3, #4]
 8006f6a:	609a      	str	r2, [r3, #8]
 8006f6c:	60da      	str	r2, [r3, #12]
 8006f6e:	611a      	str	r2, [r3, #16]
 8006f70:	615a      	str	r2, [r3, #20]
 8006f72:	619a      	str	r2, [r3, #24]
 8006f74:	4b27      	ldr	r3, [pc, #156]	; (8007014 <MX_TIM3_Init+0xc4>)
 8006f76:	4a28      	ldr	r2, [pc, #160]	; (8007018 <MX_TIM3_Init+0xc8>)
 8006f78:	601a      	str	r2, [r3, #0]
 8006f7a:	4b26      	ldr	r3, [pc, #152]	; (8007014 <MX_TIM3_Init+0xc4>)
 8006f7c:	2247      	movs	r2, #71	; 0x47
 8006f7e:	605a      	str	r2, [r3, #4]
 8006f80:	4b24      	ldr	r3, [pc, #144]	; (8007014 <MX_TIM3_Init+0xc4>)
 8006f82:	2200      	movs	r2, #0
 8006f84:	609a      	str	r2, [r3, #8]
 8006f86:	4b23      	ldr	r3, [pc, #140]	; (8007014 <MX_TIM3_Init+0xc4>)
 8006f88:	f240 32e7 	movw	r2, #999	; 0x3e7
 8006f8c:	60da      	str	r2, [r3, #12]
 8006f8e:	4b21      	ldr	r3, [pc, #132]	; (8007014 <MX_TIM3_Init+0xc4>)
 8006f90:	2200      	movs	r2, #0
 8006f92:	611a      	str	r2, [r3, #16]
 8006f94:	4b1f      	ldr	r3, [pc, #124]	; (8007014 <MX_TIM3_Init+0xc4>)
 8006f96:	2200      	movs	r2, #0
 8006f98:	619a      	str	r2, [r3, #24]
 8006f9a:	481e      	ldr	r0, [pc, #120]	; (8007014 <MX_TIM3_Init+0xc4>)
 8006f9c:	f7fc fe25 	bl	8003bea <HAL_TIM_PWM_Init>
 8006fa0:	4603      	mov	r3, r0
 8006fa2:	2b00      	cmp	r3, #0
 8006fa4:	d001      	beq.n	8006faa <MX_TIM3_Init+0x5a>
 8006fa6:	f7ff fe1f 	bl	8006be8 <Error_Handler>
 8006faa:	2300      	movs	r3, #0
 8006fac:	61fb      	str	r3, [r7, #28]
 8006fae:	2300      	movs	r3, #0
 8006fb0:	627b      	str	r3, [r7, #36]	; 0x24
 8006fb2:	f107 031c 	add.w	r3, r7, #28
 8006fb6:	4619      	mov	r1, r3
 8006fb8:	4816      	ldr	r0, [pc, #88]	; (8007014 <MX_TIM3_Init+0xc4>)
 8006fba:	f7fd fc15 	bl	80047e8 <HAL_TIMEx_MasterConfigSynchronization>
 8006fbe:	4603      	mov	r3, r0
 8006fc0:	2b00      	cmp	r3, #0
 8006fc2:	d001      	beq.n	8006fc8 <MX_TIM3_Init+0x78>
 8006fc4:	f7ff fe10 	bl	8006be8 <Error_Handler>
 8006fc8:	2360      	movs	r3, #96	; 0x60
 8006fca:	603b      	str	r3, [r7, #0]
 8006fcc:	2300      	movs	r3, #0
 8006fce:	607b      	str	r3, [r7, #4]
 8006fd0:	2300      	movs	r3, #0
 8006fd2:	60bb      	str	r3, [r7, #8]
 8006fd4:	2300      	movs	r3, #0
 8006fd6:	613b      	str	r3, [r7, #16]
 8006fd8:	463b      	mov	r3, r7
 8006fda:	2200      	movs	r2, #0
 8006fdc:	4619      	mov	r1, r3
 8006fde:	480d      	ldr	r0, [pc, #52]	; (8007014 <MX_TIM3_Init+0xc4>)
 8006fe0:	f7fc fe72 	bl	8003cc8 <HAL_TIM_PWM_ConfigChannel>
 8006fe4:	4603      	mov	r3, r0
 8006fe6:	2b00      	cmp	r3, #0
 8006fe8:	d001      	beq.n	8006fee <MX_TIM3_Init+0x9e>
 8006fea:	f7ff fdfd 	bl	8006be8 <Error_Handler>
 8006fee:	463b      	mov	r3, r7
 8006ff0:	2204      	movs	r2, #4
 8006ff2:	4619      	mov	r1, r3
 8006ff4:	4807      	ldr	r0, [pc, #28]	; (8007014 <MX_TIM3_Init+0xc4>)
 8006ff6:	f7fc fe67 	bl	8003cc8 <HAL_TIM_PWM_ConfigChannel>
 8006ffa:	4603      	mov	r3, r0
 8006ffc:	2b00      	cmp	r3, #0
 8006ffe:	d001      	beq.n	8007004 <MX_TIM3_Init+0xb4>
 8007000:	f7ff fdf2 	bl	8006be8 <Error_Handler>
 8007004:	4803      	ldr	r0, [pc, #12]	; (8007014 <MX_TIM3_Init+0xc4>)
 8007006:	f000 f849 	bl	800709c <HAL_TIM_MspPostInit>
 800700a:	bf00      	nop
 800700c:	3728      	adds	r7, #40	; 0x28
 800700e:	46bd      	mov	sp, r7
 8007010:	bd80      	pop	{r7, pc}
 8007012:	bf00      	nop
 8007014:	20000300 	.word	0x20000300
 8007018:	40000400 	.word	0x40000400

0800701c <HAL_TIM_Base_MspInit>:
 800701c:	b480      	push	{r7}
 800701e:	b085      	sub	sp, #20
 8007020:	af00      	add	r7, sp, #0
 8007022:	6078      	str	r0, [r7, #4]
 8007024:	687b      	ldr	r3, [r7, #4]
 8007026:	681b      	ldr	r3, [r3, #0]
 8007028:	4a0a      	ldr	r2, [pc, #40]	; (8007054 <HAL_TIM_Base_MspInit+0x38>)
 800702a:	4293      	cmp	r3, r2
 800702c:	d10b      	bne.n	8007046 <HAL_TIM_Base_MspInit+0x2a>
 800702e:	4b0a      	ldr	r3, [pc, #40]	; (8007058 <HAL_TIM_Base_MspInit+0x3c>)
 8007030:	6c5b      	ldr	r3, [r3, #68]	; 0x44
 8007032:	4a09      	ldr	r2, [pc, #36]	; (8007058 <HAL_TIM_Base_MspInit+0x3c>)
 8007034:	f043 0301 	orr.w	r3, r3, #1
 8007038:	6453      	str	r3, [r2, #68]	; 0x44
 800703a:	4b07      	ldr	r3, [pc, #28]	; (8007058 <HAL_TIM_Base_MspInit+0x3c>)
 800703c:	6c5b      	ldr	r3, [r3, #68]	; 0x44
 800703e:	f003 0301 	and.w	r3, r3, #1
 8007042:	60fb      	str	r3, [r7, #12]
 8007044:	68fb      	ldr	r3, [r7, #12]
 8007046:	bf00      	nop
 8007048:	3714      	adds	r7, #20
 800704a:	46bd      	mov	sp, r7
 800704c:	f85d 7b04 	ldr.w	r7, [sp], #4
 8007050:	4770      	bx	lr
 8007052:	bf00      	nop
 8007054:	40010000 	.word	0x40010000
 8007058:	40023800 	.word	0x40023800

0800705c <HAL_TIM_PWM_MspInit>:
 800705c:	b480      	push	{r7}
 800705e:	b085      	sub	sp, #20
 8007060:	af00      	add	r7, sp, #0
 8007062:	6078      	str	r0, [r7, #4]
 8007064:	687b      	ldr	r3, [r7, #4]
 8007066:	681b      	ldr	r3, [r3, #0]
 8007068:	4a0a      	ldr	r2, [pc, #40]	; (8007094 <HAL_TIM_PWM_MspInit+0x38>)
 800706a:	4293      	cmp	r3, r2
 800706c:	d10b      	bne.n	8007086 <HAL_TIM_PWM_MspInit+0x2a>
 800706e:	4b0a      	ldr	r3, [pc, #40]	; (8007098 <HAL_TIM_PWM_MspInit+0x3c>)
 8007070:	6c1b      	ldr	r3, [r3, #64]	; 0x40
 8007072:	4a09      	ldr	r2, [pc, #36]	; (8007098 <HAL_TIM_PWM_MspInit+0x3c>)
 8007074:	f043 0302 	orr.w	r3, r3, #2
 8007078:	6413      	str	r3, [r2, #64]	; 0x40
 800707a:	4b07      	ldr	r3, [pc, #28]	; (8007098 <HAL_TIM_PWM_MspInit+0x3c>)
 800707c:	6c1b      	ldr	r3, [r3, #64]	; 0x40
 800707e:	f003 0302 	and.w	r3, r3, #2
 8007082:	60fb      	str	r3, [r7, #12]
 8007084:	68fb      	ldr	r3, [r7, #12]
 8007086:	bf00      	nop
 8007088:	3714      	adds	r7, #20
 800708a:	46bd      	mov	sp, r7
 800708c:	f85d 7b04 	ldr.w	r7, [sp], #4
 8007090:	4770      	bx	lr
 8007092:	bf00      	nop
 8007094:	40000400 	.word	0x40000400
 8007098:	40023800 	.word	0x40023800

0800709c <HAL_TIM_MspPostInit>:
 800709c:	b580      	push	{r7, lr}
 800709e:	b08a      	sub	sp, #40	; 0x28
 80070a0:	af00      	add	r7, sp, #0
 80070a2:	6078      	str	r0, [r7, #4]
 80070a4:	f107 0314 	add.w	r3, r7, #20
 80070a8:	2200      	movs	r2, #0
 80070aa:	601a      	str	r2, [r3, #0]
 80070ac:	605a      	str	r2, [r3, #4]
 80070ae:	609a      	str	r2, [r3, #8]
 80070b0:	60da      	str	r2, [r3, #12]
 80070b2:	611a      	str	r2, [r3, #16]
 80070b4:	687b      	ldr	r3, [r7, #4]
 80070b6:	681b      	ldr	r3, [r3, #0]
 80070b8:	4a30      	ldr	r2, [pc, #192]	; (800717c <HAL_TIM_MspPostInit+0xe0>)
 80070ba:	4293      	cmp	r3, r2
 80070bc:	d11d      	bne.n	80070fa <HAL_TIM_MspPostInit+0x5e>
 80070be:	4b30      	ldr	r3, [pc, #192]	; (8007180 <HAL_TIM_MspPostInit+0xe4>)
 80070c0:	6b1b      	ldr	r3, [r3, #48]	; 0x30
 80070c2:	4a2f      	ldr	r2, [pc, #188]	; (8007180 <HAL_TIM_MspPostInit+0xe4>)
 80070c4:	f043 0310 	orr.w	r3, r3, #16
 80070c8:	6313      	str	r3, [r2, #48]	; 0x30
 80070ca:	4b2d      	ldr	r3, [pc, #180]	; (8007180 <HAL_TIM_MspPostInit+0xe4>)
 80070cc:	6b1b      	ldr	r3, [r3, #48]	; 0x30
 80070ce:	f003 0310 	and.w	r3, r3, #16
 80070d2:	613b      	str	r3, [r7, #16]
 80070d4:	693b      	ldr	r3, [r7, #16]
 80070d6:	f44f 5328 	mov.w	r3, #10752	; 0x2a00
 80070da:	617b      	str	r3, [r7, #20]
 80070dc:	2302      	movs	r3, #2
 80070de:	61bb      	str	r3, [r7, #24]
 80070e0:	2300      	movs	r3, #0
 80070e2:	61fb      	str	r3, [r7, #28]
 80070e4:	2300      	movs	r3, #0
 80070e6:	623b      	str	r3, [r7, #32]
 80070e8:	2301      	movs	r3, #1
 80070ea:	627b      	str	r3, [r7, #36]	; 0x24
 80070ec:	f107 0314 	add.w	r3, r7, #20
 80070f0:	4619      	mov	r1, r3
 80070f2:	4824      	ldr	r0, [pc, #144]	; (8007184 <HAL_TIM_MspPostInit+0xe8>)
 80070f4:	f7fa f806 	bl	8001104 <HAL_GPIO_Init>
 80070f8:	e03c      	b.n	8007174 <HAL_TIM_MspPostInit+0xd8>
 80070fa:	687b      	ldr	r3, [r7, #4]
 80070fc:	681b      	ldr	r3, [r3, #0]
 80070fe:	4a22      	ldr	r2, [pc, #136]	; (8007188 <HAL_TIM_MspPostInit+0xec>)
 8007100:	4293      	cmp	r3, r2
 8007102:	d137      	bne.n	8007174 <HAL_TIM_MspPostInit+0xd8>
 8007104:	4b1e      	ldr	r3, [pc, #120]	; (8007180 <HAL_TIM_MspPostInit+0xe4>)
 8007106:	6b1b      	ldr	r3, [r3, #48]	; 0x30
 8007108:	4a1d      	ldr	r2, [pc, #116]	; (8007180 <HAL_TIM_MspPostInit+0xe4>)
 800710a:	f043 0301 	orr.w	r3, r3, #1
 800710e:	6313      	str	r3, [r2, #48]	; 0x30
 8007110:	4b1b      	ldr	r3, [pc, #108]	; (8007180 <HAL_TIM_MspPostInit+0xe4>)
 8007112:	6b1b      	ldr	r3, [r3, #48]	; 0x30
 8007114:	f003 0301 	and.w	r3, r3, #1
 8007118:	60fb      	str	r3, [r7, #12]
 800711a:	68fb      	ldr	r3, [r7, #12]
 800711c:	4b18      	ldr	r3, [pc, #96]	; (8007180 <HAL_TIM_MspPostInit+0xe4>)
 800711e:	6b1b      	ldr	r3, [r3, #48]	; 0x30
 8007120:	4a17      	ldr	r2, [pc, #92]	; (8007180 <HAL_TIM_MspPostInit+0xe4>)
 8007122:	f043 0304 	orr.w	r3, r3, #4
 8007126:	6313      	str	r3, [r2, #48]	; 0x30
 8007128:	4b15      	ldr	r3, [pc, #84]	; (8007180 <HAL_TIM_MspPostInit+0xe4>)
 800712a:	6b1b      	ldr	r3, [r3, #48]	; 0x30
 800712c:	f003 0304 	and.w	r3, r3, #4
 8007130:	60bb      	str	r3, [r7, #8]
 8007132:	68bb      	ldr	r3, [r7, #8]
 8007134:	2340      	movs	r3, #64	; 0x40
 8007136:	617b      	str	r3, [r7, #20]
 8007138:	2302      	movs	r3, #2
 800713a:	61bb      	str	r3, [r7, #24]
 800713c:	2300      	movs	r3, #0
 800713e:	61fb      	str	r3, [r7, #28]
 8007140:	2300      	movs	r3, #0
 8007142:	623b      	str	r3, [r7, #32]
 8007144:	2302      	movs	r3, #2
 8007146:	627b      	str	r3, [r7, #36]	; 0x24
 8007148:	f107 0314 	add.w	r3, r7, #20
 800714c:	4619      	mov	r1, r3
 800714e:	480f      	ldr	r0, [pc, #60]	; (800718c <HAL_TIM_MspPostInit+0xf0>)
 8007150:	f7f9 ffd8 	bl	8001104 <HAL_GPIO_Init>
 8007154:	2380      	movs	r3, #128	; 0x80
 8007156:	617b      	str	r3, [r7, #20]
 8007158:	2302      	movs	r3, #2
 800715a:	61bb      	str	r3, [r7, #24]
 800715c:	2300      	movs	r3, #0
 800715e:	61fb      	str	r3, [r7, #28]
 8007160:	2300      	movs	r3, #0
 8007162:	623b      	str	r3, [r7, #32]
 8007164:	2302      	movs	r3, #2
 8007166:	627b      	str	r3, [r7, #36]	; 0x24
 8007168:	f107 0314 	add.w	r3, r7, #20
 800716c:	4619      	mov	r1, r3
 800716e:	4808      	ldr	r0, [pc, #32]	; (8007190 <HAL_TIM_MspPostInit+0xf4>)
 8007170:	f7f9 ffc8 	bl	8001104 <HAL_GPIO_Init>
 8007174:	bf00      	nop
 8007176:	3728      	adds	r7, #40	; 0x28
 8007178:	46bd      	mov	sp, r7
 800717a:	bd80      	pop	{r7, pc}
 800717c:	40010000 	.word	0x40010000
 8007180:	40023800 	.word	0x40023800
 8007184:	40021000 	.word	0x40021000
 8007188:	40000400 	.word	0x40000400
 800718c:	40020000 	.word	0x40020000
 8007190:	40020800 	.word	0x40020800

08007194 <MX_USART3_UART_Init>:
 8007194:	b580      	push	{r7, lr}
 8007196:	af00      	add	r7, sp, #0
 8007198:	4b14      	ldr	r3, [pc, #80]	; (80071ec <MX_USART3_UART_Init+0x58>)
 800719a:	4a15      	ldr	r2, [pc, #84]	; (80071f0 <MX_USART3_UART_Init+0x5c>)
 800719c:	601a      	str	r2, [r3, #0]
 800719e:	4b13      	ldr	r3, [pc, #76]	; (80071ec <MX_USART3_UART_Init+0x58>)
 80071a0:	f44f 5216 	mov.w	r2, #9600	; 0x2580
 80071a4:	605a      	str	r2, [r3, #4]
 80071a6:	4b11      	ldr	r3, [pc, #68]	; (80071ec <MX_USART3_UART_Init+0x58>)
 80071a8:	2200      	movs	r2, #0
 80071aa:	609a      	str	r2, [r3, #8]
 80071ac:	4b0f      	ldr	r3, [pc, #60]	; (80071ec <MX_USART3_UART_Init+0x58>)
 80071ae:	2200      	movs	r2, #0
 80071b0:	60da      	str	r2, [r3, #12]
 80071b2:	4b0e      	ldr	r3, [pc, #56]	; (80071ec <MX_USART3_UART_Init+0x58>)
 80071b4:	2200      	movs	r2, #0
 80071b6:	611a      	str	r2, [r3, #16]
 80071b8:	4b0c      	ldr	r3, [pc, #48]	; (80071ec <MX_USART3_UART_Init+0x58>)
 80071ba:	220c      	movs	r2, #12
 80071bc:	615a      	str	r2, [r3, #20]
 80071be:	4b0b      	ldr	r3, [pc, #44]	; (80071ec <MX_USART3_UART_Init+0x58>)
 80071c0:	2200      	movs	r2, #0
 80071c2:	619a      	str	r2, [r3, #24]
 80071c4:	4b09      	ldr	r3, [pc, #36]	; (80071ec <MX_USART3_UART_Init+0x58>)
 80071c6:	2200      	movs	r2, #0
 80071c8:	61da      	str	r2, [r3, #28]
 80071ca:	4b08      	ldr	r3, [pc, #32]	; (80071ec <MX_USART3_UART_Init+0x58>)
 80071cc:	2200      	movs	r2, #0
 80071ce:	621a      	str	r2, [r3, #32]
 80071d0:	4b06      	ldr	r3, [pc, #24]	; (80071ec <MX_USART3_UART_Init+0x58>)
 80071d2:	2200      	movs	r2, #0
 80071d4:	625a      	str	r2, [r3, #36]	; 0x24
 80071d6:	4805      	ldr	r0, [pc, #20]	; (80071ec <MX_USART3_UART_Init+0x58>)
 80071d8:	f7fd fbe0 	bl	800499c <HAL_UART_Init>
 80071dc:	4603      	mov	r3, r0
 80071de:	2b00      	cmp	r3, #0
 80071e0:	d001      	beq.n	80071e6 <MX_USART3_UART_Init+0x52>
 80071e2:	f7ff fd01 	bl	8006be8 <Error_Handler>
 80071e6:	bf00      	nop
 80071e8:	bd80      	pop	{r7, pc}
 80071ea:	bf00      	nop
 80071ec:	20000380 	.word	0x20000380
 80071f0:	40004800 	.word	0x40004800

080071f4 <HAL_UART_MspInit>:
 80071f4:	b580      	push	{r7, lr}
 80071f6:	b08a      	sub	sp, #40	; 0x28
 80071f8:	af00      	add	r7, sp, #0
 80071fa:	6078      	str	r0, [r7, #4]
 80071fc:	f107 0314 	add.w	r3, r7, #20
 8007200:	2200      	movs	r2, #0
 8007202:	601a      	str	r2, [r3, #0]
 8007204:	605a      	str	r2, [r3, #4]
 8007206:	609a      	str	r2, [r3, #8]
 8007208:	60da      	str	r2, [r3, #12]
 800720a:	611a      	str	r2, [r3, #16]
 800720c:	687b      	ldr	r3, [r7, #4]
 800720e:	681b      	ldr	r3, [r3, #0]
 8007210:	4a1b      	ldr	r2, [pc, #108]	; (8007280 <HAL_UART_MspInit+0x8c>)
 8007212:	4293      	cmp	r3, r2
 8007214:	d130      	bne.n	8007278 <HAL_UART_MspInit+0x84>
 8007216:	4b1b      	ldr	r3, [pc, #108]	; (8007284 <HAL_UART_MspInit+0x90>)
 8007218:	6c1b      	ldr	r3, [r3, #64]	; 0x40
 800721a:	4a1a      	ldr	r2, [pc, #104]	; (8007284 <HAL_UART_MspInit+0x90>)
 800721c:	f443 2380 	orr.w	r3, r3, #262144	; 0x40000
 8007220:	6413      	str	r3, [r2, #64]	; 0x40
 8007222:	4b18      	ldr	r3, [pc, #96]	; (8007284 <HAL_UART_MspInit+0x90>)
 8007224:	6c1b      	ldr	r3, [r3, #64]	; 0x40
 8007226:	f403 2380 	and.w	r3, r3, #262144	; 0x40000
 800722a:	613b      	str	r3, [r7, #16]
 800722c:	693b      	ldr	r3, [r7, #16]
 800722e:	4b15      	ldr	r3, [pc, #84]	; (8007284 <HAL_UART_MspInit+0x90>)
 8007230:	6b1b      	ldr	r3, [r3, #48]	; 0x30
 8007232:	4a14      	ldr	r2, [pc, #80]	; (8007284 <HAL_UART_MspInit+0x90>)
 8007234:	f043 0308 	orr.w	r3, r3, #8
 8007238:	6313      	str	r3, [r2, #48]	; 0x30
 800723a:	4b12      	ldr	r3, [pc, #72]	; (8007284 <HAL_UART_MspInit+0x90>)
 800723c:	6b1b      	ldr	r3, [r3, #48]	; 0x30
 800723e:	f003 0308 	and.w	r3, r3, #8
 8007242:	60fb      	str	r3, [r7, #12]
 8007244:	68fb      	ldr	r3, [r7, #12]
 8007246:	f44f 7340 	mov.w	r3, #768	; 0x300
 800724a:	617b      	str	r3, [r7, #20]
 800724c:	2302      	movs	r3, #2
 800724e:	61bb      	str	r3, [r7, #24]
 8007250:	2300      	movs	r3, #0
 8007252:	61fb      	str	r3, [r7, #28]
 8007254:	2303      	movs	r3, #3
 8007256:	623b      	str	r3, [r7, #32]
 8007258:	2307      	movs	r3, #7
 800725a:	627b      	str	r3, [r7, #36]	; 0x24
 800725c:	f107 0314 	add.w	r3, r7, #20
 8007260:	4619      	mov	r1, r3
 8007262:	4809      	ldr	r0, [pc, #36]	; (8007288 <HAL_UART_MspInit+0x94>)
 8007264:	f7f9 ff4e 	bl	8001104 <HAL_GPIO_Init>
 8007268:	2200      	movs	r2, #0
 800726a:	2100      	movs	r1, #0
 800726c:	2027      	movs	r0, #39	; 0x27
 800726e:	f7f9 fef0 	bl	8001052 <HAL_NVIC_SetPriority>
 8007272:	2027      	movs	r0, #39	; 0x27
 8007274:	f7f9 ff09 	bl	800108a <HAL_NVIC_EnableIRQ>
 8007278:	bf00      	nop
 800727a:	3728      	adds	r7, #40	; 0x28
 800727c:	46bd      	mov	sp, r7
 800727e:	bd80      	pop	{r7, pc}
 8007280:	40004800 	.word	0x40004800
 8007284:	40023800 	.word	0x40023800
 8007288:	40020c00 	.word	0x40020c00

0800728c <MX_USB_OTG_FS_PCD_Init>:
 800728c:	b580      	push	{r7, lr}
 800728e:	af00      	add	r7, sp, #0
 8007290:	4b14      	ldr	r3, [pc, #80]	; (80072e4 <MX_USB_OTG_FS_PCD_Init+0x58>)
 8007292:	f04f 42a0 	mov.w	r2, #1342177280	; 0x50000000
 8007296:	601a      	str	r2, [r3, #0]
 8007298:	4b12      	ldr	r3, [pc, #72]	; (80072e4 <MX_USB_OTG_FS_PCD_Init+0x58>)
 800729a:	2206      	movs	r2, #6
 800729c:	605a      	str	r2, [r3, #4]
 800729e:	4b11      	ldr	r3, [pc, #68]	; (80072e4 <MX_USB_OTG_FS_PCD_Init+0x58>)
 80072a0:	2202      	movs	r2, #2
 80072a2:	60da      	str	r2, [r3, #12]
 80072a4:	4b0f      	ldr	r3, [pc, #60]	; (80072e4 <MX_USB_OTG_FS_PCD_Init+0x58>)
 80072a6:	2200      	movs	r2, #0
 80072a8:	611a      	str	r2, [r3, #16]
 80072aa:	4b0e      	ldr	r3, [pc, #56]	; (80072e4 <MX_USB_OTG_FS_PCD_Init+0x58>)
 80072ac:	2202      	movs	r2, #2
 80072ae:	619a      	str	r2, [r3, #24]
 80072b0:	4b0c      	ldr	r3, [pc, #48]	; (80072e4 <MX_USB_OTG_FS_PCD_Init+0x58>)
 80072b2:	2201      	movs	r2, #1
 80072b4:	61da      	str	r2, [r3, #28]
 80072b6:	4b0b      	ldr	r3, [pc, #44]	; (80072e4 <MX_USB_OTG_FS_PCD_Init+0x58>)
 80072b8:	2200      	movs	r2, #0
 80072ba:	621a      	str	r2, [r3, #32]
 80072bc:	4b09      	ldr	r3, [pc, #36]	; (80072e4 <MX_USB_OTG_FS_PCD_Init+0x58>)
 80072be:	2200      	movs	r2, #0
 80072c0:	625a      	str	r2, [r3, #36]	; 0x24
 80072c2:	4b08      	ldr	r3, [pc, #32]	; (80072e4 <MX_USB_OTG_FS_PCD_Init+0x58>)
 80072c4:	2201      	movs	r2, #1
 80072c6:	62da      	str	r2, [r3, #44]	; 0x2c
 80072c8:	4b06      	ldr	r3, [pc, #24]	; (80072e4 <MX_USB_OTG_FS_PCD_Init+0x58>)
 80072ca:	2200      	movs	r2, #0
 80072cc:	631a      	str	r2, [r3, #48]	; 0x30
 80072ce:	4805      	ldr	r0, [pc, #20]	; (80072e4 <MX_USB_OTG_FS_PCD_Init+0x58>)
 80072d0:	f7fb fac2 	bl	8002858 <HAL_PCD_Init>
 80072d4:	4603      	mov	r3, r0
 80072d6:	2b00      	cmp	r3, #0
 80072d8:	d001      	beq.n	80072de <MX_USB_OTG_FS_PCD_Init+0x52>
 80072da:	f7ff fc85 	bl	8006be8 <Error_Handler>
 80072de:	bf00      	nop
 80072e0:	bd80      	pop	{r7, pc}
 80072e2:	bf00      	nop
 80072e4:	20000400 	.word	0x20000400

080072e8 <HAL_PCD_MspInit>:
 80072e8:	b580      	push	{r7, lr}
 80072ea:	b08a      	sub	sp, #40	; 0x28
 80072ec:	af00      	add	r7, sp, #0
 80072ee:	6078      	str	r0, [r7, #4]
 80072f0:	f107 0314 	add.w	r3, r7, #20
 80072f4:	2200      	movs	r2, #0
 80072f6:	601a      	str	r2, [r3, #0]
 80072f8:	605a      	str	r2, [r3, #4]
 80072fa:	609a      	str	r2, [r3, #8]
 80072fc:	60da      	str	r2, [r3, #12]
 80072fe:	611a      	str	r2, [r3, #16]
 8007300:	687b      	ldr	r3, [r7, #4]
 8007302:	681b      	ldr	r3, [r3, #0]
 8007304:	f1b3 4fa0 	cmp.w	r3, #1342177280	; 0x50000000
 8007308:	d141      	bne.n	800738e <HAL_PCD_MspInit+0xa6>
 800730a:	4b23      	ldr	r3, [pc, #140]	; (8007398 <HAL_PCD_MspInit+0xb0>)
 800730c:	6b1b      	ldr	r3, [r3, #48]	; 0x30
 800730e:	4a22      	ldr	r2, [pc, #136]	; (8007398 <HAL_PCD_MspInit+0xb0>)
 8007310:	f043 0301 	orr.w	r3, r3, #1
 8007314:	6313      	str	r3, [r2, #48]	; 0x30
 8007316:	4b20      	ldr	r3, [pc, #128]	; (8007398 <HAL_PCD_MspInit+0xb0>)
 8007318:	6b1b      	ldr	r3, [r3, #48]	; 0x30
 800731a:	f003 0301 	and.w	r3, r3, #1
 800731e:	613b      	str	r3, [r7, #16]
 8007320:	693b      	ldr	r3, [r7, #16]
 8007322:	f44f 53e8 	mov.w	r3, #7424	; 0x1d00
 8007326:	617b      	str	r3, [r7, #20]
 8007328:	2302      	movs	r3, #2
 800732a:	61bb      	str	r3, [r7, #24]
 800732c:	2300      	movs	r3, #0
 800732e:	61fb      	str	r3, [r7, #28]
 8007330:	2303      	movs	r3, #3
 8007332:	623b      	str	r3, [r7, #32]
 8007334:	230a      	movs	r3, #10
 8007336:	627b      	str	r3, [r7, #36]	; 0x24
 8007338:	f107 0314 	add.w	r3, r7, #20
 800733c:	4619      	mov	r1, r3
 800733e:	4817      	ldr	r0, [pc, #92]	; (800739c <HAL_PCD_MspInit+0xb4>)
 8007340:	f7f9 fee0 	bl	8001104 <HAL_GPIO_Init>
 8007344:	f44f 7300 	mov.w	r3, #512	; 0x200
 8007348:	617b      	str	r3, [r7, #20]
 800734a:	2300      	movs	r3, #0
 800734c:	61bb      	str	r3, [r7, #24]
 800734e:	2300      	movs	r3, #0
 8007350:	61fb      	str	r3, [r7, #28]
 8007352:	f107 0314 	add.w	r3, r7, #20
 8007356:	4619      	mov	r1, r3
 8007358:	4810      	ldr	r0, [pc, #64]	; (800739c <HAL_PCD_MspInit+0xb4>)
 800735a:	f7f9 fed3 	bl	8001104 <HAL_GPIO_Init>
 800735e:	4b0e      	ldr	r3, [pc, #56]	; (8007398 <HAL_PCD_MspInit+0xb0>)
 8007360:	6b5b      	ldr	r3, [r3, #52]	; 0x34
 8007362:	4a0d      	ldr	r2, [pc, #52]	; (8007398 <HAL_PCD_MspInit+0xb0>)
 8007364:	f043 0380 	orr.w	r3, r3, #128	; 0x80
 8007368:	6353      	str	r3, [r2, #52]	; 0x34
 800736a:	4b0b      	ldr	r3, [pc, #44]	; (8007398 <HAL_PCD_MspInit+0xb0>)
 800736c:	6b5b      	ldr	r3, [r3, #52]	; 0x34
 800736e:	f003 0380 	and.w	r3, r3, #128	; 0x80
 8007372:	60fb      	str	r3, [r7, #12]
 8007374:	68fb      	ldr	r3, [r7, #12]
 8007376:	4b08      	ldr	r3, [pc, #32]	; (8007398 <HAL_PCD_MspInit+0xb0>)
 8007378:	6c5b      	ldr	r3, [r3, #68]	; 0x44
 800737a:	4a07      	ldr	r2, [pc, #28]	; (8007398 <HAL_PCD_MspInit+0xb0>)
 800737c:	f443 4380 	orr.w	r3, r3, #16384	; 0x4000
 8007380:	6453      	str	r3, [r2, #68]	; 0x44
 8007382:	4b05      	ldr	r3, [pc, #20]	; (8007398 <HAL_PCD_MspInit+0xb0>)
 8007384:	6c5b      	ldr	r3, [r3, #68]	; 0x44
 8007386:	f403 4380 	and.w	r3, r3, #16384	; 0x4000
 800738a:	60bb      	str	r3, [r7, #8]
 800738c:	68bb      	ldr	r3, [r7, #8]
 800738e:	bf00      	nop
 8007390:	3728      	adds	r7, #40	; 0x28
 8007392:	46bd      	mov	sp, r7
 8007394:	bd80      	pop	{r7, pc}
 8007396:	bf00      	nop
 8007398:	40023800 	.word	0x40023800
 800739c:	40020000 	.word	0x40020000

080073a0 <Reset_Handler>:
 80073a0:	f8df d034 	ldr.w	sp, [pc, #52]	; 80073d8 <LoopFillZerobss+0x14>
 80073a4:	2100      	movs	r1, #0
 80073a6:	e003      	b.n	80073b0 <LoopCopyDataInit>

080073a8 <CopyDataInit>:
 80073a8:	4b0c      	ldr	r3, [pc, #48]	; (80073dc <LoopFillZerobss+0x18>)
 80073aa:	585b      	ldr	r3, [r3, r1]
 80073ac:	5043      	str	r3, [r0, r1]
 80073ae:	3104      	adds	r1, #4

080073b0 <LoopCopyDataInit>:
 80073b0:	480b      	ldr	r0, [pc, #44]	; (80073e0 <LoopFillZerobss+0x1c>)
 80073b2:	4b0c      	ldr	r3, [pc, #48]	; (80073e4 <LoopFillZerobss+0x20>)
 80073b4:	1842      	adds	r2, r0, r1
 80073b6:	429a      	cmp	r2, r3
 80073b8:	d3f6      	bcc.n	80073a8 <CopyDataInit>
 80073ba:	4a0b      	ldr	r2, [pc, #44]	; (80073e8 <LoopFillZerobss+0x24>)
 80073bc:	e002      	b.n	80073c4 <LoopFillZerobss>

080073be <FillZerobss>:
 80073be:	2300      	movs	r3, #0
 80073c0:	f842 3b04 	str.w	r3, [r2], #4

080073c4 <LoopFillZerobss>:
 80073c4:	4b09      	ldr	r3, [pc, #36]	; (80073ec <LoopFillZerobss+0x28>)
 80073c6:	429a      	cmp	r2, r3
 80073c8:	d3f9      	bcc.n	80073be <FillZerobss>
 80073ca:	f7ff fcc5 	bl	8006d58 <SystemInit>
 80073ce:	f000 f81b 	bl	8007408 <__libc_init_array>
 80073d2:	f7ff f8fd 	bl	80065d0 <main>
 80073d6:	4770      	bx	lr
 80073d8:	20050000 	.word	0x20050000
 80073dc:	08007f98 	.word	0x08007f98
 80073e0:	20000000 	.word	0x20000000
 80073e4:	200001e0 	.word	0x200001e0
 80073e8:	200001e0 	.word	0x200001e0
 80073ec:	20000808 	.word	0x20000808

080073f0 <ADC_IRQHandler>:
 80073f0:	e7fe      	b.n	80073f0 <ADC_IRQHandler>

080073f2 <atoi>:
 80073f2:	220a      	movs	r2, #10
 80073f4:	2100      	movs	r1, #0
 80073f6:	f000 b8cf 	b.w	8007598 <strtol>
	...

080073fc <__errno>:
 80073fc:	4b01      	ldr	r3, [pc, #4]	; (8007404 <__errno+0x8>)
 80073fe:	6818      	ldr	r0, [r3, #0]
 8007400:	4770      	bx	lr
 8007402:	bf00      	nop
 8007404:	20000010 	.word	0x20000010

08007408 <__libc_init_array>:
 8007408:	b570      	push	{r4, r5, r6, lr}
 800740a:	4e0d      	ldr	r6, [pc, #52]	; (8007440 <__libc_init_array+0x38>)
 800740c:	4c0d      	ldr	r4, [pc, #52]	; (8007444 <__libc_init_array+0x3c>)
 800740e:	1ba4      	subs	r4, r4, r6
 8007410:	10a4      	asrs	r4, r4, #2
 8007412:	2500      	movs	r5, #0
 8007414:	42a5      	cmp	r5, r4
 8007416:	d109      	bne.n	800742c <__libc_init_array+0x24>
 8007418:	4e0b      	ldr	r6, [pc, #44]	; (8007448 <__libc_init_array+0x40>)
 800741a:	4c0c      	ldr	r4, [pc, #48]	; (800744c <__libc_init_array+0x44>)
 800741c:	f000 fcdc 	bl	8007dd8 <_init>
 8007420:	1ba4      	subs	r4, r4, r6
 8007422:	10a4      	asrs	r4, r4, #2
 8007424:	2500      	movs	r5, #0
 8007426:	42a5      	cmp	r5, r4
 8007428:	d105      	bne.n	8007436 <__libc_init_array+0x2e>
 800742a:	bd70      	pop	{r4, r5, r6, pc}
 800742c:	f856 3025 	ldr.w	r3, [r6, r5, lsl #2]
 8007430:	4798      	blx	r3
 8007432:	3501      	adds	r5, #1
 8007434:	e7ee      	b.n	8007414 <__libc_init_array+0xc>
 8007436:	f856 3025 	ldr.w	r3, [r6, r5, lsl #2]
 800743a:	4798      	blx	r3
 800743c:	3501      	adds	r5, #1
 800743e:	e7f2      	b.n	8007426 <__libc_init_array+0x1e>
 8007440:	08007f90 	.word	0x08007f90
 8007444:	08007f90 	.word	0x08007f90
 8007448:	08007f90 	.word	0x08007f90
 800744c:	08007f94 	.word	0x08007f94

08007450 <memset>:
 8007450:	4402      	add	r2, r0
 8007452:	4603      	mov	r3, r0
 8007454:	4293      	cmp	r3, r2
 8007456:	d100      	bne.n	800745a <memset+0xa>
 8007458:	4770      	bx	lr
 800745a:	f803 1b01 	strb.w	r1, [r3], #1
 800745e:	e7f9      	b.n	8007454 <memset+0x4>

08007460 <siprintf>:
 8007460:	b40e      	push	{r1, r2, r3}
 8007462:	b500      	push	{lr}
 8007464:	b09c      	sub	sp, #112	; 0x70
 8007466:	ab1d      	add	r3, sp, #116	; 0x74
 8007468:	9002      	str	r0, [sp, #8]
 800746a:	9006      	str	r0, [sp, #24]
 800746c:	f06f 4100 	mvn.w	r1, #2147483648	; 0x80000000
 8007470:	4809      	ldr	r0, [pc, #36]	; (8007498 <siprintf+0x38>)
 8007472:	9107      	str	r1, [sp, #28]
 8007474:	9104      	str	r1, [sp, #16]
 8007476:	4909      	ldr	r1, [pc, #36]	; (800749c <siprintf+0x3c>)
 8007478:	f853 2b04 	ldr.w	r2, [r3], #4
 800747c:	9105      	str	r1, [sp, #20]
 800747e:	6800      	ldr	r0, [r0, #0]
 8007480:	9301      	str	r3, [sp, #4]
 8007482:	a902      	add	r1, sp, #8
 8007484:	f000 f90e 	bl	80076a4 <_svfiprintf_r>
 8007488:	9b02      	ldr	r3, [sp, #8]
 800748a:	2200      	movs	r2, #0
 800748c:	701a      	strb	r2, [r3, #0]
 800748e:	b01c      	add	sp, #112	; 0x70
 8007490:	f85d eb04 	ldr.w	lr, [sp], #4
 8007494:	b003      	add	sp, #12
 8007496:	4770      	bx	lr
 8007498:	20000010 	.word	0x20000010
 800749c:	ffff0208 	.word	0xffff0208

080074a0 <_strtol_l.isra.0>:
 80074a0:	e92d 47f0 	stmdb	sp!, {r4, r5, r6, r7, r8, r9, sl, lr}
 80074a4:	4680      	mov	r8, r0
 80074a6:	4689      	mov	r9, r1
 80074a8:	4692      	mov	sl, r2
 80074aa:	461e      	mov	r6, r3
 80074ac:	460f      	mov	r7, r1
 80074ae:	463d      	mov	r5, r7
 80074b0:	9808      	ldr	r0, [sp, #32]
 80074b2:	f815 4b01 	ldrb.w	r4, [r5], #1
 80074b6:	f000 f885 	bl	80075c4 <__locale_ctype_ptr_l>
 80074ba:	4420      	add	r0, r4
 80074bc:	7843      	ldrb	r3, [r0, #1]
 80074be:	f013 0308 	ands.w	r3, r3, #8
 80074c2:	d132      	bne.n	800752a <_strtol_l.isra.0+0x8a>
 80074c4:	2c2d      	cmp	r4, #45	; 0x2d
 80074c6:	d132      	bne.n	800752e <_strtol_l.isra.0+0x8e>
 80074c8:	787c      	ldrb	r4, [r7, #1]
 80074ca:	1cbd      	adds	r5, r7, #2
 80074cc:	2201      	movs	r2, #1
 80074ce:	2e00      	cmp	r6, #0
 80074d0:	d05d      	beq.n	800758e <_strtol_l.isra.0+0xee>
 80074d2:	2e10      	cmp	r6, #16
 80074d4:	d109      	bne.n	80074ea <_strtol_l.isra.0+0x4a>
 80074d6:	2c30      	cmp	r4, #48	; 0x30
 80074d8:	d107      	bne.n	80074ea <_strtol_l.isra.0+0x4a>
 80074da:	782b      	ldrb	r3, [r5, #0]
 80074dc:	f003 03df 	and.w	r3, r3, #223	; 0xdf
 80074e0:	2b58      	cmp	r3, #88	; 0x58
 80074e2:	d14f      	bne.n	8007584 <_strtol_l.isra.0+0xe4>
 80074e4:	786c      	ldrb	r4, [r5, #1]
 80074e6:	2610      	movs	r6, #16
 80074e8:	3502      	adds	r5, #2
 80074ea:	2a00      	cmp	r2, #0
 80074ec:	bf14      	ite	ne
 80074ee:	f04f 4100 	movne.w	r1, #2147483648	; 0x80000000
 80074f2:	f06f 4100 	mvneq.w	r1, #2147483648	; 0x80000000
 80074f6:	2700      	movs	r7, #0
 80074f8:	fbb1 fcf6 	udiv	ip, r1, r6
 80074fc:	4638      	mov	r0, r7
 80074fe:	fb06 1e1c 	mls	lr, r6, ip, r1
 8007502:	f1a4 0330 	sub.w	r3, r4, #48	; 0x30
 8007506:	2b09      	cmp	r3, #9
 8007508:	d817      	bhi.n	800753a <_strtol_l.isra.0+0x9a>
 800750a:	461c      	mov	r4, r3
 800750c:	42a6      	cmp	r6, r4
 800750e:	dd23      	ble.n	8007558 <_strtol_l.isra.0+0xb8>
 8007510:	1c7b      	adds	r3, r7, #1
 8007512:	d007      	beq.n	8007524 <_strtol_l.isra.0+0x84>
 8007514:	4584      	cmp	ip, r0
 8007516:	d31c      	bcc.n	8007552 <_strtol_l.isra.0+0xb2>
 8007518:	d101      	bne.n	800751e <_strtol_l.isra.0+0x7e>
 800751a:	45a6      	cmp	lr, r4
 800751c:	db19      	blt.n	8007552 <_strtol_l.isra.0+0xb2>
 800751e:	fb00 4006 	mla	r0, r0, r6, r4
 8007522:	2701      	movs	r7, #1
 8007524:	f815 4b01 	ldrb.w	r4, [r5], #1
 8007528:	e7eb      	b.n	8007502 <_strtol_l.isra.0+0x62>
 800752a:	462f      	mov	r7, r5
 800752c:	e7bf      	b.n	80074ae <_strtol_l.isra.0+0xe>
 800752e:	2c2b      	cmp	r4, #43	; 0x2b
 8007530:	bf04      	itt	eq
 8007532:	1cbd      	addeq	r5, r7, #2
 8007534:	787c      	ldrbeq	r4, [r7, #1]
 8007536:	461a      	mov	r2, r3
 8007538:	e7c9      	b.n	80074ce <_strtol_l.isra.0+0x2e>
 800753a:	f1a4 0341 	sub.w	r3, r4, #65	; 0x41
 800753e:	2b19      	cmp	r3, #25
 8007540:	d801      	bhi.n	8007546 <_strtol_l.isra.0+0xa6>
 8007542:	3c37      	subs	r4, #55	; 0x37
 8007544:	e7e2      	b.n	800750c <_strtol_l.isra.0+0x6c>
 8007546:	f1a4 0361 	sub.w	r3, r4, #97	; 0x61
 800754a:	2b19      	cmp	r3, #25
 800754c:	d804      	bhi.n	8007558 <_strtol_l.isra.0+0xb8>
 800754e:	3c57      	subs	r4, #87	; 0x57
 8007550:	e7dc      	b.n	800750c <_strtol_l.isra.0+0x6c>
 8007552:	f04f 37ff 	mov.w	r7, #4294967295
 8007556:	e7e5      	b.n	8007524 <_strtol_l.isra.0+0x84>
 8007558:	1c7b      	adds	r3, r7, #1
 800755a:	d108      	bne.n	800756e <_strtol_l.isra.0+0xce>
 800755c:	2322      	movs	r3, #34	; 0x22
 800755e:	f8c8 3000 	str.w	r3, [r8]
 8007562:	4608      	mov	r0, r1
 8007564:	f1ba 0f00 	cmp.w	sl, #0
 8007568:	d107      	bne.n	800757a <_strtol_l.isra.0+0xda>
 800756a:	e8bd 87f0 	ldmia.w	sp!, {r4, r5, r6, r7, r8, r9, sl, pc}
 800756e:	b102      	cbz	r2, 8007572 <_strtol_l.isra.0+0xd2>
 8007570:	4240      	negs	r0, r0
 8007572:	f1ba 0f00 	cmp.w	sl, #0
 8007576:	d0f8      	beq.n	800756a <_strtol_l.isra.0+0xca>
 8007578:	b10f      	cbz	r7, 800757e <_strtol_l.isra.0+0xde>
 800757a:	f105 39ff 	add.w	r9, r5, #4294967295
 800757e:	f8ca 9000 	str.w	r9, [sl]
 8007582:	e7f2      	b.n	800756a <_strtol_l.isra.0+0xca>
 8007584:	2430      	movs	r4, #48	; 0x30
 8007586:	2e00      	cmp	r6, #0
 8007588:	d1af      	bne.n	80074ea <_strtol_l.isra.0+0x4a>
 800758a:	2608      	movs	r6, #8
 800758c:	e7ad      	b.n	80074ea <_strtol_l.isra.0+0x4a>
 800758e:	2c30      	cmp	r4, #48	; 0x30
 8007590:	d0a3      	beq.n	80074da <_strtol_l.isra.0+0x3a>
 8007592:	260a      	movs	r6, #10
 8007594:	e7a9      	b.n	80074ea <_strtol_l.isra.0+0x4a>
	...

08007598 <strtol>:
 8007598:	4b08      	ldr	r3, [pc, #32]	; (80075bc <strtol+0x24>)
 800759a:	b537      	push	{r0, r1, r2, r4, r5, lr}
 800759c:	681c      	ldr	r4, [r3, #0]
 800759e:	4d08      	ldr	r5, [pc, #32]	; (80075c0 <strtol+0x28>)
 80075a0:	6a23      	ldr	r3, [r4, #32]
 80075a2:	2b00      	cmp	r3, #0
 80075a4:	bf08      	it	eq
 80075a6:	462b      	moveq	r3, r5
 80075a8:	9300      	str	r3, [sp, #0]
 80075aa:	4613      	mov	r3, r2
 80075ac:	460a      	mov	r2, r1
 80075ae:	4601      	mov	r1, r0
 80075b0:	4620      	mov	r0, r4
 80075b2:	f7ff ff75 	bl	80074a0 <_strtol_l.isra.0>
 80075b6:	b003      	add	sp, #12
 80075b8:	bd30      	pop	{r4, r5, pc}
 80075ba:	bf00      	nop
 80075bc:	20000010 	.word	0x20000010
 80075c0:	20000074 	.word	0x20000074

080075c4 <__locale_ctype_ptr_l>:
 80075c4:	f8d0 00ec 	ldr.w	r0, [r0, #236]	; 0xec
 80075c8:	4770      	bx	lr

080075ca <__ascii_mbtowc>:
 80075ca:	b082      	sub	sp, #8
 80075cc:	b901      	cbnz	r1, 80075d0 <__ascii_mbtowc+0x6>
 80075ce:	a901      	add	r1, sp, #4
 80075d0:	b142      	cbz	r2, 80075e4 <__ascii_mbtowc+0x1a>
 80075d2:	b14b      	cbz	r3, 80075e8 <__ascii_mbtowc+0x1e>
 80075d4:	7813      	ldrb	r3, [r2, #0]
 80075d6:	600b      	str	r3, [r1, #0]
 80075d8:	7812      	ldrb	r2, [r2, #0]
 80075da:	1c10      	adds	r0, r2, #0
 80075dc:	bf18      	it	ne
 80075de:	2001      	movne	r0, #1
 80075e0:	b002      	add	sp, #8
 80075e2:	4770      	bx	lr
 80075e4:	4610      	mov	r0, r2
 80075e6:	e7fb      	b.n	80075e0 <__ascii_mbtowc+0x16>
 80075e8:	f06f 0001 	mvn.w	r0, #1
 80075ec:	e7f8      	b.n	80075e0 <__ascii_mbtowc+0x16>

080075ee <__ssputs_r>:
 80075ee:	e92d 47f0 	stmdb	sp!, {r4, r5, r6, r7, r8, r9, sl, lr}
 80075f2:	688e      	ldr	r6, [r1, #8]
 80075f4:	429e      	cmp	r6, r3
 80075f6:	4682      	mov	sl, r0
 80075f8:	460c      	mov	r4, r1
 80075fa:	4690      	mov	r8, r2
 80075fc:	4699      	mov	r9, r3
 80075fe:	d837      	bhi.n	8007670 <__ssputs_r+0x82>
 8007600:	898a      	ldrh	r2, [r1, #12]
 8007602:	f412 6f90 	tst.w	r2, #1152	; 0x480
 8007606:	d031      	beq.n	800766c <__ssputs_r+0x7e>
 8007608:	6825      	ldr	r5, [r4, #0]
 800760a:	6909      	ldr	r1, [r1, #16]
 800760c:	1a6f      	subs	r7, r5, r1
 800760e:	6965      	ldr	r5, [r4, #20]
 8007610:	2302      	movs	r3, #2
 8007612:	eb05 0545 	add.w	r5, r5, r5, lsl #1
 8007616:	fb95 f5f3 	sdiv	r5, r5, r3
 800761a:	f109 0301 	add.w	r3, r9, #1
 800761e:	443b      	add	r3, r7
 8007620:	429d      	cmp	r5, r3
 8007622:	bf38      	it	cc
 8007624:	461d      	movcc	r5, r3
 8007626:	0553      	lsls	r3, r2, #21
 8007628:	d530      	bpl.n	800768c <__ssputs_r+0x9e>
 800762a:	4629      	mov	r1, r5
 800762c:	f000 fb3a 	bl	8007ca4 <_malloc_r>
 8007630:	4606      	mov	r6, r0
 8007632:	b950      	cbnz	r0, 800764a <__ssputs_r+0x5c>
 8007634:	230c      	movs	r3, #12
 8007636:	f8ca 3000 	str.w	r3, [sl]
 800763a:	89a3      	ldrh	r3, [r4, #12]
 800763c:	f043 0340 	orr.w	r3, r3, #64	; 0x40
 8007640:	81a3      	strh	r3, [r4, #12]
 8007642:	f04f 30ff 	mov.w	r0, #4294967295
 8007646:	e8bd 87f0 	ldmia.w	sp!, {r4, r5, r6, r7, r8, r9, sl, pc}
 800764a:	463a      	mov	r2, r7
 800764c:	6921      	ldr	r1, [r4, #16]
 800764e:	f000 fab6 	bl	8007bbe <memcpy>
 8007652:	89a3      	ldrh	r3, [r4, #12]
 8007654:	f423 6390 	bic.w	r3, r3, #1152	; 0x480
 8007658:	f043 0380 	orr.w	r3, r3, #128	; 0x80
 800765c:	81a3      	strh	r3, [r4, #12]
 800765e:	6126      	str	r6, [r4, #16]
 8007660:	6165      	str	r5, [r4, #20]
 8007662:	443e      	add	r6, r7
 8007664:	1bed      	subs	r5, r5, r7
 8007666:	6026      	str	r6, [r4, #0]
 8007668:	60a5      	str	r5, [r4, #8]
 800766a:	464e      	mov	r6, r9
 800766c:	454e      	cmp	r6, r9
 800766e:	d900      	bls.n	8007672 <__ssputs_r+0x84>
 8007670:	464e      	mov	r6, r9
 8007672:	4632      	mov	r2, r6
 8007674:	4641      	mov	r1, r8
 8007676:	6820      	ldr	r0, [r4, #0]
 8007678:	f000 faac 	bl	8007bd4 <memmove>
 800767c:	68a3      	ldr	r3, [r4, #8]
 800767e:	1b9b      	subs	r3, r3, r6
 8007680:	60a3      	str	r3, [r4, #8]
 8007682:	6823      	ldr	r3, [r4, #0]
 8007684:	441e      	add	r6, r3
 8007686:	6026      	str	r6, [r4, #0]
 8007688:	2000      	movs	r0, #0
 800768a:	e7dc      	b.n	8007646 <__ssputs_r+0x58>
 800768c:	462a      	mov	r2, r5
 800768e:	f000 fb63 	bl	8007d58 <_realloc_r>
 8007692:	4606      	mov	r6, r0
 8007694:	2800      	cmp	r0, #0
 8007696:	d1e2      	bne.n	800765e <__ssputs_r+0x70>
 8007698:	6921      	ldr	r1, [r4, #16]
 800769a:	4650      	mov	r0, sl
 800769c:	f000 fab4 	bl	8007c08 <_free_r>
 80076a0:	e7c8      	b.n	8007634 <__ssputs_r+0x46>
	...

080076a4 <_svfiprintf_r>:
 80076a4:	e92d 4ff0 	stmdb	sp!, {r4, r5, r6, r7, r8, r9, sl, fp, lr}
 80076a8:	461d      	mov	r5, r3
 80076aa:	898b      	ldrh	r3, [r1, #12]
 80076ac:	061f      	lsls	r7, r3, #24
 80076ae:	b09d      	sub	sp, #116	; 0x74
 80076b0:	4680      	mov	r8, r0
 80076b2:	460c      	mov	r4, r1
 80076b4:	4616      	mov	r6, r2
 80076b6:	d50f      	bpl.n	80076d8 <_svfiprintf_r+0x34>
 80076b8:	690b      	ldr	r3, [r1, #16]
 80076ba:	b96b      	cbnz	r3, 80076d8 <_svfiprintf_r+0x34>
 80076bc:	2140      	movs	r1, #64	; 0x40
 80076be:	f000 faf1 	bl	8007ca4 <_malloc_r>
 80076c2:	6020      	str	r0, [r4, #0]
 80076c4:	6120      	str	r0, [r4, #16]
 80076c6:	b928      	cbnz	r0, 80076d4 <_svfiprintf_r+0x30>
 80076c8:	230c      	movs	r3, #12
 80076ca:	f8c8 3000 	str.w	r3, [r8]
 80076ce:	f04f 30ff 	mov.w	r0, #4294967295
 80076d2:	e0c8      	b.n	8007866 <_svfiprintf_r+0x1c2>
 80076d4:	2340      	movs	r3, #64	; 0x40
 80076d6:	6163      	str	r3, [r4, #20]
 80076d8:	2300      	movs	r3, #0
 80076da:	9309      	str	r3, [sp, #36]	; 0x24
 80076dc:	2320      	movs	r3, #32
 80076de:	f88d 3029 	strb.w	r3, [sp, #41]	; 0x29
 80076e2:	2330      	movs	r3, #48	; 0x30
 80076e4:	f88d 302a 	strb.w	r3, [sp, #42]	; 0x2a
 80076e8:	9503      	str	r5, [sp, #12]
 80076ea:	f04f 0b01 	mov.w	fp, #1
 80076ee:	4637      	mov	r7, r6
 80076f0:	463d      	mov	r5, r7
 80076f2:	f815 3b01 	ldrb.w	r3, [r5], #1
 80076f6:	b10b      	cbz	r3, 80076fc <_svfiprintf_r+0x58>
 80076f8:	2b25      	cmp	r3, #37	; 0x25
 80076fa:	d13e      	bne.n	800777a <_svfiprintf_r+0xd6>
 80076fc:	ebb7 0a06 	subs.w	sl, r7, r6
 8007700:	d00b      	beq.n	800771a <_svfiprintf_r+0x76>
 8007702:	4653      	mov	r3, sl
 8007704:	4632      	mov	r2, r6
 8007706:	4621      	mov	r1, r4
 8007708:	4640      	mov	r0, r8
 800770a:	f7ff ff70 	bl	80075ee <__ssputs_r>
 800770e:	3001      	adds	r0, #1
 8007710:	f000 80a4 	beq.w	800785c <_svfiprintf_r+0x1b8>
 8007714:	9b09      	ldr	r3, [sp, #36]	; 0x24
 8007716:	4453      	add	r3, sl
 8007718:	9309      	str	r3, [sp, #36]	; 0x24
 800771a:	783b      	ldrb	r3, [r7, #0]
 800771c:	2b00      	cmp	r3, #0
 800771e:	f000 809d 	beq.w	800785c <_svfiprintf_r+0x1b8>
 8007722:	2300      	movs	r3, #0
 8007724:	f04f 32ff 	mov.w	r2, #4294967295
 8007728:	e9cd 2305 	strd	r2, r3, [sp, #20]
 800772c:	9304      	str	r3, [sp, #16]
 800772e:	9307      	str	r3, [sp, #28]
 8007730:	f88d 3053 	strb.w	r3, [sp, #83]	; 0x53
 8007734:	931a      	str	r3, [sp, #104]	; 0x68
 8007736:	462f      	mov	r7, r5
 8007738:	2205      	movs	r2, #5
 800773a:	f817 1b01 	ldrb.w	r1, [r7], #1
 800773e:	4850      	ldr	r0, [pc, #320]	; (8007880 <_svfiprintf_r+0x1dc>)
 8007740:	f7f8 fd66 	bl	8000210 <memchr>
 8007744:	9b04      	ldr	r3, [sp, #16]
 8007746:	b9d0      	cbnz	r0, 800777e <_svfiprintf_r+0xda>
 8007748:	06d9      	lsls	r1, r3, #27
 800774a:	bf44      	itt	mi
 800774c:	2220      	movmi	r2, #32
 800774e:	f88d 2053 	strbmi.w	r2, [sp, #83]	; 0x53
 8007752:	071a      	lsls	r2, r3, #28
 8007754:	bf44      	itt	mi
 8007756:	222b      	movmi	r2, #43	; 0x2b
 8007758:	f88d 2053 	strbmi.w	r2, [sp, #83]	; 0x53
 800775c:	782a      	ldrb	r2, [r5, #0]
 800775e:	2a2a      	cmp	r2, #42	; 0x2a
 8007760:	d015      	beq.n	800778e <_svfiprintf_r+0xea>
 8007762:	9a07      	ldr	r2, [sp, #28]
 8007764:	462f      	mov	r7, r5
 8007766:	2000      	movs	r0, #0
 8007768:	250a      	movs	r5, #10
 800776a:	4639      	mov	r1, r7
 800776c:	f811 3b01 	ldrb.w	r3, [r1], #1
 8007770:	3b30      	subs	r3, #48	; 0x30
 8007772:	2b09      	cmp	r3, #9
 8007774:	d94d      	bls.n	8007812 <_svfiprintf_r+0x16e>
 8007776:	b1b8      	cbz	r0, 80077a8 <_svfiprintf_r+0x104>
 8007778:	e00f      	b.n	800779a <_svfiprintf_r+0xf6>
 800777a:	462f      	mov	r7, r5
 800777c:	e7b8      	b.n	80076f0 <_svfiprintf_r+0x4c>
 800777e:	4a40      	ldr	r2, [pc, #256]	; (8007880 <_svfiprintf_r+0x1dc>)
 8007780:	1a80      	subs	r0, r0, r2
 8007782:	fa0b f000 	lsl.w	r0, fp, r0
 8007786:	4318      	orrs	r0, r3
 8007788:	9004      	str	r0, [sp, #16]
 800778a:	463d      	mov	r5, r7
 800778c:	e7d3      	b.n	8007736 <_svfiprintf_r+0x92>
 800778e:	9a03      	ldr	r2, [sp, #12]
 8007790:	1d11      	adds	r1, r2, #4
 8007792:	6812      	ldr	r2, [r2, #0]
 8007794:	9103      	str	r1, [sp, #12]
 8007796:	2a00      	cmp	r2, #0
 8007798:	db01      	blt.n	800779e <_svfiprintf_r+0xfa>
 800779a:	9207      	str	r2, [sp, #28]
 800779c:	e004      	b.n	80077a8 <_svfiprintf_r+0x104>
 800779e:	4252      	negs	r2, r2
 80077a0:	f043 0302 	orr.w	r3, r3, #2
 80077a4:	9207      	str	r2, [sp, #28]
 80077a6:	9304      	str	r3, [sp, #16]
 80077a8:	783b      	ldrb	r3, [r7, #0]
 80077aa:	2b2e      	cmp	r3, #46	; 0x2e
 80077ac:	d10c      	bne.n	80077c8 <_svfiprintf_r+0x124>
 80077ae:	787b      	ldrb	r3, [r7, #1]
 80077b0:	2b2a      	cmp	r3, #42	; 0x2a
 80077b2:	d133      	bne.n	800781c <_svfiprintf_r+0x178>
 80077b4:	9b03      	ldr	r3, [sp, #12]
 80077b6:	1d1a      	adds	r2, r3, #4
 80077b8:	681b      	ldr	r3, [r3, #0]
 80077ba:	9203      	str	r2, [sp, #12]
 80077bc:	2b00      	cmp	r3, #0
 80077be:	bfb8      	it	lt
 80077c0:	f04f 33ff 	movlt.w	r3, #4294967295
 80077c4:	3702      	adds	r7, #2
 80077c6:	9305      	str	r3, [sp, #20]
 80077c8:	4d2e      	ldr	r5, [pc, #184]	; (8007884 <_svfiprintf_r+0x1e0>)
 80077ca:	7839      	ldrb	r1, [r7, #0]
 80077cc:	2203      	movs	r2, #3
 80077ce:	4628      	mov	r0, r5
 80077d0:	f7f8 fd1e 	bl	8000210 <memchr>
 80077d4:	b138      	cbz	r0, 80077e6 <_svfiprintf_r+0x142>
 80077d6:	2340      	movs	r3, #64	; 0x40
 80077d8:	1b40      	subs	r0, r0, r5
 80077da:	fa03 f000 	lsl.w	r0, r3, r0
 80077de:	9b04      	ldr	r3, [sp, #16]
 80077e0:	4303      	orrs	r3, r0
 80077e2:	3701      	adds	r7, #1
 80077e4:	9304      	str	r3, [sp, #16]
 80077e6:	7839      	ldrb	r1, [r7, #0]
 80077e8:	4827      	ldr	r0, [pc, #156]	; (8007888 <_svfiprintf_r+0x1e4>)
 80077ea:	f88d 1028 	strb.w	r1, [sp, #40]	; 0x28
 80077ee:	2206      	movs	r2, #6
 80077f0:	1c7e      	adds	r6, r7, #1
 80077f2:	f7f8 fd0d 	bl	8000210 <memchr>
 80077f6:	2800      	cmp	r0, #0
 80077f8:	d038      	beq.n	800786c <_svfiprintf_r+0x1c8>
 80077fa:	4b24      	ldr	r3, [pc, #144]	; (800788c <_svfiprintf_r+0x1e8>)
 80077fc:	bb13      	cbnz	r3, 8007844 <_svfiprintf_r+0x1a0>
 80077fe:	9b03      	ldr	r3, [sp, #12]
 8007800:	3307      	adds	r3, #7
 8007802:	f023 0307 	bic.w	r3, r3, #7
 8007806:	3308      	adds	r3, #8
 8007808:	9303      	str	r3, [sp, #12]
 800780a:	9b09      	ldr	r3, [sp, #36]	; 0x24
 800780c:	444b      	add	r3, r9
 800780e:	9309      	str	r3, [sp, #36]	; 0x24
 8007810:	e76d      	b.n	80076ee <_svfiprintf_r+0x4a>
 8007812:	fb05 3202 	mla	r2, r5, r2, r3
 8007816:	2001      	movs	r0, #1
 8007818:	460f      	mov	r7, r1
 800781a:	e7a6      	b.n	800776a <_svfiprintf_r+0xc6>
 800781c:	2300      	movs	r3, #0
 800781e:	3701      	adds	r7, #1
 8007820:	9305      	str	r3, [sp, #20]
 8007822:	4619      	mov	r1, r3
 8007824:	250a      	movs	r5, #10
 8007826:	4638      	mov	r0, r7
 8007828:	f810 2b01 	ldrb.w	r2, [r0], #1
 800782c:	3a30      	subs	r2, #48	; 0x30
 800782e:	2a09      	cmp	r2, #9
 8007830:	d903      	bls.n	800783a <_svfiprintf_r+0x196>
 8007832:	2b00      	cmp	r3, #0
 8007834:	d0c8      	beq.n	80077c8 <_svfiprintf_r+0x124>
 8007836:	9105      	str	r1, [sp, #20]
 8007838:	e7c6      	b.n	80077c8 <_svfiprintf_r+0x124>
 800783a:	fb05 2101 	mla	r1, r5, r1, r2
 800783e:	2301      	movs	r3, #1
 8007840:	4607      	mov	r7, r0
 8007842:	e7f0      	b.n	8007826 <_svfiprintf_r+0x182>
 8007844:	ab03      	add	r3, sp, #12
 8007846:	9300      	str	r3, [sp, #0]
 8007848:	4622      	mov	r2, r4
 800784a:	4b11      	ldr	r3, [pc, #68]	; (8007890 <_svfiprintf_r+0x1ec>)
 800784c:	a904      	add	r1, sp, #16
 800784e:	4640      	mov	r0, r8
 8007850:	f3af 8000 	nop.w
 8007854:	f1b0 3fff 	cmp.w	r0, #4294967295
 8007858:	4681      	mov	r9, r0
 800785a:	d1d6      	bne.n	800780a <_svfiprintf_r+0x166>
 800785c:	89a3      	ldrh	r3, [r4, #12]
 800785e:	065b      	lsls	r3, r3, #25
 8007860:	f53f af35 	bmi.w	80076ce <_svfiprintf_r+0x2a>
 8007864:	9809      	ldr	r0, [sp, #36]	; 0x24
 8007866:	b01d      	add	sp, #116	; 0x74
 8007868:	e8bd 8ff0 	ldmia.w	sp!, {r4, r5, r6, r7, r8, r9, sl, fp, pc}
 800786c:	ab03      	add	r3, sp, #12
 800786e:	9300      	str	r3, [sp, #0]
 8007870:	4622      	mov	r2, r4
 8007872:	4b07      	ldr	r3, [pc, #28]	; (8007890 <_svfiprintf_r+0x1ec>)
 8007874:	a904      	add	r1, sp, #16
 8007876:	4640      	mov	r0, r8
 8007878:	f000 f882 	bl	8007980 <_printf_i>
 800787c:	e7ea      	b.n	8007854 <_svfiprintf_r+0x1b0>
 800787e:	bf00      	nop
 8007880:	08007e52 	.word	0x08007e52
 8007884:	08007e58 	.word	0x08007e58
 8007888:	08007e5c 	.word	0x08007e5c
 800788c:	00000000 	.word	0x00000000
 8007890:	080075ef 	.word	0x080075ef

08007894 <_printf_common>:
 8007894:	e92d 47f0 	stmdb	sp!, {r4, r5, r6, r7, r8, r9, sl, lr}
 8007898:	4691      	mov	r9, r2
 800789a:	461f      	mov	r7, r3
 800789c:	688a      	ldr	r2, [r1, #8]
 800789e:	690b      	ldr	r3, [r1, #16]
 80078a0:	f8dd 8020 	ldr.w	r8, [sp, #32]
 80078a4:	4293      	cmp	r3, r2
 80078a6:	bfb8      	it	lt
 80078a8:	4613      	movlt	r3, r2
 80078aa:	f8c9 3000 	str.w	r3, [r9]
 80078ae:	f891 2043 	ldrb.w	r2, [r1, #67]	; 0x43
 80078b2:	4606      	mov	r6, r0
 80078b4:	460c      	mov	r4, r1
 80078b6:	b112      	cbz	r2, 80078be <_printf_common+0x2a>
 80078b8:	3301      	adds	r3, #1
 80078ba:	f8c9 3000 	str.w	r3, [r9]
 80078be:	6823      	ldr	r3, [r4, #0]
 80078c0:	0699      	lsls	r1, r3, #26
 80078c2:	bf42      	ittt	mi
 80078c4:	f8d9 3000 	ldrmi.w	r3, [r9]
 80078c8:	3302      	addmi	r3, #2
 80078ca:	f8c9 3000 	strmi.w	r3, [r9]
 80078ce:	6825      	ldr	r5, [r4, #0]
 80078d0:	f015 0506 	ands.w	r5, r5, #6
 80078d4:	d107      	bne.n	80078e6 <_printf_common+0x52>
 80078d6:	f104 0a19 	add.w	sl, r4, #25
 80078da:	68e3      	ldr	r3, [r4, #12]
 80078dc:	f8d9 2000 	ldr.w	r2, [r9]
 80078e0:	1a9b      	subs	r3, r3, r2
 80078e2:	42ab      	cmp	r3, r5
 80078e4:	dc28      	bgt.n	8007938 <_printf_common+0xa4>
 80078e6:	f894 3043 	ldrb.w	r3, [r4, #67]	; 0x43
 80078ea:	6822      	ldr	r2, [r4, #0]
 80078ec:	3300      	adds	r3, #0
 80078ee:	bf18      	it	ne
 80078f0:	2301      	movne	r3, #1
 80078f2:	0692      	lsls	r2, r2, #26
 80078f4:	d42d      	bmi.n	8007952 <_printf_common+0xbe>
 80078f6:	f104 0243 	add.w	r2, r4, #67	; 0x43
 80078fa:	4639      	mov	r1, r7
 80078fc:	4630      	mov	r0, r6
 80078fe:	47c0      	blx	r8
 8007900:	3001      	adds	r0, #1
 8007902:	d020      	beq.n	8007946 <_printf_common+0xb2>
 8007904:	6823      	ldr	r3, [r4, #0]
 8007906:	68e5      	ldr	r5, [r4, #12]
 8007908:	f8d9 2000 	ldr.w	r2, [r9]
 800790c:	f003 0306 	and.w	r3, r3, #6
 8007910:	2b04      	cmp	r3, #4
 8007912:	bf08      	it	eq
 8007914:	1aad      	subeq	r5, r5, r2
 8007916:	68a3      	ldr	r3, [r4, #8]
 8007918:	6922      	ldr	r2, [r4, #16]
 800791a:	bf0c      	ite	eq
 800791c:	ea25 75e5 	biceq.w	r5, r5, r5, asr #31
 8007920:	2500      	movne	r5, #0
 8007922:	4293      	cmp	r3, r2
 8007924:	bfc4      	itt	gt
 8007926:	1a9b      	subgt	r3, r3, r2
 8007928:	18ed      	addgt	r5, r5, r3
 800792a:	f04f 0900 	mov.w	r9, #0
 800792e:	341a      	adds	r4, #26
 8007930:	454d      	cmp	r5, r9
 8007932:	d11a      	bne.n	800796a <_printf_common+0xd6>
 8007934:	2000      	movs	r0, #0
 8007936:	e008      	b.n	800794a <_printf_common+0xb6>
 8007938:	2301      	movs	r3, #1
 800793a:	4652      	mov	r2, sl
 800793c:	4639      	mov	r1, r7
 800793e:	4630      	mov	r0, r6
 8007940:	47c0      	blx	r8
 8007942:	3001      	adds	r0, #1
 8007944:	d103      	bne.n	800794e <_printf_common+0xba>
 8007946:	f04f 30ff 	mov.w	r0, #4294967295
 800794a:	e8bd 87f0 	ldmia.w	sp!, {r4, r5, r6, r7, r8, r9, sl, pc}
 800794e:	3501      	adds	r5, #1
 8007950:	e7c3      	b.n	80078da <_printf_common+0x46>
 8007952:	18e1      	adds	r1, r4, r3
 8007954:	1c5a      	adds	r2, r3, #1
 8007956:	2030      	movs	r0, #48	; 0x30
 8007958:	f881 0043 	strb.w	r0, [r1, #67]	; 0x43
 800795c:	4422      	add	r2, r4
 800795e:	f894 1045 	ldrb.w	r1, [r4, #69]	; 0x45
 8007962:	f882 1043 	strb.w	r1, [r2, #67]	; 0x43
 8007966:	3302      	adds	r3, #2
 8007968:	e7c5      	b.n	80078f6 <_printf_common+0x62>
 800796a:	2301      	movs	r3, #1
 800796c:	4622      	mov	r2, r4
 800796e:	4639      	mov	r1, r7
 8007970:	4630      	mov	r0, r6
 8007972:	47c0      	blx	r8
 8007974:	3001      	adds	r0, #1
 8007976:	d0e6      	beq.n	8007946 <_printf_common+0xb2>
 8007978:	f109 0901 	add.w	r9, r9, #1
 800797c:	e7d8      	b.n	8007930 <_printf_common+0x9c>
	...

08007980 <_printf_i>:
 8007980:	e92d 43f0 	stmdb	sp!, {r4, r5, r6, r7, r8, r9, lr}
 8007984:	f101 0c43 	add.w	ip, r1, #67	; 0x43
 8007988:	460c      	mov	r4, r1
 800798a:	7e09      	ldrb	r1, [r1, #24]
 800798c:	b085      	sub	sp, #20
 800798e:	296e      	cmp	r1, #110	; 0x6e
 8007990:	4617      	mov	r7, r2
 8007992:	4606      	mov	r6, r0
 8007994:	4698      	mov	r8, r3
 8007996:	9a0c      	ldr	r2, [sp, #48]	; 0x30
 8007998:	f000 80b3 	beq.w	8007b02 <_printf_i+0x182>
 800799c:	d822      	bhi.n	80079e4 <_printf_i+0x64>
 800799e:	2963      	cmp	r1, #99	; 0x63
 80079a0:	d036      	beq.n	8007a10 <_printf_i+0x90>
 80079a2:	d80a      	bhi.n	80079ba <_printf_i+0x3a>
 80079a4:	2900      	cmp	r1, #0
 80079a6:	f000 80b9 	beq.w	8007b1c <_printf_i+0x19c>
 80079aa:	2958      	cmp	r1, #88	; 0x58
 80079ac:	f000 8083 	beq.w	8007ab6 <_printf_i+0x136>
 80079b0:	f104 0542 	add.w	r5, r4, #66	; 0x42
 80079b4:	f884 1042 	strb.w	r1, [r4, #66]	; 0x42
 80079b8:	e032      	b.n	8007a20 <_printf_i+0xa0>
 80079ba:	2964      	cmp	r1, #100	; 0x64
 80079bc:	d001      	beq.n	80079c2 <_printf_i+0x42>
 80079be:	2969      	cmp	r1, #105	; 0x69
 80079c0:	d1f6      	bne.n	80079b0 <_printf_i+0x30>
 80079c2:	6820      	ldr	r0, [r4, #0]
 80079c4:	6813      	ldr	r3, [r2, #0]
 80079c6:	0605      	lsls	r5, r0, #24
 80079c8:	f103 0104 	add.w	r1, r3, #4
 80079cc:	d52a      	bpl.n	8007a24 <_printf_i+0xa4>
 80079ce:	681b      	ldr	r3, [r3, #0]
 80079d0:	6011      	str	r1, [r2, #0]
 80079d2:	2b00      	cmp	r3, #0
 80079d4:	da03      	bge.n	80079de <_printf_i+0x5e>
 80079d6:	222d      	movs	r2, #45	; 0x2d
 80079d8:	425b      	negs	r3, r3
 80079da:	f884 2043 	strb.w	r2, [r4, #67]	; 0x43
 80079de:	486f      	ldr	r0, [pc, #444]	; (8007b9c <_printf_i+0x21c>)
 80079e0:	220a      	movs	r2, #10
 80079e2:	e039      	b.n	8007a58 <_printf_i+0xd8>
 80079e4:	2973      	cmp	r1, #115	; 0x73
 80079e6:	f000 809d 	beq.w	8007b24 <_printf_i+0x1a4>
 80079ea:	d808      	bhi.n	80079fe <_printf_i+0x7e>
 80079ec:	296f      	cmp	r1, #111	; 0x6f
 80079ee:	d020      	beq.n	8007a32 <_printf_i+0xb2>
 80079f0:	2970      	cmp	r1, #112	; 0x70
 80079f2:	d1dd      	bne.n	80079b0 <_printf_i+0x30>
 80079f4:	6823      	ldr	r3, [r4, #0]
 80079f6:	f043 0320 	orr.w	r3, r3, #32
 80079fa:	6023      	str	r3, [r4, #0]
 80079fc:	e003      	b.n	8007a06 <_printf_i+0x86>
 80079fe:	2975      	cmp	r1, #117	; 0x75
 8007a00:	d017      	beq.n	8007a32 <_printf_i+0xb2>
 8007a02:	2978      	cmp	r1, #120	; 0x78
 8007a04:	d1d4      	bne.n	80079b0 <_printf_i+0x30>
 8007a06:	2378      	movs	r3, #120	; 0x78
 8007a08:	f884 3045 	strb.w	r3, [r4, #69]	; 0x45
 8007a0c:	4864      	ldr	r0, [pc, #400]	; (8007ba0 <_printf_i+0x220>)
 8007a0e:	e055      	b.n	8007abc <_printf_i+0x13c>
 8007a10:	6813      	ldr	r3, [r2, #0]
 8007a12:	1d19      	adds	r1, r3, #4
 8007a14:	681b      	ldr	r3, [r3, #0]
 8007a16:	6011      	str	r1, [r2, #0]
 8007a18:	f104 0542 	add.w	r5, r4, #66	; 0x42
 8007a1c:	f884 3042 	strb.w	r3, [r4, #66]	; 0x42
 8007a20:	2301      	movs	r3, #1
 8007a22:	e08c      	b.n	8007b3e <_printf_i+0x1be>
 8007a24:	681b      	ldr	r3, [r3, #0]
 8007a26:	6011      	str	r1, [r2, #0]
 8007a28:	f010 0f40 	tst.w	r0, #64	; 0x40
 8007a2c:	bf18      	it	ne
 8007a2e:	b21b      	sxthne	r3, r3
 8007a30:	e7cf      	b.n	80079d2 <_printf_i+0x52>
 8007a32:	6813      	ldr	r3, [r2, #0]
 8007a34:	6825      	ldr	r5, [r4, #0]
 8007a36:	1d18      	adds	r0, r3, #4
 8007a38:	6010      	str	r0, [r2, #0]
 8007a3a:	0628      	lsls	r0, r5, #24
 8007a3c:	d501      	bpl.n	8007a42 <_printf_i+0xc2>
 8007a3e:	681b      	ldr	r3, [r3, #0]
 8007a40:	e002      	b.n	8007a48 <_printf_i+0xc8>
 8007a42:	0668      	lsls	r0, r5, #25
 8007a44:	d5fb      	bpl.n	8007a3e <_printf_i+0xbe>
 8007a46:	881b      	ldrh	r3, [r3, #0]
 8007a48:	4854      	ldr	r0, [pc, #336]	; (8007b9c <_printf_i+0x21c>)
 8007a4a:	296f      	cmp	r1, #111	; 0x6f
 8007a4c:	bf14      	ite	ne
 8007a4e:	220a      	movne	r2, #10
 8007a50:	2208      	moveq	r2, #8
 8007a52:	2100      	movs	r1, #0
 8007a54:	f884 1043 	strb.w	r1, [r4, #67]	; 0x43
 8007a58:	6865      	ldr	r5, [r4, #4]
 8007a5a:	60a5      	str	r5, [r4, #8]
 8007a5c:	2d00      	cmp	r5, #0
 8007a5e:	f2c0 8095 	blt.w	8007b8c <_printf_i+0x20c>
 8007a62:	6821      	ldr	r1, [r4, #0]
 8007a64:	f021 0104 	bic.w	r1, r1, #4
 8007a68:	6021      	str	r1, [r4, #0]
 8007a6a:	2b00      	cmp	r3, #0
 8007a6c:	d13d      	bne.n	8007aea <_printf_i+0x16a>
 8007a6e:	2d00      	cmp	r5, #0
 8007a70:	f040 808e 	bne.w	8007b90 <_printf_i+0x210>
 8007a74:	4665      	mov	r5, ip
 8007a76:	2a08      	cmp	r2, #8
 8007a78:	d10b      	bne.n	8007a92 <_printf_i+0x112>
 8007a7a:	6823      	ldr	r3, [r4, #0]
 8007a7c:	07db      	lsls	r3, r3, #31
 8007a7e:	d508      	bpl.n	8007a92 <_printf_i+0x112>
 8007a80:	6923      	ldr	r3, [r4, #16]
 8007a82:	6862      	ldr	r2, [r4, #4]
 8007a84:	429a      	cmp	r2, r3
 8007a86:	bfde      	ittt	le
 8007a88:	2330      	movle	r3, #48	; 0x30
 8007a8a:	f805 3c01 	strble.w	r3, [r5, #-1]
 8007a8e:	f105 35ff 	addle.w	r5, r5, #4294967295
 8007a92:	ebac 0305 	sub.w	r3, ip, r5
 8007a96:	6123      	str	r3, [r4, #16]
 8007a98:	f8cd 8000 	str.w	r8, [sp]
 8007a9c:	463b      	mov	r3, r7
 8007a9e:	aa03      	add	r2, sp, #12
 8007aa0:	4621      	mov	r1, r4
 8007aa2:	4630      	mov	r0, r6
 8007aa4:	f7ff fef6 	bl	8007894 <_printf_common>
 8007aa8:	3001      	adds	r0, #1
 8007aaa:	d14d      	bne.n	8007b48 <_printf_i+0x1c8>
 8007aac:	f04f 30ff 	mov.w	r0, #4294967295
 8007ab0:	b005      	add	sp, #20
 8007ab2:	e8bd 83f0 	ldmia.w	sp!, {r4, r5, r6, r7, r8, r9, pc}
 8007ab6:	4839      	ldr	r0, [pc, #228]	; (8007b9c <_printf_i+0x21c>)
 8007ab8:	f884 1045 	strb.w	r1, [r4, #69]	; 0x45
 8007abc:	6813      	ldr	r3, [r2, #0]
 8007abe:	6821      	ldr	r1, [r4, #0]
 8007ac0:	1d1d      	adds	r5, r3, #4
 8007ac2:	681b      	ldr	r3, [r3, #0]
 8007ac4:	6015      	str	r5, [r2, #0]
 8007ac6:	060a      	lsls	r2, r1, #24
 8007ac8:	d50b      	bpl.n	8007ae2 <_printf_i+0x162>
 8007aca:	07ca      	lsls	r2, r1, #31
 8007acc:	bf44      	itt	mi
 8007ace:	f041 0120 	orrmi.w	r1, r1, #32
 8007ad2:	6021      	strmi	r1, [r4, #0]
 8007ad4:	b91b      	cbnz	r3, 8007ade <_printf_i+0x15e>
 8007ad6:	6822      	ldr	r2, [r4, #0]
 8007ad8:	f022 0220 	bic.w	r2, r2, #32
 8007adc:	6022      	str	r2, [r4, #0]
 8007ade:	2210      	movs	r2, #16
 8007ae0:	e7b7      	b.n	8007a52 <_printf_i+0xd2>
 8007ae2:	064d      	lsls	r5, r1, #25
 8007ae4:	bf48      	it	mi
 8007ae6:	b29b      	uxthmi	r3, r3
 8007ae8:	e7ef      	b.n	8007aca <_printf_i+0x14a>
 8007aea:	4665      	mov	r5, ip
 8007aec:	fbb3 f1f2 	udiv	r1, r3, r2
 8007af0:	fb02 3311 	mls	r3, r2, r1, r3
 8007af4:	5cc3      	ldrb	r3, [r0, r3]
 8007af6:	f805 3d01 	strb.w	r3, [r5, #-1]!
 8007afa:	460b      	mov	r3, r1
 8007afc:	2900      	cmp	r1, #0
 8007afe:	d1f5      	bne.n	8007aec <_printf_i+0x16c>
 8007b00:	e7b9      	b.n	8007a76 <_printf_i+0xf6>
 8007b02:	6813      	ldr	r3, [r2, #0]
 8007b04:	6825      	ldr	r5, [r4, #0]
 8007b06:	6961      	ldr	r1, [r4, #20]
 8007b08:	1d18      	adds	r0, r3, #4
 8007b0a:	6010      	str	r0, [r2, #0]
 8007b0c:	0628      	lsls	r0, r5, #24
 8007b0e:	681b      	ldr	r3, [r3, #0]
 8007b10:	d501      	bpl.n	8007b16 <_printf_i+0x196>
 8007b12:	6019      	str	r1, [r3, #0]
 8007b14:	e002      	b.n	8007b1c <_printf_i+0x19c>
 8007b16:	066a      	lsls	r2, r5, #25
 8007b18:	d5fb      	bpl.n	8007b12 <_printf_i+0x192>
 8007b1a:	8019      	strh	r1, [r3, #0]
 8007b1c:	2300      	movs	r3, #0
 8007b1e:	6123      	str	r3, [r4, #16]
 8007b20:	4665      	mov	r5, ip
 8007b22:	e7b9      	b.n	8007a98 <_printf_i+0x118>
 8007b24:	6813      	ldr	r3, [r2, #0]
 8007b26:	1d19      	adds	r1, r3, #4
 8007b28:	6011      	str	r1, [r2, #0]
 8007b2a:	681d      	ldr	r5, [r3, #0]
 8007b2c:	6862      	ldr	r2, [r4, #4]
 8007b2e:	2100      	movs	r1, #0
 8007b30:	4628      	mov	r0, r5
 8007b32:	f7f8 fb6d 	bl	8000210 <memchr>
 8007b36:	b108      	cbz	r0, 8007b3c <_printf_i+0x1bc>
 8007b38:	1b40      	subs	r0, r0, r5
 8007b3a:	6060      	str	r0, [r4, #4]
 8007b3c:	6863      	ldr	r3, [r4, #4]
 8007b3e:	6123      	str	r3, [r4, #16]
 8007b40:	2300      	movs	r3, #0
 8007b42:	f884 3043 	strb.w	r3, [r4, #67]	; 0x43
 8007b46:	e7a7      	b.n	8007a98 <_printf_i+0x118>
 8007b48:	6923      	ldr	r3, [r4, #16]
 8007b4a:	462a      	mov	r2, r5
 8007b4c:	4639      	mov	r1, r7
 8007b4e:	4630      	mov	r0, r6
 8007b50:	47c0      	blx	r8
 8007b52:	3001      	adds	r0, #1
 8007b54:	d0aa      	beq.n	8007aac <_printf_i+0x12c>
 8007b56:	6823      	ldr	r3, [r4, #0]
 8007b58:	079b      	lsls	r3, r3, #30
 8007b5a:	d413      	bmi.n	8007b84 <_printf_i+0x204>
 8007b5c:	68e0      	ldr	r0, [r4, #12]
 8007b5e:	9b03      	ldr	r3, [sp, #12]
 8007b60:	4298      	cmp	r0, r3
 8007b62:	bfb8      	it	lt
 8007b64:	4618      	movlt	r0, r3
 8007b66:	e7a3      	b.n	8007ab0 <_printf_i+0x130>
 8007b68:	2301      	movs	r3, #1
 8007b6a:	464a      	mov	r2, r9
 8007b6c:	4639      	mov	r1, r7
 8007b6e:	4630      	mov	r0, r6
 8007b70:	47c0      	blx	r8
 8007b72:	3001      	adds	r0, #1
 8007b74:	d09a      	beq.n	8007aac <_printf_i+0x12c>
 8007b76:	3501      	adds	r5, #1
 8007b78:	68e3      	ldr	r3, [r4, #12]
 8007b7a:	9a03      	ldr	r2, [sp, #12]
 8007b7c:	1a9b      	subs	r3, r3, r2
 8007b7e:	42ab      	cmp	r3, r5
 8007b80:	dcf2      	bgt.n	8007b68 <_printf_i+0x1e8>
 8007b82:	e7eb      	b.n	8007b5c <_printf_i+0x1dc>
 8007b84:	2500      	movs	r5, #0
 8007b86:	f104 0919 	add.w	r9, r4, #25
 8007b8a:	e7f5      	b.n	8007b78 <_printf_i+0x1f8>
 8007b8c:	2b00      	cmp	r3, #0
 8007b8e:	d1ac      	bne.n	8007aea <_printf_i+0x16a>
 8007b90:	7803      	ldrb	r3, [r0, #0]
 8007b92:	f884 3042 	strb.w	r3, [r4, #66]	; 0x42
 8007b96:	f104 0542 	add.w	r5, r4, #66	; 0x42
 8007b9a:	e76c      	b.n	8007a76 <_printf_i+0xf6>
 8007b9c:	08007e63 	.word	0x08007e63
 8007ba0:	08007e74 	.word	0x08007e74

08007ba4 <__ascii_wctomb>:
 8007ba4:	b149      	cbz	r1, 8007bba <__ascii_wctomb+0x16>
 8007ba6:	2aff      	cmp	r2, #255	; 0xff
 8007ba8:	bf85      	ittet	hi
 8007baa:	238a      	movhi	r3, #138	; 0x8a
 8007bac:	6003      	strhi	r3, [r0, #0]
 8007bae:	700a      	strbls	r2, [r1, #0]
 8007bb0:	f04f 30ff 	movhi.w	r0, #4294967295
 8007bb4:	bf98      	it	ls
 8007bb6:	2001      	movls	r0, #1
 8007bb8:	4770      	bx	lr
 8007bba:	4608      	mov	r0, r1
 8007bbc:	4770      	bx	lr

08007bbe <memcpy>:
 8007bbe:	b510      	push	{r4, lr}
 8007bc0:	1e43      	subs	r3, r0, #1
 8007bc2:	440a      	add	r2, r1
 8007bc4:	4291      	cmp	r1, r2
 8007bc6:	d100      	bne.n	8007bca <memcpy+0xc>
 8007bc8:	bd10      	pop	{r4, pc}
 8007bca:	f811 4b01 	ldrb.w	r4, [r1], #1
 8007bce:	f803 4f01 	strb.w	r4, [r3, #1]!
 8007bd2:	e7f7      	b.n	8007bc4 <memcpy+0x6>

08007bd4 <memmove>:
 8007bd4:	4288      	cmp	r0, r1
 8007bd6:	b510      	push	{r4, lr}
 8007bd8:	eb01 0302 	add.w	r3, r1, r2
 8007bdc:	d807      	bhi.n	8007bee <memmove+0x1a>
 8007bde:	1e42      	subs	r2, r0, #1
 8007be0:	4299      	cmp	r1, r3
 8007be2:	d00a      	beq.n	8007bfa <memmove+0x26>
 8007be4:	f811 4b01 	ldrb.w	r4, [r1], #1
 8007be8:	f802 4f01 	strb.w	r4, [r2, #1]!
 8007bec:	e7f8      	b.n	8007be0 <memmove+0xc>
 8007bee:	4283      	cmp	r3, r0
 8007bf0:	d9f5      	bls.n	8007bde <memmove+0xa>
 8007bf2:	1881      	adds	r1, r0, r2
 8007bf4:	1ad2      	subs	r2, r2, r3
 8007bf6:	42d3      	cmn	r3, r2
 8007bf8:	d100      	bne.n	8007bfc <memmove+0x28>
 8007bfa:	bd10      	pop	{r4, pc}
 8007bfc:	f813 4d01 	ldrb.w	r4, [r3, #-1]!
 8007c00:	f801 4d01 	strb.w	r4, [r1, #-1]!
 8007c04:	e7f7      	b.n	8007bf6 <memmove+0x22>
	...

08007c08 <_free_r>:
 8007c08:	b538      	push	{r3, r4, r5, lr}
 8007c0a:	4605      	mov	r5, r0
 8007c0c:	2900      	cmp	r1, #0
 8007c0e:	d045      	beq.n	8007c9c <_free_r+0x94>
 8007c10:	f851 3c04 	ldr.w	r3, [r1, #-4]
 8007c14:	1f0c      	subs	r4, r1, #4
 8007c16:	2b00      	cmp	r3, #0
 8007c18:	bfb8      	it	lt
 8007c1a:	18e4      	addlt	r4, r4, r3
 8007c1c:	f000 f8d2 	bl	8007dc4 <__malloc_lock>
 8007c20:	4a1f      	ldr	r2, [pc, #124]	; (8007ca0 <_free_r+0x98>)
 8007c22:	6813      	ldr	r3, [r2, #0]
 8007c24:	4610      	mov	r0, r2
 8007c26:	b933      	cbnz	r3, 8007c36 <_free_r+0x2e>
 8007c28:	6063      	str	r3, [r4, #4]
 8007c2a:	6014      	str	r4, [r2, #0]
 8007c2c:	4628      	mov	r0, r5
 8007c2e:	e8bd 4038 	ldmia.w	sp!, {r3, r4, r5, lr}
 8007c32:	f000 b8c8 	b.w	8007dc6 <__malloc_unlock>
 8007c36:	42a3      	cmp	r3, r4
 8007c38:	d90c      	bls.n	8007c54 <_free_r+0x4c>
 8007c3a:	6821      	ldr	r1, [r4, #0]
 8007c3c:	1862      	adds	r2, r4, r1
 8007c3e:	4293      	cmp	r3, r2
 8007c40:	bf04      	itt	eq
 8007c42:	681a      	ldreq	r2, [r3, #0]
 8007c44:	685b      	ldreq	r3, [r3, #4]
 8007c46:	6063      	str	r3, [r4, #4]
 8007c48:	bf04      	itt	eq
 8007c4a:	1852      	addeq	r2, r2, r1
 8007c4c:	6022      	streq	r2, [r4, #0]
 8007c4e:	6004      	str	r4, [r0, #0]
 8007c50:	e7ec      	b.n	8007c2c <_free_r+0x24>
 8007c52:	4613      	mov	r3, r2
 8007c54:	685a      	ldr	r2, [r3, #4]
 8007c56:	b10a      	cbz	r2, 8007c5c <_free_r+0x54>
 8007c58:	42a2      	cmp	r2, r4
 8007c5a:	d9fa      	bls.n	8007c52 <_free_r+0x4a>
 8007c5c:	6819      	ldr	r1, [r3, #0]
 8007c5e:	1858      	adds	r0, r3, r1
 8007c60:	42a0      	cmp	r0, r4
 8007c62:	d10b      	bne.n	8007c7c <_free_r+0x74>
 8007c64:	6820      	ldr	r0, [r4, #0]
 8007c66:	4401      	add	r1, r0
 8007c68:	1858      	adds	r0, r3, r1
 8007c6a:	4282      	cmp	r2, r0
 8007c6c:	6019      	str	r1, [r3, #0]
 8007c6e:	d1dd      	bne.n	8007c2c <_free_r+0x24>
 8007c70:	6810      	ldr	r0, [r2, #0]
 8007c72:	6852      	ldr	r2, [r2, #4]
 8007c74:	605a      	str	r2, [r3, #4]
 8007c76:	4401      	add	r1, r0
 8007c78:	6019      	str	r1, [r3, #0]
 8007c7a:	e7d7      	b.n	8007c2c <_free_r+0x24>
 8007c7c:	d902      	bls.n	8007c84 <_free_r+0x7c>
 8007c7e:	230c      	movs	r3, #12
 8007c80:	602b      	str	r3, [r5, #0]
 8007c82:	e7d3      	b.n	8007c2c <_free_r+0x24>
 8007c84:	6820      	ldr	r0, [r4, #0]
 8007c86:	1821      	adds	r1, r4, r0
 8007c88:	428a      	cmp	r2, r1
 8007c8a:	bf04      	itt	eq
 8007c8c:	6811      	ldreq	r1, [r2, #0]
 8007c8e:	6852      	ldreq	r2, [r2, #4]
 8007c90:	6062      	str	r2, [r4, #4]
 8007c92:	bf04      	itt	eq
 8007c94:	1809      	addeq	r1, r1, r0
 8007c96:	6021      	streq	r1, [r4, #0]
 8007c98:	605c      	str	r4, [r3, #4]
 8007c9a:	e7c7      	b.n	8007c2c <_free_r+0x24>
 8007c9c:	bd38      	pop	{r3, r4, r5, pc}
 8007c9e:	bf00      	nop
 8007ca0:	20000200 	.word	0x20000200

08007ca4 <_malloc_r>:
 8007ca4:	b570      	push	{r4, r5, r6, lr}
 8007ca6:	1ccd      	adds	r5, r1, #3
 8007ca8:	f025 0503 	bic.w	r5, r5, #3
 8007cac:	3508      	adds	r5, #8
 8007cae:	2d0c      	cmp	r5, #12
 8007cb0:	bf38      	it	cc
 8007cb2:	250c      	movcc	r5, #12
 8007cb4:	2d00      	cmp	r5, #0
 8007cb6:	4606      	mov	r6, r0
 8007cb8:	db01      	blt.n	8007cbe <_malloc_r+0x1a>
 8007cba:	42a9      	cmp	r1, r5
 8007cbc:	d903      	bls.n	8007cc6 <_malloc_r+0x22>
 8007cbe:	230c      	movs	r3, #12
 8007cc0:	6033      	str	r3, [r6, #0]
 8007cc2:	2000      	movs	r0, #0
 8007cc4:	bd70      	pop	{r4, r5, r6, pc}
 8007cc6:	f000 f87d 	bl	8007dc4 <__malloc_lock>
 8007cca:	4a21      	ldr	r2, [pc, #132]	; (8007d50 <_malloc_r+0xac>)
 8007ccc:	6814      	ldr	r4, [r2, #0]
 8007cce:	4621      	mov	r1, r4
 8007cd0:	b991      	cbnz	r1, 8007cf8 <_malloc_r+0x54>
 8007cd2:	4c20      	ldr	r4, [pc, #128]	; (8007d54 <_malloc_r+0xb0>)
 8007cd4:	6823      	ldr	r3, [r4, #0]
 8007cd6:	b91b      	cbnz	r3, 8007ce0 <_malloc_r+0x3c>
 8007cd8:	4630      	mov	r0, r6
 8007cda:	f000 f863 	bl	8007da4 <_sbrk_r>
 8007cde:	6020      	str	r0, [r4, #0]
 8007ce0:	4629      	mov	r1, r5
 8007ce2:	4630      	mov	r0, r6
 8007ce4:	f000 f85e 	bl	8007da4 <_sbrk_r>
 8007ce8:	1c43      	adds	r3, r0, #1
 8007cea:	d124      	bne.n	8007d36 <_malloc_r+0x92>
 8007cec:	230c      	movs	r3, #12
 8007cee:	6033      	str	r3, [r6, #0]
 8007cf0:	4630      	mov	r0, r6
 8007cf2:	f000 f868 	bl	8007dc6 <__malloc_unlock>
 8007cf6:	e7e4      	b.n	8007cc2 <_malloc_r+0x1e>
 8007cf8:	680b      	ldr	r3, [r1, #0]
 8007cfa:	1b5b      	subs	r3, r3, r5
 8007cfc:	d418      	bmi.n	8007d30 <_malloc_r+0x8c>
 8007cfe:	2b0b      	cmp	r3, #11
 8007d00:	d90f      	bls.n	8007d22 <_malloc_r+0x7e>
 8007d02:	600b      	str	r3, [r1, #0]
 8007d04:	50cd      	str	r5, [r1, r3]
 8007d06:	18cc      	adds	r4, r1, r3
 8007d08:	4630      	mov	r0, r6
 8007d0a:	f000 f85c 	bl	8007dc6 <__malloc_unlock>
 8007d0e:	f104 000b 	add.w	r0, r4, #11
 8007d12:	1d23      	adds	r3, r4, #4
 8007d14:	f020 0007 	bic.w	r0, r0, #7
 8007d18:	1ac3      	subs	r3, r0, r3
 8007d1a:	d0d3      	beq.n	8007cc4 <_malloc_r+0x20>
 8007d1c:	425a      	negs	r2, r3
 8007d1e:	50e2      	str	r2, [r4, r3]
 8007d20:	e7d0      	b.n	8007cc4 <_malloc_r+0x20>
 8007d22:	428c      	cmp	r4, r1
 8007d24:	684b      	ldr	r3, [r1, #4]
 8007d26:	bf16      	itet	ne
 8007d28:	6063      	strne	r3, [r4, #4]
 8007d2a:	6013      	streq	r3, [r2, #0]
 8007d2c:	460c      	movne	r4, r1
 8007d2e:	e7eb      	b.n	8007d08 <_malloc_r+0x64>
 8007d30:	460c      	mov	r4, r1
 8007d32:	6849      	ldr	r1, [r1, #4]
 8007d34:	e7cc      	b.n	8007cd0 <_malloc_r+0x2c>
 8007d36:	1cc4      	adds	r4, r0, #3
 8007d38:	f024 0403 	bic.w	r4, r4, #3
 8007d3c:	42a0      	cmp	r0, r4
 8007d3e:	d005      	beq.n	8007d4c <_malloc_r+0xa8>
 8007d40:	1a21      	subs	r1, r4, r0
 8007d42:	4630      	mov	r0, r6
 8007d44:	f000 f82e 	bl	8007da4 <_sbrk_r>
 8007d48:	3001      	adds	r0, #1
 8007d4a:	d0cf      	beq.n	8007cec <_malloc_r+0x48>
 8007d4c:	6025      	str	r5, [r4, #0]
 8007d4e:	e7db      	b.n	8007d08 <_malloc_r+0x64>
 8007d50:	20000200 	.word	0x20000200
 8007d54:	20000204 	.word	0x20000204

08007d58 <_realloc_r>:
 8007d58:	b5f8      	push	{r3, r4, r5, r6, r7, lr}
 8007d5a:	4607      	mov	r7, r0
 8007d5c:	4614      	mov	r4, r2
 8007d5e:	460e      	mov	r6, r1
 8007d60:	b921      	cbnz	r1, 8007d6c <_realloc_r+0x14>
 8007d62:	4611      	mov	r1, r2
 8007d64:	e8bd 40f8 	ldmia.w	sp!, {r3, r4, r5, r6, r7, lr}
 8007d68:	f7ff bf9c 	b.w	8007ca4 <_malloc_r>
 8007d6c:	b922      	cbnz	r2, 8007d78 <_realloc_r+0x20>
 8007d6e:	f7ff ff4b 	bl	8007c08 <_free_r>
 8007d72:	4625      	mov	r5, r4
 8007d74:	4628      	mov	r0, r5
 8007d76:	bdf8      	pop	{r3, r4, r5, r6, r7, pc}
 8007d78:	f000 f826 	bl	8007dc8 <_malloc_usable_size_r>
 8007d7c:	42a0      	cmp	r0, r4
 8007d7e:	d20f      	bcs.n	8007da0 <_realloc_r+0x48>
 8007d80:	4621      	mov	r1, r4
 8007d82:	4638      	mov	r0, r7
 8007d84:	f7ff ff8e 	bl	8007ca4 <_malloc_r>
 8007d88:	4605      	mov	r5, r0
 8007d8a:	2800      	cmp	r0, #0
 8007d8c:	d0f2      	beq.n	8007d74 <_realloc_r+0x1c>
 8007d8e:	4631      	mov	r1, r6
 8007d90:	4622      	mov	r2, r4
 8007d92:	f7ff ff14 	bl	8007bbe <memcpy>
 8007d96:	4631      	mov	r1, r6
 8007d98:	4638      	mov	r0, r7
 8007d9a:	f7ff ff35 	bl	8007c08 <_free_r>
 8007d9e:	e7e9      	b.n	8007d74 <_realloc_r+0x1c>
 8007da0:	4635      	mov	r5, r6
 8007da2:	e7e7      	b.n	8007d74 <_realloc_r+0x1c>

08007da4 <_sbrk_r>:
 8007da4:	b538      	push	{r3, r4, r5, lr}
 8007da6:	4c06      	ldr	r4, [pc, #24]	; (8007dc0 <_sbrk_r+0x1c>)
 8007da8:	2300      	movs	r3, #0
 8007daa:	4605      	mov	r5, r0
 8007dac:	4608      	mov	r0, r1
 8007dae:	6023      	str	r3, [r4, #0]
 8007db0:	f7fe ffa6 	bl	8006d00 <_sbrk>
 8007db4:	1c43      	adds	r3, r0, #1
 8007db6:	d102      	bne.n	8007dbe <_sbrk_r+0x1a>
 8007db8:	6823      	ldr	r3, [r4, #0]
 8007dba:	b103      	cbz	r3, 8007dbe <_sbrk_r+0x1a>
 8007dbc:	602b      	str	r3, [r5, #0]
 8007dbe:	bd38      	pop	{r3, r4, r5, pc}
 8007dc0:	20000804 	.word	0x20000804

08007dc4 <__malloc_lock>:
 8007dc4:	4770      	bx	lr

08007dc6 <__malloc_unlock>:
 8007dc6:	4770      	bx	lr

08007dc8 <_malloc_usable_size_r>:
 8007dc8:	f851 3c04 	ldr.w	r3, [r1, #-4]
 8007dcc:	1f18      	subs	r0, r3, #4
 8007dce:	2b00      	cmp	r3, #0
 8007dd0:	bfbc      	itt	lt
 8007dd2:	580b      	ldrlt	r3, [r1, r0]
 8007dd4:	18c0      	addlt	r0, r0, r3
 8007dd6:	4770      	bx	lr

08007dd8 <_init>:
 8007dd8:	b5f8      	push	{r3, r4, r5, r6, r7, lr}
 8007dda:	bf00      	nop
 8007ddc:	bcf8      	pop	{r3, r4, r5, r6, r7}
 8007dde:	bc08      	pop	{r3}
 8007de0:	469e      	mov	lr, r3
 8007de2:	4770      	bx	lr

08007de4 <_fini>:
 8007de4:	b5f8      	push	{r3, r4, r5, r6, r7, lr}
 8007de6:	bf00      	nop
 8007de8:	bcf8      	pop	{r3, r4, r5, r6, r7}
 8007dea:	bc08      	pop	{r3}
 8007dec:	469e      	mov	lr, r3
 8007dee:	4770      	bx	lr
